---
triple:          'arm64-apple-darwin'
binary-path:     b
relocations:
  - { offsetInCU: 0x99, offset: 0x99, size: 0x8, addend: 0x0, symName: __ZSt23__is_constant_evaluatedv, symObjAddr: 0x0, symBinAddr: 0x1000013A0, symSize: 0x8 }
  - { offsetInCU: 0x1D177, offset: 0x1D177, size: 0x8, addend: 0x0, symName: __ZStL8__ioinit, symObjAddr: 0xA57A0, symBinAddr: 0x1000103D8, symSize: 0x0 }
  - { offsetInCU: 0x203B7, offset: 0x203B7, size: 0x8, addend: 0x0, symName: __ZL3INF, symObjAddr: 0x6530, symBinAddr: 0x1000082F0, symSize: 0x0 }
  - { offsetInCU: 0x203D4, offset: 0x203D4, size: 0x8, addend: 0x0, symName: __ZL6INF_LL, symObjAddr: 0x6538, symBinAddr: 0x1000082F8, symSize: 0x0 }
  - { offsetInCU: 0x2643C, offset: 0x2643C, size: 0x8, addend: 0x0, symName: __ZNSt8__detail30__integer_to_chars_is_unsignedIjEE, symObjAddr: 0x6657, symBinAddr: 0x100008417, symSize: 0x0 }
  - { offsetInCU: 0x26456, offset: 0x26456, size: 0x8, addend: 0x0, symName: __ZNSt8__detail30__integer_to_chars_is_unsignedImEE, symObjAddr: 0x6658, symBinAddr: 0x100008418, symSize: 0x0 }
  - { offsetInCU: 0x26470, offset: 0x26470, size: 0x8, addend: 0x0, symName: __ZNSt8__detail30__integer_to_chars_is_unsignedIyEE, symObjAddr: 0x6659, symBinAddr: 0x100008419, symSize: 0x0 }
  - { offsetInCU: 0x265EF, offset: 0x265EF, size: 0x8, addend: 0x0, symName: __GLOBAL__sub_I_b.cpp, symObjAddr: 0x5750, symBinAddr: 0x100006AF0, symSize: 0x14 }
  - { offsetInCU: 0x2661E, offset: 0x2661E, size: 0x8, addend: 0x0, symName: __Z41__static_initialization_and_destruction_0v, symObjAddr: 0x5714, symBinAddr: 0x100006AB4, symSize: 0x3C }
  - { offsetInCU: 0x26626, offset: 0x26626, size: 0x8, addend: 0x0, symName: __GLOBAL__sub_I_b.cpp, symObjAddr: 0x5750, symBinAddr: 0x100006AF0, symSize: 0x14 }
  - { offsetInCU: 0x266CF, offset: 0x266CF, size: 0x8, addend: 0x0, symName: __ZNSt15__new_allocatorISt13_Rb_tree_nodeINSt7__cxx1112basic_stringIcSt11char_traitsIcESaIcEEEEE8allocateEmPKv, symObjAddr: 0x5698, symBinAddr: 0x100006A38, symSize: 0x7C }
  - { offsetInCU: 0x266D7, offset: 0x266D7, size: 0x8, addend: 0x0, symName: __Z41__static_initialization_and_destruction_0v, symObjAddr: 0x5714, symBinAddr: 0x100006AB4, symSize: 0x3C }
  - { offsetInCU: 0x26808, offset: 0x26808, size: 0x8, addend: 0x0, symName: __ZNSt7__cxx1112basic_stringIcSt11char_traitsIcESaIcEE10_S_compareEmm, symObjAddr: 0x5640, symBinAddr: 0x1000069E0, symSize: 0x58 }
  - { offsetInCU: 0x26810, offset: 0x26810, size: 0x8, addend: 0x0, symName: __ZNSt15__new_allocatorISt13_Rb_tree_nodeINSt7__cxx1112basic_stringIcSt11char_traitsIcESaIcEEEEE8allocateEmPKv, symObjAddr: 0x5698, symBinAddr: 0x100006A38, symSize: 0x7C }
  - { offsetInCU: 0x2694A, offset: 0x2694A, size: 0x8, addend: 0x0, symName: __ZNSt8_Rb_treeINSt7__cxx1112basic_stringIcSt11char_traitsIcESaIcEEES5_St9_IdentityIS5_ESt4lessIS5_ESaIS5_EE17_M_construct_nodeIJS5_EEEvPSt13_Rb_tree_nodeIS5_EDpOT_, symObjAddr: 0x558C, symBinAddr: 0x10000692C, symSize: 0xB4 }
  - { offsetInCU: 0x26952, offset: 0x26952, size: 0x8, addend: 0x0, symName: __ZNSt7__cxx1112basic_stringIcSt11char_traitsIcESaIcEE10_S_compareEmm, symObjAddr: 0x5640, symBinAddr: 0x1000069E0, symSize: 0x58 }
  - { offsetInCU: 0x26A36, offset: 0x26A36, size: 0x8, addend: 0x0, symName: __ZNKSt7__cxx1112basic_stringIcSt11char_traitsIcESaIcEE7compareERKS4_, symObjAddr: 0x54F8, symBinAddr: 0x100006898, symSize: 0x94 }
  - { offsetInCU: 0x26A3E, offset: 0x26A3E, size: 0x8, addend: 0x0, symName: __ZNSt8_Rb_treeINSt7__cxx1112basic_stringIcSt11char_traitsIcESaIcEEES5_St9_IdentityIS5_ESt4lessIS5_ESaIS5_EE17_M_construct_nodeIJS5_EEEvPSt13_Rb_tree_nodeIS5_EDpOT_, symObjAddr: 0x558C, symBinAddr: 0x10000692C, symSize: 0xB4 }
  - { offsetInCU: 0x26AD3, offset: 0x26AD3, size: 0x8, addend: 0x0, symName: __ZN9__gnu_cxx16__aligned_membufINSt7__cxx1112basic_stringIcSt11char_traitsIcESaIcEEEE7_M_addrEv, symObjAddr: 0x54E4, symBinAddr: 0x100006884, symSize: 0x14 }
  - { offsetInCU: 0x26ADB, offset: 0x26ADB, size: 0x8, addend: 0x0, symName: __ZNKSt7__cxx1112basic_stringIcSt11char_traitsIcESaIcEE7compareERKS4_, symObjAddr: 0x54F8, symBinAddr: 0x100006898, symSize: 0x94 }
  - { offsetInCU: 0x26B06, offset: 0x26B06, size: 0x8, addend: 0x0, symName: __ZNSt8_Rb_treeINSt7__cxx1112basic_stringIcSt11char_traitsIcESaIcEEES5_St9_IdentityIS5_ESt4lessIS5_ESaIS5_EE17_M_construct_nodeIJRKPKcEEEvPSt13_Rb_tree_nodeIS5_EDpOT_, symObjAddr: 0x53B0, symBinAddr: 0x100006750, symSize: 0x134 }
  - { offsetInCU: 0x26B0E, offset: 0x26B0E, size: 0x8, addend: 0x0, symName: __ZN9__gnu_cxx16__aligned_membufINSt7__cxx1112basic_stringIcSt11char_traitsIcESaIcEEEE7_M_addrEv, symObjAddr: 0x54E4, symBinAddr: 0x100006884, symSize: 0x14 }
  - { offsetInCU: 0x26C8B, offset: 0x26C8B, size: 0x8, addend: 0x0, symName: __ZNSt8_Rb_treeINSt7__cxx1112basic_stringIcSt11char_traitsIcESaIcEEES5_St9_IdentityIS5_ESt4lessIS5_ESaIS5_EE11_M_get_nodeEv, symObjAddr: 0x5374, symBinAddr: 0x100006714, symSize: 0x3C }
  - { offsetInCU: 0x26C93, offset: 0x26C93, size: 0x8, addend: 0x0, symName: __ZNSt8_Rb_treeINSt7__cxx1112basic_stringIcSt11char_traitsIcESaIcEEES5_St9_IdentityIS5_ESt4lessIS5_ESaIS5_EE17_M_construct_nodeIJRKPKcEEEvPSt13_Rb_tree_nodeIS5_EDpOT_, symObjAddr: 0x53B0, symBinAddr: 0x100006750, symSize: 0x134 }
  - { offsetInCU: 0x26CEF, offset: 0x26CEF, size: 0x8, addend: 0x0, symName: __ZNSt8_Rb_treeINSt7__cxx1112basic_stringIcSt11char_traitsIcESaIcEEES5_St9_IdentityIS5_ESt4lessIS5_ESaIS5_EE14_M_create_nodeIJRKS5_EEEPSt13_Rb_tree_nodeIS5_EDpOT_, symObjAddr: 0x5334, symBinAddr: 0x1000066D4, symSize: 0x40 }
  - { offsetInCU: 0x26CF7, offset: 0x26CF7, size: 0x8, addend: 0x0, symName: __ZNSt8_Rb_treeINSt7__cxx1112basic_stringIcSt11char_traitsIcESaIcEEES5_St9_IdentityIS5_ESt4lessIS5_ESaIS5_EE11_M_get_nodeEv, symObjAddr: 0x5374, symBinAddr: 0x100006714, symSize: 0x3C }
  - { offsetInCU: 0x26D56, offset: 0x26D56, size: 0x8, addend: 0x0, symName: __ZNSt8_Rb_treeINSt7__cxx1112basic_stringIcSt11char_traitsIcESaIcEEES5_St9_IdentityIS5_ESt4lessIS5_ESaIS5_EE17_M_construct_nodeIJRKS5_EEEvPSt13_Rb_tree_nodeIS5_EDpOT_, symObjAddr: 0x5230, symBinAddr: 0x1000065D0, symSize: 0x104 }
  - { offsetInCU: 0x26D5E, offset: 0x26D5E, size: 0x8, addend: 0x0, symName: __ZNSt8_Rb_treeINSt7__cxx1112basic_stringIcSt11char_traitsIcESaIcEEES5_St9_IdentityIS5_ESt4lessIS5_ESaIS5_EE14_M_create_nodeIJRKS5_EEEPSt13_Rb_tree_nodeIS5_EDpOT_, symObjAddr: 0x5334, symBinAddr: 0x1000066D4, symSize: 0x40 }
  - { offsetInCU: 0x26E42, offset: 0x26E42, size: 0x8, addend: 0x0, symName: __ZNSt8_Rb_treeINSt7__cxx1112basic_stringIcSt11char_traitsIcESaIcEEES5_St9_IdentityIS5_ESt4lessIS5_ESaIS5_EE20_Reuse_or_alloc_node10_M_extractEv, symObjAddr: 0x5114, symBinAddr: 0x1000064B4, symSize: 0x11C }
  - { offsetInCU: 0x26E4A, offset: 0x26E4A, size: 0x8, addend: 0x0, symName: __ZNSt8_Rb_treeINSt7__cxx1112basic_stringIcSt11char_traitsIcESaIcEEES5_St9_IdentityIS5_ESt4lessIS5_ESaIS5_EE17_M_construct_nodeIJRKS5_EEEvPSt13_Rb_tree_nodeIS5_EDpOT_, symObjAddr: 0x5230, symBinAddr: 0x1000065D0, symSize: 0x104 }
  - { offsetInCU: 0x26E86, offset: 0x26E86, size: 0x8, addend: 0x0, symName: __ZNSt8_Rb_treeINSt7__cxx1112basic_stringIcSt11char_traitsIcESaIcEEES5_St9_IdentityIS5_ESt4lessIS5_ESaIS5_EE14_M_create_nodeIJS5_EEEPSt13_Rb_tree_nodeIS5_EDpOT_, symObjAddr: 0x50D4, symBinAddr: 0x100006474, symSize: 0x40 }
  - { offsetInCU: 0x26E8E, offset: 0x26E8E, size: 0x8, addend: 0x0, symName: __ZNSt8_Rb_treeINSt7__cxx1112basic_stringIcSt11char_traitsIcESaIcEEES5_St9_IdentityIS5_ESt4lessIS5_ESaIS5_EE20_Reuse_or_alloc_node10_M_extractEv, symObjAddr: 0x5114, symBinAddr: 0x1000064B4, symSize: 0x11C }
  - { offsetInCU: 0x26F5F, offset: 0x26F5F, size: 0x8, addend: 0x0, symName: __ZSt7forwardIRPSt18_Rb_tree_node_baseEOT_RNSt16remove_referenceIS3_E4typeE, symObjAddr: 0x50C0, symBinAddr: 0x100006460, symSize: 0x14 }
  - { offsetInCU: 0x26F67, offset: 0x26F67, size: 0x8, addend: 0x0, symName: __ZNSt8_Rb_treeINSt7__cxx1112basic_stringIcSt11char_traitsIcESaIcEEES5_St9_IdentityIS5_ESt4lessIS5_ESaIS5_EE14_M_create_nodeIJS5_EEEPSt13_Rb_tree_nodeIS5_EDpOT_, symObjAddr: 0x50D4, symBinAddr: 0x100006474, symSize: 0x40 }
  - { offsetInCU: 0x27003, offset: 0x27003, size: 0x8, addend: 0x0, symName: __ZSt7forwardIRPSt13_Rb_tree_nodeINSt7__cxx1112basic_stringIcSt11char_traitsIcESaIcEEEEEOT_RNSt16remove_referenceISA_E4typeE, symObjAddr: 0x50AC, symBinAddr: 0x10000644C, symSize: 0x14 }
  - { offsetInCU: 0x2700B, offset: 0x2700B, size: 0x8, addend: 0x0, symName: __ZSt7forwardIRPSt18_Rb_tree_node_baseEOT_RNSt16remove_referenceIS3_E4typeE, symObjAddr: 0x50C0, symBinAddr: 0x100006460, symSize: 0x14 }
  - { offsetInCU: 0x27032, offset: 0x27032, size: 0x8, addend: 0x0, symName: __ZStltIcSt11char_traitsIcESaIcEEbRKNSt7__cxx1112basic_stringIT_T0_T1_EESA_, symObjAddr: 0x5080, symBinAddr: 0x100006420, symSize: 0x2C }
  - { offsetInCU: 0x2703A, offset: 0x2703A, size: 0x8, addend: 0x0, symName: __ZSt7forwardIRPSt13_Rb_tree_nodeINSt7__cxx1112basic_stringIcSt11char_traitsIcESaIcEEEEEOT_RNSt16remove_referenceISA_E4typeE, symObjAddr: 0x50AC, symBinAddr: 0x10000644C, symSize: 0x14 }
  - { offsetInCU: 0x2701E, offset: 0x2701E, size: 0x8, addend: 0x0, symName: __ZNKSt9_IdentityINSt7__cxx1112basic_stringIcSt11char_traitsIcESaIcEEEEclERKS5_, symObjAddr: 0x5068, symBinAddr: 0x100006408, symSize: 0x18 }
  - { offsetInCU: 0x27026, offset: 0x27026, size: 0x8, addend: 0x0, symName: __ZStltIcSt11char_traitsIcESaIcEEbRKNSt7__cxx1112basic_stringIT_T0_T1_EESA_, symObjAddr: 0x5080, symBinAddr: 0x100006420, symSize: 0x2C }
  - { offsetInCU: 0x27062, offset: 0x27062, size: 0x8, addend: 0x0, symName: __ZNSt15__new_allocatorISt13_Rb_tree_nodeINSt7__cxx1112basic_stringIcSt11char_traitsIcESaIcEEEEE10deallocateEPS7_m, symObjAddr: 0x5038, symBinAddr: 0x1000063D8, symSize: 0x30 }
  - { offsetInCU: 0x2706A, offset: 0x2706A, size: 0x8, addend: 0x0, symName: __ZNKSt9_IdentityINSt7__cxx1112basic_stringIcSt11char_traitsIcESaIcEEEEclERKS5_, symObjAddr: 0x5068, symBinAddr: 0x100006408, symSize: 0x18 }
  - { offsetInCU: 0x270ED, offset: 0x270ED, size: 0x8, addend: 0x0, symName: __ZN9__gnu_cxx16__aligned_membufINSt7__cxx1112basic_stringIcSt11char_traitsIcESaIcEEEE6_M_ptrEv, symObjAddr: 0x501C, symBinAddr: 0x1000063BC, symSize: 0x1C }
  - { offsetInCU: 0x270F5, offset: 0x270F5, size: 0x8, addend: 0x0, symName: __ZNSt15__new_allocatorISt13_Rb_tree_nodeINSt7__cxx1112basic_stringIcSt11char_traitsIcESaIcEEEEE10deallocateEPS7_m, symObjAddr: 0x5038, symBinAddr: 0x1000063D8, symSize: 0x30 }
  - { offsetInCU: 0x2711C, offset: 0x2711C, size: 0x8, addend: 0x0, symName: __ZNSt8_Rb_treeINSt7__cxx1112basic_stringIcSt11char_traitsIcESaIcEEES5_St9_IdentityIS5_ESt4lessIS5_ESaIS5_EE14_M_insert_nodeEPSt18_Rb_tree_node_baseSD_PSt13_Rb_tree_nodeIS5_E, symObjAddr: 0x4F48, symBinAddr: 0x1000062E8, symSize: 0xD4 }
  - { offsetInCU: 0x27124, offset: 0x27124, size: 0x8, addend: 0x0, symName: __ZN9__gnu_cxx16__aligned_membufINSt7__cxx1112basic_stringIcSt11char_traitsIcESaIcEEEE6_M_ptrEv, symObjAddr: 0x501C, symBinAddr: 0x1000063BC, symSize: 0x1C }
  - { offsetInCU: 0x2719F, offset: 0x2719F, size: 0x8, addend: 0x0, symName: __ZNSt8_Rb_treeINSt7__cxx1112basic_stringIcSt11char_traitsIcESaIcEEES5_St9_IdentityIS5_ESt4lessIS5_ESaIS5_EE14_M_create_nodeIJRKPKcEEEPSt13_Rb_tree_nodeIS5_EDpOT_, symObjAddr: 0x4F08, symBinAddr: 0x1000062A8, symSize: 0x40 }
  - { offsetInCU: 0x271A7, offset: 0x271A7, size: 0x8, addend: 0x0, symName: __ZNSt8_Rb_treeINSt7__cxx1112basic_stringIcSt11char_traitsIcESaIcEEES5_St9_IdentityIS5_ESt4lessIS5_ESaIS5_EE14_M_insert_nodeEPSt18_Rb_tree_node_baseSD_PSt13_Rb_tree_nodeIS5_E, symObjAddr: 0x4F48, symBinAddr: 0x1000062E8, symSize: 0xD4 }
  - { offsetInCU: 0x27279, offset: 0x27279, size: 0x8, addend: 0x0, symName: __ZN11__gnu_debug17__valid_range_auxIPKPKcEEbT_S5_St18input_iterator_tag, symObjAddr: 0x4E90, symBinAddr: 0x100006230, symSize: 0x78 }
  - { offsetInCU: 0x27281, offset: 0x27281, size: 0x8, addend: 0x0, symName: __ZNSt8_Rb_treeINSt7__cxx1112basic_stringIcSt11char_traitsIcESaIcEEES5_St9_IdentityIS5_ESt4lessIS5_ESaIS5_EE14_M_create_nodeIJRKPKcEEEPSt13_Rb_tree_nodeIS5_EDpOT_, symObjAddr: 0x4F08, symBinAddr: 0x1000062A8, symSize: 0x40 }
  - { offsetInCU: 0x272EB, offset: 0x272EB, size: 0x8, addend: 0x0, symName: __ZN11__gnu_debug16__check_singularIKPKcEEbRKPT_, symObjAddr: 0x4E6C, symBinAddr: 0x10000620C, symSize: 0x24 }
  - { offsetInCU: 0x272F3, offset: 0x272F3, size: 0x8, addend: 0x0, symName: __ZN11__gnu_debug17__valid_range_auxIPKPKcEEbT_S5_St18input_iterator_tag, symObjAddr: 0x4E90, symBinAddr: 0x100006230, symSize: 0x78 }
  - { offsetInCU: 0x2733A, offset: 0x2733A, size: 0x8, addend: 0x0, symName: __ZSt11__addressofIKcEPT_RS1_, symObjAddr: 0x4E58, symBinAddr: 0x1000061F8, symSize: 0x14 }
  - { offsetInCU: 0x27342, offset: 0x27342, size: 0x8, addend: 0x0, symName: __ZN11__gnu_debug16__check_singularIKPKcEEbRKPT_, symObjAddr: 0x4E6C, symBinAddr: 0x10000620C, symSize: 0x24 }
  - { offsetInCU: 0x27365, offset: 0x27365, size: 0x8, addend: 0x0, symName: __ZNSt8_Rb_treeINSt7__cxx1112basic_stringIcSt11char_traitsIcESaIcEEES5_St9_IdentityIS5_ESt4lessIS5_ESaIS5_EE20_Reuse_or_alloc_nodeclIRKS5_EEPSt13_Rb_tree_nodeIS5_EOT_, symObjAddr: 0x4DC8, symBinAddr: 0x100006168, symSize: 0x90 }
  - { offsetInCU: 0x2736D, offset: 0x2736D, size: 0x8, addend: 0x0, symName: __ZSt11__addressofIKcEPT_RS1_, symObjAddr: 0x4E58, symBinAddr: 0x1000061F8, symSize: 0x14 }
  - { offsetInCU: 0x27469, offset: 0x27469, size: 0x8, addend: 0x0, symName: __ZSt7forwardIRKNSt7__cxx1112basic_stringIcSt11char_traitsIcESaIcEEEEOT_RNSt16remove_referenceIS8_E4typeE, symObjAddr: 0x4DB4, symBinAddr: 0x100006154, symSize: 0x14 }
  - { offsetInCU: 0x27471, offset: 0x27471, size: 0x8, addend: 0x0, symName: __ZNSt8_Rb_treeINSt7__cxx1112basic_stringIcSt11char_traitsIcESaIcEEES5_St9_IdentityIS5_ESt4lessIS5_ESaIS5_EE20_Reuse_or_alloc_nodeclIRKS5_EEPSt13_Rb_tree_nodeIS5_EOT_, symObjAddr: 0x4DC8, symBinAddr: 0x100006168, symSize: 0x90 }
  - { offsetInCU: 0x27420, offset: 0x27420, size: 0x8, addend: 0x0, symName: __ZN11__gnu_debug14_Safe_iteratorISt23_Rb_tree_const_iteratorINSt7__cxx1112basic_stringIcSt11char_traitsIcESaIcEEEENSt7__debug3setIS7_St4lessIS7_ESaIS7_EEESt20forward_iterator_tagE9_M_attachEPNS_19_Safe_sequence_baseE, symObjAddr: 0x4D70, symBinAddr: 0x100006110, symSize: 0x44 }
  - { offsetInCU: 0x27428, offset: 0x27428, size: 0x8, addend: 0x0, symName: __ZSt7forwardIRKNSt7__cxx1112basic_stringIcSt11char_traitsIcESaIcEEEEOT_RNSt16remove_referenceIS8_E4typeE, symObjAddr: 0x4DB4, symBinAddr: 0x100006154, symSize: 0x14 }
  - { offsetInCU: 0x2752A, offset: 0x2752A, size: 0x8, addend: 0x0, symName: __ZSt7forwardISt17_Rb_tree_iteratorINSt7__cxx1112basic_stringIcSt11char_traitsIcESaIcEEEEEOT_RNSt16remove_referenceIS8_E4typeE, symObjAddr: 0x4D5C, symBinAddr: 0x1000060FC, symSize: 0x14 }
  - { offsetInCU: 0x27532, offset: 0x27532, size: 0x8, addend: 0x0, symName: __ZN11__gnu_debug14_Safe_iteratorISt23_Rb_tree_const_iteratorINSt7__cxx1112basic_stringIcSt11char_traitsIcESaIcEEEENSt7__debug3setIS7_St4lessIS7_ESaIS7_EEESt20forward_iterator_tagE9_M_attachEPNS_19_Safe_sequence_baseE, symObjAddr: 0x4D70, symBinAddr: 0x100006110, symSize: 0x44 }
  - { offsetInCU: 0x274CC, offset: 0x274CC, size: 0x8, addend: 0x0, symName: __ZNKSt8_Rb_treeINSt7__cxx1112basic_stringIcSt11char_traitsIcESaIcEEES5_St9_IdentityIS5_ESt4lessIS5_ESaIS5_EE11_Alloc_nodeclIS5_EEPSt13_Rb_tree_nodeIS5_EOT_, symObjAddr: 0x4D20, symBinAddr: 0x1000060C0, symSize: 0x3C }
  - { offsetInCU: 0x274D4, offset: 0x274D4, size: 0x8, addend: 0x0, symName: __ZSt7forwardISt17_Rb_tree_iteratorINSt7__cxx1112basic_stringIcSt11char_traitsIcESaIcEEEEEOT_RNSt16remove_referenceIS8_E4typeE, symObjAddr: 0x4D5C, symBinAddr: 0x1000060FC, symSize: 0x14 }
  - { offsetInCU: 0x275B4, offset: 0x275B4, size: 0x8, addend: 0x0, symName: __ZNSt4pairIPSt18_Rb_tree_node_baseS1_EC1IS1_S1_Lb1EEERKS1_S5_, symObjAddr: 0x4CE4, symBinAddr: 0x100006084, symSize: 0x3C }
  - { offsetInCU: 0x275BC, offset: 0x275BC, size: 0x8, addend: 0x0, symName: __ZNKSt8_Rb_treeINSt7__cxx1112basic_stringIcSt11char_traitsIcESaIcEEES5_St9_IdentityIS5_ESt4lessIS5_ESaIS5_EE11_Alloc_nodeclIS5_EEPSt13_Rb_tree_nodeIS5_EOT_, symObjAddr: 0x4D20, symBinAddr: 0x1000060C0, symSize: 0x3C }
  - { offsetInCU: 0x275DC, offset: 0x275DC, size: 0x8, addend: 0x0, symName: __ZNSt8_Rb_treeINSt7__cxx1112basic_stringIcSt11char_traitsIcESaIcEEES5_St9_IdentityIS5_ESt4lessIS5_ESaIS5_EE6_S_keyEPKSt18_Rb_tree_node_base, symObjAddr: 0x4CC8, symBinAddr: 0x100006068, symSize: 0x1C }
  - { offsetInCU: 0x275E4, offset: 0x275E4, size: 0x8, addend: 0x0, symName: __ZNSt4pairIPSt18_Rb_tree_node_baseS1_EC1IS1_S1_Lb1EEERKS1_S5_, symObjAddr: 0x4CE4, symBinAddr: 0x100006084, symSize: 0x3C }
  - { offsetInCU: 0x2760F, offset: 0x2760F, size: 0x8, addend: 0x0, symName: __ZNSt17_Rb_tree_iteratorINSt7__cxx1112basic_stringIcSt11char_traitsIcESaIcEEEEmmEv, symObjAddr: 0x4C98, symBinAddr: 0x100006038, symSize: 0x30 }
  - { offsetInCU: 0x27617, offset: 0x27617, size: 0x8, addend: 0x0, symName: __ZNSt8_Rb_treeINSt7__cxx1112basic_stringIcSt11char_traitsIcESaIcEEES5_St9_IdentityIS5_ESt4lessIS5_ESaIS5_EE6_S_keyEPKSt18_Rb_tree_node_base, symObjAddr: 0x4CC8, symBinAddr: 0x100006068, symSize: 0x1C }
  - { offsetInCU: 0x27719, offset: 0x27719, size: 0x8, addend: 0x0, symName: __ZNSt4pairIPSt18_Rb_tree_node_baseS1_EC1IRPSt13_Rb_tree_nodeINSt7__cxx1112basic_stringIcSt11char_traitsIcESaIcEEEERS1_Lb1EEEOT_OT0_, symObjAddr: 0x4C50, symBinAddr: 0x100005FF0, symSize: 0x48 }
  - { offsetInCU: 0x27721, offset: 0x27721, size: 0x8, addend: 0x0, symName: __ZNSt17_Rb_tree_iteratorINSt7__cxx1112basic_stringIcSt11char_traitsIcESaIcEEEEmmEv, symObjAddr: 0x4C98, symBinAddr: 0x100006038, symSize: 0x30 }
  - { offsetInCU: 0x2775A, offset: 0x2775A, size: 0x8, addend: 0x0, symName: __ZSteqRKSt17_Rb_tree_iteratorINSt7__cxx1112basic_stringIcSt11char_traitsIcESaIcEEEES8_, symObjAddr: 0x4C20, symBinAddr: 0x100005FC0, symSize: 0x30 }
  - { offsetInCU: 0x27762, offset: 0x27762, size: 0x8, addend: 0x0, symName: __ZNSt4pairIPSt18_Rb_tree_node_baseS1_EC1IRPSt13_Rb_tree_nodeINSt7__cxx1112basic_stringIcSt11char_traitsIcESaIcEEEERS1_Lb1EEEOT_OT0_, symObjAddr: 0x4C50, symBinAddr: 0x100005FF0, symSize: 0x48 }
  - { offsetInCU: 0x27759, offset: 0x27759, size: 0x8, addend: 0x0, symName: __ZNSt8_Rb_treeINSt7__cxx1112basic_stringIcSt11char_traitsIcESaIcEEES5_St9_IdentityIS5_ESt4lessIS5_ESaIS5_EE5beginEv, symObjAddr: 0x4BF8, symBinAddr: 0x100005F98, symSize: 0x28 }
  - { offsetInCU: 0x27761, offset: 0x27761, size: 0x8, addend: 0x0, symName: __ZSteqRKSt17_Rb_tree_iteratorINSt7__cxx1112basic_stringIcSt11char_traitsIcESaIcEEEES8_, symObjAddr: 0x4C20, symBinAddr: 0x100005FC0, symSize: 0x30 }
  - { offsetInCU: 0x27788, offset: 0x27788, size: 0x8, addend: 0x0, symName: __ZNKSt4lessINSt7__cxx1112basic_stringIcSt11char_traitsIcESaIcEEEEclERKS5_S8_, symObjAddr: 0x4BCC, symBinAddr: 0x100005F6C, symSize: 0x2C }
  - { offsetInCU: 0x27790, offset: 0x27790, size: 0x8, addend: 0x0, symName: __ZNSt8_Rb_treeINSt7__cxx1112basic_stringIcSt11char_traitsIcESaIcEEES5_St9_IdentityIS5_ESt4lessIS5_ESaIS5_EE5beginEv, symObjAddr: 0x4BF8, symBinAddr: 0x100005F98, symSize: 0x28 }
  - { offsetInCU: 0x277E1, offset: 0x277E1, size: 0x8, addend: 0x0, symName: __ZNSt8_Rb_treeINSt7__cxx1112basic_stringIcSt11char_traitsIcESaIcEEES5_St9_IdentityIS5_ESt4lessIS5_ESaIS5_EE6_S_keyEPKSt13_Rb_tree_nodeIS5_E, symObjAddr: 0x4BA4, symBinAddr: 0x100005F44, symSize: 0x28 }
  - { offsetInCU: 0x277E9, offset: 0x277E9, size: 0x8, addend: 0x0, symName: __ZNKSt4lessINSt7__cxx1112basic_stringIcSt11char_traitsIcESaIcEEEEclERKS5_S8_, symObjAddr: 0x4BCC, symBinAddr: 0x100005F6C, symSize: 0x2C }
  - { offsetInCU: 0x27819, offset: 0x27819, size: 0x8, addend: 0x0, symName: __ZNK9__gnu_cxx16__aligned_membufINSt7__cxx1112basic_stringIcSt11char_traitsIcESaIcEEEE7_M_addrEv, symObjAddr: 0x4B90, symBinAddr: 0x100005F30, symSize: 0x14 }
  - { offsetInCU: 0x27821, offset: 0x27821, size: 0x8, addend: 0x0, symName: __ZNSt8_Rb_treeINSt7__cxx1112basic_stringIcSt11char_traitsIcESaIcEEES5_St9_IdentityIS5_ESt4lessIS5_ESaIS5_EE6_S_keyEPKSt13_Rb_tree_nodeIS5_E, symObjAddr: 0x4BA4, symBinAddr: 0x100005F44, symSize: 0x28 }
  - { offsetInCU: 0x278C9, offset: 0x278C9, size: 0x8, addend: 0x0, symName: __ZNSt13_Rb_tree_nodeINSt7__cxx1112basic_stringIcSt11char_traitsIcESaIcEEEE9_M_valptrEv, symObjAddr: 0x4B70, symBinAddr: 0x100005F10, symSize: 0x20 }
  - { offsetInCU: 0x278D1, offset: 0x278D1, size: 0x8, addend: 0x0, symName: __ZNK9__gnu_cxx16__aligned_membufINSt7__cxx1112basic_stringIcSt11char_traitsIcESaIcEEEE7_M_addrEv, symObjAddr: 0x4B90, symBinAddr: 0x100005F30, symSize: 0x14 }
  - { offsetInCU: 0x278F8, offset: 0x278F8, size: 0x8, addend: 0x0, symName: __ZNSt8_Rb_treeINSt7__cxx1112basic_stringIcSt11char_traitsIcESaIcEEES5_St9_IdentityIS5_ESt4lessIS5_ESaIS5_EE10_Auto_node9_M_insertESt4pairIPSt18_Rb_tree_node_baseSF_E, symObjAddr: 0x4B24, symBinAddr: 0x100005EC4, symSize: 0x4C }
  - { offsetInCU: 0x27900, offset: 0x27900, size: 0x8, addend: 0x0, symName: __ZNSt13_Rb_tree_nodeINSt7__cxx1112basic_stringIcSt11char_traitsIcESaIcEEEE9_M_valptrEv, symObjAddr: 0x4B70, symBinAddr: 0x100005F10, symSize: 0x20 }
  - { offsetInCU: 0x27951, offset: 0x27951, size: 0x8, addend: 0x0, symName: __ZNKSt8_Rb_treeINSt7__cxx1112basic_stringIcSt11char_traitsIcESaIcEEES5_St9_IdentityIS5_ESt4lessIS5_ESaIS5_EE10_Auto_node6_M_keyEv, symObjAddr: 0x4B04, symBinAddr: 0x100005EA4, symSize: 0x20 }
  - { offsetInCU: 0x27959, offset: 0x27959, size: 0x8, addend: 0x0, symName: __ZNSt8_Rb_treeINSt7__cxx1112basic_stringIcSt11char_traitsIcESaIcEEES5_St9_IdentityIS5_ESt4lessIS5_ESaIS5_EE10_Auto_node9_M_insertESt4pairIPSt18_Rb_tree_node_baseSF_E, symObjAddr: 0x4B24, symBinAddr: 0x100005EC4, symSize: 0x4C }
  - { offsetInCU: 0x27A23, offset: 0x27A23, size: 0x8, addend: 0x0, symName: __ZNSt8_Rb_treeINSt7__cxx1112basic_stringIcSt11char_traitsIcESaIcEEES5_St9_IdentityIS5_ESt4lessIS5_ESaIS5_EE10_Auto_nodeD1Ev, symObjAddr: 0x4AC0, symBinAddr: 0x100005E60, symSize: 0x44 }
  - { offsetInCU: 0x27A2B, offset: 0x27A2B, size: 0x8, addend: 0x0, symName: __ZNKSt8_Rb_treeINSt7__cxx1112basic_stringIcSt11char_traitsIcESaIcEEES5_St9_IdentityIS5_ESt4lessIS5_ESaIS5_EE10_Auto_node6_M_keyEv, symObjAddr: 0x4B04, symBinAddr: 0x100005EA4, symSize: 0x20 }
  - { offsetInCU: 0x27AAE, offset: 0x27AAE, size: 0x8, addend: 0x0, symName: __ZNSt8_Rb_treeINSt7__cxx1112basic_stringIcSt11char_traitsIcESaIcEEES5_St9_IdentityIS5_ESt4lessIS5_ESaIS5_EE10_Auto_nodeC1IJRKPKcEEERSB_DpOT_, symObjAddr: 0x4A74, symBinAddr: 0x100005E14, symSize: 0x4C }
  - { offsetInCU: 0x27AB6, offset: 0x27AB6, size: 0x8, addend: 0x0, symName: __ZNSt8_Rb_treeINSt7__cxx1112basic_stringIcSt11char_traitsIcESaIcEEES5_St9_IdentityIS5_ESt4lessIS5_ESaIS5_EE10_Auto_nodeD1Ev, symObjAddr: 0x4AC0, symBinAddr: 0x100005E60, symSize: 0x44 }
  - { offsetInCU: 0x27AD9, offset: 0x27AD9, size: 0x8, addend: 0x0, symName: __ZSt7forwardIRKPKcEOT_RNSt16remove_referenceIS4_E4typeE, symObjAddr: 0x4A60, symBinAddr: 0x100005E00, symSize: 0x14 }
  - { offsetInCU: 0x27AE1, offset: 0x27AE1, size: 0x8, addend: 0x0, symName: __ZNSt8_Rb_treeINSt7__cxx1112basic_stringIcSt11char_traitsIcESaIcEEES5_St9_IdentityIS5_ESt4lessIS5_ESaIS5_EE10_Auto_nodeC1IJRKPKcEEERSB_DpOT_, symObjAddr: 0x4A74, symBinAddr: 0x100005E14, symSize: 0x4C }
  - { offsetInCU: 0x27B62, offset: 0x27B62, size: 0x8, addend: 0x0, symName: __ZNSt20_Rb_tree_key_compareISt4lessINSt7__cxx1112basic_stringIcSt11char_traitsIcESaIcEEEEEC2ERKS7_, symObjAddr: 0x4A48, symBinAddr: 0x100005DE8, symSize: 0x18 }
  - { offsetInCU: 0x27B6A, offset: 0x27B6A, size: 0x8, addend: 0x0, symName: __ZSt7forwardIRKPKcEOT_RNSt16remove_referenceIS4_E4typeE, symObjAddr: 0x4A60, symBinAddr: 0x100005E00, symSize: 0x14 }
  - { offsetInCU: 0x27C33, offset: 0x27C33, size: 0x8, addend: 0x0, symName: __ZSt4moveIRSaISt13_Rb_tree_nodeINSt7__cxx1112basic_stringIcSt11char_traitsIcESaIcEEEEEEONSt16remove_referenceIT_E4typeEOSB_, symObjAddr: 0x4A34, symBinAddr: 0x100005DD4, symSize: 0x14 }
  - { offsetInCU: 0x27C3B, offset: 0x27C3B, size: 0x8, addend: 0x0, symName: __ZNSt20_Rb_tree_key_compareISt4lessINSt7__cxx1112basic_stringIcSt11char_traitsIcESaIcEEEEEC2ERKS7_, symObjAddr: 0x4A48, symBinAddr: 0x100005DE8, symSize: 0x18 }
  - { offsetInCU: 0x27C05, offset: 0x27C05, size: 0x8, addend: 0x0, symName: __ZSt11__addressofIKPKPKcEPT_RS5_, symObjAddr: 0x4A20, symBinAddr: 0x100005DC0, symSize: 0x14 }
  - { offsetInCU: 0x27C0D, offset: 0x27C0D, size: 0x8, addend: 0x0, symName: __ZSt4moveIRSaISt13_Rb_tree_nodeINSt7__cxx1112basic_stringIcSt11char_traitsIcESaIcEEEEEEONSt16remove_referenceIT_E4typeEOSB_, symObjAddr: 0x4A34, symBinAddr: 0x100005DD4, symSize: 0x14 }
  - { offsetInCU: 0x27C68, offset: 0x27C68, size: 0x8, addend: 0x0, symName: __ZN11__gnu_debug17__valid_range_auxIPKPKcEEbT_S5_St26random_access_iterator_tag, symObjAddr: 0x49C8, symBinAddr: 0x100005D68, symSize: 0x58 }
  - { offsetInCU: 0x27C70, offset: 0x27C70, size: 0x8, addend: 0x0, symName: __ZSt11__addressofIKPKPKcEPT_RS5_, symObjAddr: 0x4A20, symBinAddr: 0x100005DC0, symSize: 0x14 }
  - { offsetInCU: 0x27CA8, offset: 0x27CA8, size: 0x8, addend: 0x0, symName: __ZNSt15__new_allocatorIcE8allocateEmPKv, symObjAddr: 0x4964, symBinAddr: 0x100005D04, symSize: 0x64 }
  - { offsetInCU: 0x27CB0, offset: 0x27CB0, size: 0x8, addend: 0x0, symName: __ZN11__gnu_debug17__valid_range_auxIPKPKcEEbT_S5_St26random_access_iterator_tag, symObjAddr: 0x49C8, symBinAddr: 0x100005D68, symSize: 0x58 }
  - { offsetInCU: 0x27D67, offset: 0x27D67, size: 0x8, addend: 0x0, symName: __ZSt9addressofIKcEPT_RS1_, symObjAddr: 0x4948, symBinAddr: 0x100005CE8, symSize: 0x1C }
  - { offsetInCU: 0x27D6F, offset: 0x27D6F, size: 0x8, addend: 0x0, symName: __ZNSt15__new_allocatorIcE8allocateEmPKv, symObjAddr: 0x4964, symBinAddr: 0x100005D04, symSize: 0x64 }
  - { offsetInCU: 0x27DCD, offset: 0x27DCD, size: 0x8, addend: 0x0, symName: __ZSt11__addressofIcEPT_RS0_, symObjAddr: 0x4934, symBinAddr: 0x100005CD4, symSize: 0x14 }
  - { offsetInCU: 0x27DD5, offset: 0x27DD5, size: 0x8, addend: 0x0, symName: __ZSt9addressofIKcEPT_RS1_, symObjAddr: 0x4948, symBinAddr: 0x100005CE8, symSize: 0x1C }
  - { offsetInCU: 0x27DF0, offset: 0x27DF0, size: 0x8, addend: 0x0, symName: __ZNSt8_Rb_treeINSt7__cxx1112basic_stringIcSt11char_traitsIcESaIcEEES5_St9_IdentityIS5_ESt4lessIS5_ESaIS5_EE13_M_clone_nodeILb0ENSB_20_Reuse_or_alloc_nodeEEEPSt13_Rb_tree_nodeIS5_ESG_RT0_, symObjAddr: 0x48D8, symBinAddr: 0x100005C78, symSize: 0x5C }
  - { offsetInCU: 0x27DF8, offset: 0x27DF8, size: 0x8, addend: 0x0, symName: __ZSt11__addressofIcEPT_RS0_, symObjAddr: 0x4934, symBinAddr: 0x100005CD4, symSize: 0x14 }
  - { offsetInCU: 0x27E79, offset: 0x27E79, size: 0x8, addend: 0x0, symName: __ZNK11__gnu_debug13_Not_equal_toISt23_Rb_tree_const_iteratorINSt7__cxx1112basic_stringIcSt11char_traitsIcESaIcEEEEEclERKS8_, symObjAddr: 0x48B0, symBinAddr: 0x100005C50, symSize: 0x28 }
  - { offsetInCU: 0x27E81, offset: 0x27E81, size: 0x8, addend: 0x0, symName: __ZNSt8_Rb_treeINSt7__cxx1112basic_stringIcSt11char_traitsIcESaIcEEES5_St9_IdentityIS5_ESt4lessIS5_ESaIS5_EE13_M_clone_nodeILb0ENSB_20_Reuse_or_alloc_nodeEEEPSt13_Rb_tree_nodeIS5_ESG_RT0_, symObjAddr: 0x48D8, symBinAddr: 0x100005C78, symSize: 0x5C }
  - { offsetInCU: 0x27FCE, offset: 0x27FCE, size: 0x8, addend: 0x0, symName: __ZN11__gnu_debug14_Safe_iteratorISt23_Rb_tree_const_iteratorINSt7__cxx1112basic_stringIcSt11char_traitsIcESaIcEEEENSt7__debug3setIS7_St4lessIS7_ESaIS7_EEESt20forward_iterator_tagEC2ERKSG_, symObjAddr: 0x4740, symBinAddr: 0x100005AE0, symSize: 0x170 }
  - { offsetInCU: 0x27FD6, offset: 0x27FD6, size: 0x8, addend: 0x0, symName: __ZNK11__gnu_debug13_Not_equal_toISt23_Rb_tree_const_iteratorINSt7__cxx1112basic_stringIcSt11char_traitsIcESaIcEEEEEclERKS8_, symObjAddr: 0x48B0, symBinAddr: 0x100005C50, symSize: 0x28 }
  - { offsetInCU: 0x28002, offset: 0x28002, size: 0x8, addend: 0x0, symName: __ZNSt23_Rb_tree_const_iteratorINSt7__cxx1112basic_stringIcSt11char_traitsIcESaIcEEEEC1ERKSt17_Rb_tree_iteratorIS5_E, symObjAddr: 0x4718, symBinAddr: 0x100005AB8, symSize: 0x28 }
  - { offsetInCU: 0x2800A, offset: 0x2800A, size: 0x8, addend: 0x0, symName: __ZN11__gnu_debug14_Safe_iteratorISt23_Rb_tree_const_iteratorINSt7__cxx1112basic_stringIcSt11char_traitsIcESaIcEEEENSt7__debug3setIS7_St4lessIS7_ESaIS7_EEESt20forward_iterator_tagEC2ERKSG_, symObjAddr: 0x4740, symBinAddr: 0x100005AE0, symSize: 0x170 }
  - { offsetInCU: 0x28013, offset: 0x28013, size: 0x8, addend: 0x0, symName: __ZSt7forwardIRbEOT_RNSt16remove_referenceIS1_E4typeE, symObjAddr: 0x4704, symBinAddr: 0x100005AA4, symSize: 0x14 }
  - { offsetInCU: 0x2801B, offset: 0x2801B, size: 0x8, addend: 0x0, symName: __ZNSt23_Rb_tree_const_iteratorINSt7__cxx1112basic_stringIcSt11char_traitsIcESaIcEEEEC1ERKSt17_Rb_tree_iteratorIS5_E, symObjAddr: 0x4718, symBinAddr: 0x100005AB8, symSize: 0x28 }
  - { offsetInCU: 0x280E7, offset: 0x280E7, size: 0x8, addend: 0x0, symName: __ZSt7forwardIRSt17_Rb_tree_iteratorINSt7__cxx1112basic_stringIcSt11char_traitsIcESaIcEEEEEOT_RNSt16remove_referenceIS9_E4typeE, symObjAddr: 0x46F0, symBinAddr: 0x100005A90, symSize: 0x14 }
  - { offsetInCU: 0x280EF, offset: 0x280EF, size: 0x8, addend: 0x0, symName: __ZSt7forwardIRbEOT_RNSt16remove_referenceIS1_E4typeE, symObjAddr: 0x4704, symBinAddr: 0x100005AA4, symSize: 0x14 }
  - { offsetInCU: 0x28109, offset: 0x28109, size: 0x8, addend: 0x0, symName: __ZNSt17_Rb_tree_iteratorINSt7__cxx1112basic_stringIcSt11char_traitsIcESaIcEEEEC1EPSt18_Rb_tree_node_base, symObjAddr: 0x46CC, symBinAddr: 0x100005A6C, symSize: 0x24 }
  - { offsetInCU: 0x28111, offset: 0x28111, size: 0x8, addend: 0x0, symName: __ZSt7forwardIRSt17_Rb_tree_iteratorINSt7__cxx1112basic_stringIcSt11char_traitsIcESaIcEEEEEOT_RNSt16remove_referenceIS9_E4typeE, symObjAddr: 0x46F0, symBinAddr: 0x100005A90, symSize: 0x14 }
  - { offsetInCU: 0x281A1, offset: 0x281A1, size: 0x8, addend: 0x0, symName: __ZNSt4pairISt17_Rb_tree_iteratorINSt7__cxx1112basic_stringIcSt11char_traitsIcESaIcEEEEbEC1IS7_bLb1EEEOT_OT0_, symObjAddr: 0x4680, symBinAddr: 0x100005A20, symSize: 0x4C }
  - { offsetInCU: 0x281A9, offset: 0x281A9, size: 0x8, addend: 0x0, symName: __ZNSt17_Rb_tree_iteratorINSt7__cxx1112basic_stringIcSt11char_traitsIcESaIcEEEEC1EPSt18_Rb_tree_node_base, symObjAddr: 0x46CC, symBinAddr: 0x100005A6C, symSize: 0x24 }
  - { offsetInCU: 0x281A2, offset: 0x281A2, size: 0x8, addend: 0x0, symName: __ZNSt8_Rb_treeINSt7__cxx1112basic_stringIcSt11char_traitsIcESaIcEEES5_St9_IdentityIS5_ESt4lessIS5_ESaIS5_EE10_M_insert_IS5_NSB_11_Alloc_nodeEEESt17_Rb_tree_iteratorIS5_EPSt18_Rb_tree_node_baseSH_OT_RT0_, symObjAddr: 0x458C, symBinAddr: 0x10000592C, symSize: 0xF4 }
  - { offsetInCU: 0x281AA, offset: 0x281AA, size: 0x8, addend: 0x0, symName: __ZNSt4pairISt17_Rb_tree_iteratorINSt7__cxx1112basic_stringIcSt11char_traitsIcESaIcEEEEbEC1IS7_bLb1EEEOT_OT0_, symObjAddr: 0x4680, symBinAddr: 0x100005A20, symSize: 0x4C }
  - { offsetInCU: 0x28300, offset: 0x28300, size: 0x8, addend: 0x0, symName: __ZSt7forwardINSt7__cxx1112basic_stringIcSt11char_traitsIcESaIcEEEEOT_RNSt16remove_referenceIS6_E4typeE, symObjAddr: 0x4578, symBinAddr: 0x100005918, symSize: 0x14 }
  - { offsetInCU: 0x28308, offset: 0x28308, size: 0x8, addend: 0x0, symName: __ZNSt8_Rb_treeINSt7__cxx1112basic_stringIcSt11char_traitsIcESaIcEEES5_St9_IdentityIS5_ESt4lessIS5_ESaIS5_EE10_M_insert_IS5_NSB_11_Alloc_nodeEEESt17_Rb_tree_iteratorIS5_EPSt18_Rb_tree_node_baseSH_OT_RT0_, symObjAddr: 0x458C, symBinAddr: 0x10000592C, symSize: 0xF4 }
  - { offsetInCU: 0x2836A, offset: 0x2836A, size: 0x8, addend: 0x0, symName: __ZNSt8_Rb_treeINSt7__cxx1112basic_stringIcSt11char_traitsIcESaIcEEES5_St9_IdentityIS5_ESt4lessIS5_ESaIS5_EE11_Alloc_nodeC1ERSB_, symObjAddr: 0x4554, symBinAddr: 0x1000058F4, symSize: 0x24 }
  - { offsetInCU: 0x28372, offset: 0x28372, size: 0x8, addend: 0x0, symName: __ZSt7forwardINSt7__cxx1112basic_stringIcSt11char_traitsIcESaIcEEEEOT_RNSt16remove_referenceIS6_E4typeE, symObjAddr: 0x4578, symBinAddr: 0x100005918, symSize: 0x14 }
  - { offsetInCU: 0x28327, offset: 0x28327, size: 0x8, addend: 0x0, symName: __ZNKSt9_IdentityINSt7__cxx1112basic_stringIcSt11char_traitsIcESaIcEEEEclERS5_, symObjAddr: 0x453C, symBinAddr: 0x1000058DC, symSize: 0x18 }
  - { offsetInCU: 0x2832F, offset: 0x2832F, size: 0x8, addend: 0x0, symName: __ZNSt8_Rb_treeINSt7__cxx1112basic_stringIcSt11char_traitsIcESaIcEEES5_St9_IdentityIS5_ESt4lessIS5_ESaIS5_EE11_Alloc_nodeC1ERSB_, symObjAddr: 0x4554, symBinAddr: 0x1000058F4, symSize: 0x24 }
  - { offsetInCU: 0x2836B, offset: 0x2836B, size: 0x8, addend: 0x0, symName: __ZNSt8_Rb_treeINSt7__cxx1112basic_stringIcSt11char_traitsIcESaIcEEES5_St9_IdentityIS5_ESt4lessIS5_ESaIS5_EE24_M_get_insert_unique_posERKS5_, symObjAddr: 0x43DC, symBinAddr: 0x10000577C, symSize: 0x160 }
  - { offsetInCU: 0x28373, offset: 0x28373, size: 0x8, addend: 0x0, symName: __ZNKSt9_IdentityINSt7__cxx1112basic_stringIcSt11char_traitsIcESaIcEEEEclERS5_, symObjAddr: 0x453C, symBinAddr: 0x1000058DC, symSize: 0x18 }
  - { offsetInCU: 0x28408, offset: 0x28408, size: 0x8, addend: 0x0, symName: __ZNK9__gnu_cxx16__aligned_membufINSt7__cxx1112basic_stringIcSt11char_traitsIcESaIcEEEE6_M_ptrEv, symObjAddr: 0x43C0, symBinAddr: 0x100005760, symSize: 0x1C }
  - { offsetInCU: 0x28410, offset: 0x28410, size: 0x8, addend: 0x0, symName: __ZNSt8_Rb_treeINSt7__cxx1112basic_stringIcSt11char_traitsIcESaIcEEES5_St9_IdentityIS5_ESt4lessIS5_ESaIS5_EE24_M_get_insert_unique_posERKS5_, symObjAddr: 0x43DC, symBinAddr: 0x10000577C, symSize: 0x160 }
  - { offsetInCU: 0x285CB, offset: 0x285CB, size: 0x8, addend: 0x0, symName: __ZSt11__addressofIKN11__gnu_debug14_Safe_iteratorISt23_Rb_tree_const_iteratorINSt7__cxx1112basic_stringIcSt11char_traitsIcESaIcEEEENSt7__debug3setIS8_St4lessIS8_ESaIS8_EEESt20forward_iterator_tagEEEPT_RSJ_, symObjAddr: 0x43AC, symBinAddr: 0x10000574C, symSize: 0x14 }
  - { offsetInCU: 0x285D3, offset: 0x285D3, size: 0x8, addend: 0x0, symName: __ZNK9__gnu_cxx16__aligned_membufINSt7__cxx1112basic_stringIcSt11char_traitsIcESaIcEEEE6_M_ptrEv, symObjAddr: 0x43C0, symBinAddr: 0x100005760, symSize: 0x1C }
  - { offsetInCU: 0x28482, offset: 0x28482, size: 0x8, addend: 0x0, symName: __ZN11__gnu_debug18_BeforeBeginHelperINSt7__debug3setINSt7__cxx1112basic_stringIcSt11char_traitsIcESaIcEEESt4lessIS8_ESaIS8_EEEE5_S_IsISt23_Rb_tree_const_iteratorIS8_ESt20forward_iterator_tagEEbRKNS_14_Safe_iteratorIT_SC_T0_EE, symObjAddr: 0x4398, symBinAddr: 0x100005738, symSize: 0x14 }
  - { offsetInCU: 0x2848A, offset: 0x2848A, size: 0x8, addend: 0x0, symName: __ZSt11__addressofIKN11__gnu_debug14_Safe_iteratorISt23_Rb_tree_const_iteratorINSt7__cxx1112basic_stringIcSt11char_traitsIcESaIcEEEENSt7__debug3setIS8_St4lessIS8_ESaIS8_EEESt20forward_iterator_tagEEEPT_RSJ_, symObjAddr: 0x43AC, symBinAddr: 0x10000574C, symSize: 0x14 }
  - { offsetInCU: 0x284C7, offset: 0x284C7, size: 0x8, addend: 0x0, symName: __ZNK11__gnu_debug14_Safe_iteratorISt23_Rb_tree_const_iteratorINSt7__cxx1112basic_stringIcSt11char_traitsIcESaIcEEEENSt7__debug3setIS7_St4lessIS7_ESaIS7_EEESt20forward_iterator_tagE11_M_is_beginEv, symObjAddr: 0x4348, symBinAddr: 0x1000056E8, symSize: 0x50 }
  - { offsetInCU: 0x284CF, offset: 0x284CF, size: 0x8, addend: 0x0, symName: __ZN11__gnu_debug18_BeforeBeginHelperINSt7__debug3setINSt7__cxx1112basic_stringIcSt11char_traitsIcESaIcEEESt4lessIS8_ESaIS8_EEEE5_S_IsISt23_Rb_tree_const_iteratorIS8_ESt20forward_iterator_tagEEbRKNS_14_Safe_iteratorIT_SC_T0_EE, symObjAddr: 0x4398, symBinAddr: 0x100005738, symSize: 0x14 }
  - { offsetInCU: 0x284F6, offset: 0x284F6, size: 0x8, addend: 0x0, symName: __ZNK11__gnu_debug14_Safe_iteratorISt23_Rb_tree_const_iteratorINSt7__cxx1112basic_stringIcSt11char_traitsIcESaIcEEEENSt7__debug3setIS7_St4lessIS7_ESaIS7_EEESt20forward_iterator_tagE15_M_get_sequenceEv, symObjAddr: 0x4330, symBinAddr: 0x1000056D0, symSize: 0x18 }
  - { offsetInCU: 0x284FE, offset: 0x284FE, size: 0x8, addend: 0x0, symName: __ZNK11__gnu_debug14_Safe_iteratorISt23_Rb_tree_const_iteratorINSt7__cxx1112basic_stringIcSt11char_traitsIcESaIcEEEENSt7__debug3setIS7_St4lessIS7_ESaIS7_EEESt20forward_iterator_tagE11_M_is_beginEv, symObjAddr: 0x4348, symBinAddr: 0x1000056E8, symSize: 0x50 }
  - { offsetInCU: 0x286C5, offset: 0x286C5, size: 0x8, addend: 0x0, symName: __ZSt11__addressofIKN11__gnu_debug14_Safe_iteratorISt23_Rb_tree_const_iteratorINSt7__cxx1112basic_stringIcSt11char_traitsIcESaIcEEEENSt7__debug3setIS8_St4lessIS8_ESaIS8_EEESt26bidirectional_iterator_tagEEEPT_RSJ_, symObjAddr: 0x431C, symBinAddr: 0x1000056BC, symSize: 0x14 }
  - { offsetInCU: 0x286CD, offset: 0x286CD, size: 0x8, addend: 0x0, symName: __ZNK11__gnu_debug14_Safe_iteratorISt23_Rb_tree_const_iteratorINSt7__cxx1112basic_stringIcSt11char_traitsIcESaIcEEEENSt7__debug3setIS7_St4lessIS7_ESaIS7_EEESt20forward_iterator_tagE15_M_get_sequenceEv, symObjAddr: 0x4330, symBinAddr: 0x1000056D0, symSize: 0x18 }
  - { offsetInCU: 0x2860B, offset: 0x2860B, size: 0x8, addend: 0x0, symName: __ZNSt23_Rb_tree_const_iteratorINSt7__cxx1112basic_stringIcSt11char_traitsIcESaIcEEEEC1EPKSt18_Rb_tree_node_base, symObjAddr: 0x42F8, symBinAddr: 0x100005698, symSize: 0x24 }
  - { offsetInCU: 0x28613, offset: 0x28613, size: 0x8, addend: 0x0, symName: __ZSt11__addressofIKN11__gnu_debug14_Safe_iteratorISt23_Rb_tree_const_iteratorINSt7__cxx1112basic_stringIcSt11char_traitsIcESaIcEEEENSt7__debug3setIS8_St4lessIS8_ESaIS8_EEESt26bidirectional_iterator_tagEEEPT_RSJ_, symObjAddr: 0x431C, symBinAddr: 0x1000056BC, symSize: 0x14 }
  - { offsetInCU: 0x285D8, offset: 0x285D8, size: 0x8, addend: 0x0, symName: __ZNSt8_Rb_treeINSt7__cxx1112basic_stringIcSt11char_traitsIcESaIcEEES5_St9_IdentityIS5_ESt4lessIS5_ESaIS5_EE11_M_put_nodeEPSt13_Rb_tree_nodeIS5_E, symObjAddr: 0x42AC, symBinAddr: 0x10000564C, symSize: 0x4C }
  - { offsetInCU: 0x285E0, offset: 0x285E0, size: 0x8, addend: 0x0, symName: __ZNSt23_Rb_tree_const_iteratorINSt7__cxx1112basic_stringIcSt11char_traitsIcESaIcEEEEC1EPKSt18_Rb_tree_node_base, symObjAddr: 0x42F8, symBinAddr: 0x100005698, symSize: 0x24 }
  - { offsetInCU: 0x2865E, offset: 0x2865E, size: 0x8, addend: 0x0, symName: __ZNSt8_Rb_treeINSt7__cxx1112basic_stringIcSt11char_traitsIcESaIcEEES5_St9_IdentityIS5_ESt4lessIS5_ESaIS5_EE15_M_destroy_nodeEPSt13_Rb_tree_nodeIS5_E, symObjAddr: 0x424C, symBinAddr: 0x1000055EC, symSize: 0x60 }
  - { offsetInCU: 0x28666, offset: 0x28666, size: 0x8, addend: 0x0, symName: __ZNSt8_Rb_treeINSt7__cxx1112basic_stringIcSt11char_traitsIcESaIcEEES5_St9_IdentityIS5_ESt4lessIS5_ESaIS5_EE11_M_put_nodeEPSt13_Rb_tree_nodeIS5_E, symObjAddr: 0x42AC, symBinAddr: 0x10000564C, symSize: 0x4C }
  - { offsetInCU: 0x2870C, offset: 0x2870C, size: 0x8, addend: 0x0, symName: __ZNSt8_Rb_treeINSt7__cxx1112basic_stringIcSt11char_traitsIcESaIcEEES5_St9_IdentityIS5_ESt4lessIS5_ESaIS5_EE17_M_emplace_uniqueIJRKPKcEEESt4pairISt17_Rb_tree_iteratorIS5_EbEDpOT_, symObjAddr: 0x4168, symBinAddr: 0x100005508, symSize: 0xE4 }
  - { offsetInCU: 0x28714, offset: 0x28714, size: 0x8, addend: 0x0, symName: __ZNSt8_Rb_treeINSt7__cxx1112basic_stringIcSt11char_traitsIcESaIcEEES5_St9_IdentityIS5_ESt4lessIS5_ESaIS5_EE15_M_destroy_nodeEPSt13_Rb_tree_nodeIS5_E, symObjAddr: 0x424C, symBinAddr: 0x1000055EC, symSize: 0x60 }
  - { offsetInCU: 0x28870, offset: 0x28870, size: 0x8, addend: 0x0, symName: __ZNSt8_Rb_treeINSt7__cxx1112basic_stringIcSt11char_traitsIcESaIcEEES5_St9_IdentityIS5_ESt4lessIS5_ESaIS5_EE13_Rb_tree_implIS9_Lb1EEC1ERKS9_OSaISt13_Rb_tree_nodeIS5_EE, symObjAddr: 0x4100, symBinAddr: 0x1000054A0, symSize: 0x68 }
  - { offsetInCU: 0x28878, offset: 0x28878, size: 0x8, addend: 0x0, symName: __ZNSt8_Rb_treeINSt7__cxx1112basic_stringIcSt11char_traitsIcESaIcEEES5_St9_IdentityIS5_ESt4lessIS5_ESaIS5_EE17_M_emplace_uniqueIJRKPKcEEESt4pairISt17_Rb_tree_iteratorIS5_EbEDpOT_, symObjAddr: 0x4168, symBinAddr: 0x100005508, symSize: 0xE4 }
  - { offsetInCU: 0x28974, offset: 0x28974, size: 0x8, addend: 0x0, symName: __ZN11__gnu_debug16_Error_formatter10_ParameterC1IPKcEERKPKT_S4_NS0_12_Is_iteratorE, symObjAddr: 0x4050, symBinAddr: 0x1000053F0, symSize: 0xB0 }
  - { offsetInCU: 0x2897C, offset: 0x2897C, size: 0x8, addend: 0x0, symName: __ZNSt8_Rb_treeINSt7__cxx1112basic_stringIcSt11char_traitsIcESaIcEEES5_St9_IdentityIS5_ESt4lessIS5_ESaIS5_EE13_Rb_tree_implIS9_Lb1EEC1ERKS9_OSaISt13_Rb_tree_nodeIS5_EE, symObjAddr: 0x4100, symBinAddr: 0x1000054A0, symSize: 0x68 }
  - { offsetInCU: 0x289D0, offset: 0x289D0, size: 0x8, addend: 0x0, symName: __ZN11__gnu_debug17__valid_range_auxIPKPKcEEbT_S5_St12__false_type, symObjAddr: 0x401C, symBinAddr: 0x1000053BC, symSize: 0x34 }
  - { offsetInCU: 0x289D8, offset: 0x289D8, size: 0x8, addend: 0x0, symName: __ZN11__gnu_debug16_Error_formatter10_ParameterC1IPKcEERKPKT_S4_NS0_12_Is_iteratorE, symObjAddr: 0x4050, symBinAddr: 0x1000053F0, symSize: 0xB0 }
  - { offsetInCU: 0x28A1A, offset: 0x28A1A, size: 0x8, addend: 0x0, symName: __ZNSt7__cxx1112basic_stringIcSt11char_traitsIcESaIcEE9_M_mutateEmmPKcm, symObjAddr: 0x3EC4, symBinAddr: 0x100005264, symSize: 0x158 }
  - { offsetInCU: 0x28A22, offset: 0x28A22, size: 0x8, addend: 0x0, symName: __ZN11__gnu_debug17__valid_range_auxIPKPKcEEbT_S5_St12__false_type, symObjAddr: 0x401C, symBinAddr: 0x1000053BC, symSize: 0x34 }
  - { offsetInCU: 0x28B0C, offset: 0x28B0C, size: 0x8, addend: 0x0, symName: __ZNSt15__new_allocatorIcE10deallocateEPcm, symObjAddr: 0x3E9C, symBinAddr: 0x10000523C, symSize: 0x28 }
  - { offsetInCU: 0x28B14, offset: 0x28B14, size: 0x8, addend: 0x0, symName: __ZNSt7__cxx1112basic_stringIcSt11char_traitsIcESaIcEE9_M_mutateEmmPKcm, symObjAddr: 0x3EC4, symBinAddr: 0x100005264, symSize: 0x158 }
  - { offsetInCU: 0x28BB4, offset: 0x28BB4, size: 0x8, addend: 0x0, symName: __ZNSt7__cxx1112basic_stringIcSt11char_traitsIcESaIcEE9_M_appendEPKcm, symObjAddr: 0x3DD4, symBinAddr: 0x100005174, symSize: 0xC8 }
  - { offsetInCU: 0x28BBC, offset: 0x28BBC, size: 0x8, addend: 0x0, symName: __ZNSt15__new_allocatorIcE10deallocateEPcm, symObjAddr: 0x3E9C, symBinAddr: 0x10000523C, symSize: 0x28 }
  - { offsetInCU: 0x28C22, offset: 0x28C22, size: 0x8, addend: 0x0, symName: __ZNKSt7__cxx1112basic_stringIcSt11char_traitsIcESaIcEE15_M_check_lengthEmmPKc, symObjAddr: 0x3D60, symBinAddr: 0x100005100, symSize: 0x74 }
  - { offsetInCU: 0x28C2A, offset: 0x28C2A, size: 0x8, addend: 0x0, symName: __ZNSt7__cxx1112basic_stringIcSt11char_traitsIcESaIcEE9_M_appendEPKcm, symObjAddr: 0x3DD4, symBinAddr: 0x100005174, symSize: 0xC8 }
  - { offsetInCU: 0x28D0C, offset: 0x28D0C, size: 0x8, addend: 0x0, symName: __ZNSt19__ptr_traits_ptr_toIPKcS0_Lb0EE10pointer_toERS0_, symObjAddr: 0x3D44, symBinAddr: 0x1000050E4, symSize: 0x1C }
  - { offsetInCU: 0x28D14, offset: 0x28D14, size: 0x8, addend: 0x0, symName: __ZNKSt7__cxx1112basic_stringIcSt11char_traitsIcESaIcEE15_M_check_lengthEmmPKc, symObjAddr: 0x3D60, symBinAddr: 0x100005100, symSize: 0x74 }
  - { offsetInCU: 0x28D3D, offset: 0x28D3D, size: 0x8, addend: 0x0, symName: __ZNKSt7__cxx1112basic_stringIcSt11char_traitsIcESaIcEE8max_sizeEv, symObjAddr: 0x3D00, symBinAddr: 0x1000050A0, symSize: 0x44 }
  - { offsetInCU: 0x28D45, offset: 0x28D45, size: 0x8, addend: 0x0, symName: __ZNSt19__ptr_traits_ptr_toIPKcS0_Lb0EE10pointer_toERS0_, symObjAddr: 0x3D44, symBinAddr: 0x1000050E4, symSize: 0x1C }
  - { offsetInCU: 0x28E33, offset: 0x28E33, size: 0x8, addend: 0x0, symName: __ZSt9addressofIcEPT_RS0_, symObjAddr: 0x3CE4, symBinAddr: 0x100005084, symSize: 0x1C }
  - { offsetInCU: 0x28E3B, offset: 0x28E3B, size: 0x8, addend: 0x0, symName: __ZNKSt7__cxx1112basic_stringIcSt11char_traitsIcESaIcEE8max_sizeEv, symObjAddr: 0x3D00, symBinAddr: 0x1000050A0, symSize: 0x44 }
  - { offsetInCU: 0x28E51, offset: 0x28E51, size: 0x8, addend: 0x0, symName: __ZNSt8_Rb_treeINSt7__cxx1112basic_stringIcSt11char_traitsIcESaIcEEES5_St9_IdentityIS5_ESt4lessIS5_ESaIS5_EE10_S_maximumEPSt18_Rb_tree_node_base, symObjAddr: 0x3CC8, symBinAddr: 0x100005068, symSize: 0x1C }
  - { offsetInCU: 0x28E59, offset: 0x28E59, size: 0x8, addend: 0x0, symName: __ZSt9addressofIcEPT_RS0_, symObjAddr: 0x3CE4, symBinAddr: 0x100005084, symSize: 0x1C }
  - { offsetInCU: 0x28E84, offset: 0x28E84, size: 0x8, addend: 0x0, symName: __ZNSt8_Rb_treeINSt7__cxx1112basic_stringIcSt11char_traitsIcESaIcEEES5_St9_IdentityIS5_ESt4lessIS5_ESaIS5_EE10_S_minimumEPSt18_Rb_tree_node_base, symObjAddr: 0x3CAC, symBinAddr: 0x10000504C, symSize: 0x1C }
  - { offsetInCU: 0x28E8C, offset: 0x28E8C, size: 0x8, addend: 0x0, symName: __ZNSt8_Rb_treeINSt7__cxx1112basic_stringIcSt11char_traitsIcESaIcEEES5_St9_IdentityIS5_ESt4lessIS5_ESaIS5_EE10_S_maximumEPSt18_Rb_tree_node_base, symObjAddr: 0x3CC8, symBinAddr: 0x100005068, symSize: 0x1C }
  - { offsetInCU: 0x28EB7, offset: 0x28EB7, size: 0x8, addend: 0x0, symName: __ZNSt8_Rb_treeINSt7__cxx1112basic_stringIcSt11char_traitsIcESaIcEEES5_St9_IdentityIS5_ESt4lessIS5_ESaIS5_EE11_M_leftmostEv, symObjAddr: 0x3C94, symBinAddr: 0x100005034, symSize: 0x18 }
  - { offsetInCU: 0x28EBF, offset: 0x28EBF, size: 0x8, addend: 0x0, symName: __ZNSt8_Rb_treeINSt7__cxx1112basic_stringIcSt11char_traitsIcESaIcEEES5_St9_IdentityIS5_ESt4lessIS5_ESaIS5_EE10_S_minimumEPSt18_Rb_tree_node_base, symObjAddr: 0x3CAC, symBinAddr: 0x10000504C, symSize: 0x1C }
  - { offsetInCU: 0x28EE6, offset: 0x28EE6, size: 0x8, addend: 0x0, symName: __ZNSt8_Rb_treeINSt7__cxx1112basic_stringIcSt11char_traitsIcESaIcEEES5_St9_IdentityIS5_ESt4lessIS5_ESaIS5_EE7_M_copyILb0ENSB_20_Reuse_or_alloc_nodeEEEPSt13_Rb_tree_nodeIS5_ESG_PSt18_Rb_tree_node_baseRT0_, symObjAddr: 0x3B4C, symBinAddr: 0x100004EEC, symSize: 0x148 }
  - { offsetInCU: 0x28EEE, offset: 0x28EEE, size: 0x8, addend: 0x0, symName: __ZNSt8_Rb_treeINSt7__cxx1112basic_stringIcSt11char_traitsIcESaIcEEES5_St9_IdentityIS5_ESt4lessIS5_ESaIS5_EE11_M_leftmostEv, symObjAddr: 0x3C94, symBinAddr: 0x100005034, symSize: 0x18 }
  - { offsetInCU: 0x28FAC, offset: 0x28FAC, size: 0x8, addend: 0x0, symName: __ZNSt8_Rb_treeINSt7__cxx1112basic_stringIcSt11char_traitsIcESaIcEEES5_St9_IdentityIS5_ESt4lessIS5_ESaIS5_EE6_M_endEv, symObjAddr: 0x3B34, symBinAddr: 0x100004ED4, symSize: 0x18 }
  - { offsetInCU: 0x28FB4, offset: 0x28FB4, size: 0x8, addend: 0x0, symName: __ZNSt8_Rb_treeINSt7__cxx1112basic_stringIcSt11char_traitsIcESaIcEEES5_St9_IdentityIS5_ESt4lessIS5_ESaIS5_EE7_M_copyILb0ENSB_20_Reuse_or_alloc_nodeEEEPSt13_Rb_tree_nodeIS5_ESG_PSt18_Rb_tree_node_baseRT0_, symObjAddr: 0x3B4C, symBinAddr: 0x100004EEC, symSize: 0x148 }
  - { offsetInCU: 0x28FDB, offset: 0x28FDB, size: 0x8, addend: 0x0, symName: __ZNSt8_Rb_treeINSt7__cxx1112basic_stringIcSt11char_traitsIcESaIcEEES5_St9_IdentityIS5_ESt4lessIS5_ESaIS5_EE12_M_rightmostEv, symObjAddr: 0x3B1C, symBinAddr: 0x100004EBC, symSize: 0x18 }
  - { offsetInCU: 0x28FE3, offset: 0x28FE3, size: 0x8, addend: 0x0, symName: __ZNSt8_Rb_treeINSt7__cxx1112basic_stringIcSt11char_traitsIcESaIcEEES5_St9_IdentityIS5_ESt4lessIS5_ESaIS5_EE6_M_endEv, symObjAddr: 0x3B34, symBinAddr: 0x100004ED4, symSize: 0x18 }
  - { offsetInCU: 0x2901D, offset: 0x2901D, size: 0x8, addend: 0x0, symName: __ZN11__gnu_debug14_Safe_sequenceINSt7__debug3setINSt7__cxx1112basic_stringIcSt11char_traitsIcESaIcEEESt4lessIS8_ESaIS8_EEEE16_M_invalidate_ifINS_13_Not_equal_toISt23_Rb_tree_const_iteratorIS8_EEEEEvT_, symObjAddr: 0x3980, symBinAddr: 0x100004D20, symSize: 0x19C }
  - { offsetInCU: 0x29025, offset: 0x29025, size: 0x8, addend: 0x0, symName: __ZNSt8_Rb_treeINSt7__cxx1112basic_stringIcSt11char_traitsIcESaIcEEES5_St9_IdentityIS5_ESt4lessIS5_ESaIS5_EE12_M_rightmostEv, symObjAddr: 0x3B1C, symBinAddr: 0x100004EBC, symSize: 0x18 }
  - { offsetInCU: 0x291EF, offset: 0x291EF, size: 0x8, addend: 0x0, symName: __ZN11__gnu_debug13_Not_equal_toISt23_Rb_tree_const_iteratorINSt7__cxx1112basic_stringIcSt11char_traitsIcESaIcEEEEEC1ERKS8_, symObjAddr: 0x3958, symBinAddr: 0x100004CF8, symSize: 0x28 }
  - { offsetInCU: 0x291F7, offset: 0x291F7, size: 0x8, addend: 0x0, symName: __ZN11__gnu_debug14_Safe_sequenceINSt7__debug3setINSt7__cxx1112basic_stringIcSt11char_traitsIcESaIcEEESt4lessIS8_ESaIS8_EEEE16_M_invalidate_ifINS_13_Not_equal_toISt23_Rb_tree_const_iteratorIS8_EEEEEvT_, symObjAddr: 0x3980, symBinAddr: 0x100004D20, symSize: 0x19C }
  - { offsetInCU: 0x291B1, offset: 0x291B1, size: 0x8, addend: 0x0, symName: __ZNKSt7__debug3setINSt7__cxx1112basic_stringIcSt11char_traitsIcESaIcEEESt4lessIS6_ESaIS6_EE7_M_baseEv, symObjAddr: 0x3940, symBinAddr: 0x100004CE0, symSize: 0x18 }
  - { offsetInCU: 0x291B9, offset: 0x291B9, size: 0x8, addend: 0x0, symName: __ZN11__gnu_debug13_Not_equal_toISt23_Rb_tree_const_iteratorINSt7__cxx1112basic_stringIcSt11char_traitsIcESaIcEEEEEC1ERKS8_, symObjAddr: 0x3958, symBinAddr: 0x100004CF8, symSize: 0x28 }
  - { offsetInCU: 0x292CD, offset: 0x292CD, size: 0x8, addend: 0x0, symName: __ZN11__gnu_debug14_Safe_iteratorISt23_Rb_tree_const_iteratorINSt7__cxx1112basic_stringIcSt11char_traitsIcESaIcEEEENSt7__debug3setIS7_St4lessIS7_ESaIS7_EEESt26bidirectional_iterator_tagEC1ERKSG_, symObjAddr: 0x3918, symBinAddr: 0x100004CB8, symSize: 0x28 }
  - { offsetInCU: 0x292D5, offset: 0x292D5, size: 0x8, addend: 0x0, symName: __ZNKSt7__debug3setINSt7__cxx1112basic_stringIcSt11char_traitsIcESaIcEEESt4lessIS6_ESaIS6_EE7_M_baseEv, symObjAddr: 0x3940, symBinAddr: 0x100004CE0, symSize: 0x18 }
  - { offsetInCU: 0x2932B, offset: 0x2932B, size: 0x8, addend: 0x0, symName: __ZNSt4pairISt23_Rb_tree_const_iteratorINSt7__cxx1112basic_stringIcSt11char_traitsIcESaIcEEEEbEC1IRSt17_Rb_tree_iteratorIS6_ERbLb1EEEOT_OT0_, symObjAddr: 0x38C4, symBinAddr: 0x100004C64, symSize: 0x54 }
  - { offsetInCU: 0x29333, offset: 0x29333, size: 0x8, addend: 0x0, symName: __ZN11__gnu_debug14_Safe_iteratorISt23_Rb_tree_const_iteratorINSt7__cxx1112basic_stringIcSt11char_traitsIcESaIcEEEENSt7__debug3setIS7_St4lessIS7_ESaIS7_EEESt26bidirectional_iterator_tagEC1ERKSG_, symObjAddr: 0x3918, symBinAddr: 0x100004CB8, symSize: 0x28 }
  - { offsetInCU: 0x29303, offset: 0x29303, size: 0x8, addend: 0x0, symName: __ZNSt8_Rb_treeINSt7__cxx1112basic_stringIcSt11char_traitsIcESaIcEEES5_St9_IdentityIS5_ESt4lessIS5_ESaIS5_EE16_M_insert_uniqueIS5_EESt4pairISt17_Rb_tree_iteratorIS5_EbEOT_, symObjAddr: 0x37F8, symBinAddr: 0x100004B98, symSize: 0xCC }
  - { offsetInCU: 0x2930B, offset: 0x2930B, size: 0x8, addend: 0x0, symName: __ZNSt4pairISt23_Rb_tree_const_iteratorINSt7__cxx1112basic_stringIcSt11char_traitsIcESaIcEEEEbEC1IRSt17_Rb_tree_iteratorIS6_ERbLb1EEEOT_OT0_, symObjAddr: 0x38C4, symBinAddr: 0x100004C64, symSize: 0x54 }
  - { offsetInCU: 0x29395, offset: 0x29395, size: 0x8, addend: 0x0, symName: __ZNKSt13_Rb_tree_nodeINSt7__cxx1112basic_stringIcSt11char_traitsIcESaIcEEEE9_M_valptrEv, symObjAddr: 0x37D8, symBinAddr: 0x100004B78, symSize: 0x20 }
  - { offsetInCU: 0x2939D, offset: 0x2939D, size: 0x8, addend: 0x0, symName: __ZNSt8_Rb_treeINSt7__cxx1112basic_stringIcSt11char_traitsIcESaIcEEES5_St9_IdentityIS5_ESt4lessIS5_ESaIS5_EE16_M_insert_uniqueIS5_EESt4pairISt17_Rb_tree_iteratorIS5_EbEOT_, symObjAddr: 0x37F8, symBinAddr: 0x100004B98, symSize: 0xCC }
  - { offsetInCU: 0x2952C, offset: 0x2952C, size: 0x8, addend: 0x0, symName: __ZN11__gnu_debug16_Error_formatter10_ParameterC1ISt23_Rb_tree_const_iteratorINSt7__cxx1112basic_stringIcSt11char_traitsIcESaIcEEEENSt7__debug3setIS9_St4lessIS9_ESaIS9_EEESt20forward_iterator_tagEERKNS_14_Safe_iteratorIT_T0_T1_EEPKcNS0_12_Is_iteratorE, symObjAddr: 0x365C, symBinAddr: 0x1000049FC, symSize: 0x17C }
  - { offsetInCU: 0x29534, offset: 0x29534, size: 0x8, addend: 0x0, symName: __ZNKSt13_Rb_tree_nodeINSt7__cxx1112basic_stringIcSt11char_traitsIcESaIcEEEE9_M_valptrEv, symObjAddr: 0x37D8, symBinAddr: 0x100004B78, symSize: 0x20 }
  - { offsetInCU: 0x294AF, offset: 0x294AF, size: 0x8, addend: 0x0, symName: __ZNK11__gnu_debug14_Safe_iteratorISt23_Rb_tree_const_iteratorINSt7__cxx1112basic_stringIcSt11char_traitsIcESaIcEEEENSt7__debug3setIS7_St4lessIS7_ESaIS7_EEESt20forward_iterator_tagE18_M_is_before_beginEv, symObjAddr: 0x363C, symBinAddr: 0x1000049DC, symSize: 0x20 }
  - { offsetInCU: 0x294B7, offset: 0x294B7, size: 0x8, addend: 0x0, symName: __ZN11__gnu_debug16_Error_formatter10_ParameterC1ISt23_Rb_tree_const_iteratorINSt7__cxx1112basic_stringIcSt11char_traitsIcESaIcEEEENSt7__debug3setIS9_St4lessIS9_ESaIS9_EEESt20forward_iterator_tagEERKNS_14_Safe_iteratorIT_T0_T1_EEPKcNS0_12_Is_iteratorE, symObjAddr: 0x365C, symBinAddr: 0x1000049FC, symSize: 0x17C }
  - { offsetInCU: 0x294DE, offset: 0x294DE, size: 0x8, addend: 0x0, symName: __ZNK11__gnu_debug14_Safe_iteratorISt23_Rb_tree_const_iteratorINSt7__cxx1112basic_stringIcSt11char_traitsIcESaIcEEEENSt7__debug3setIS7_St4lessIS7_ESaIS7_EEESt20forward_iterator_tagE9_M_is_endEv, symObjAddr: 0x35EC, symBinAddr: 0x10000498C, symSize: 0x50 }
  - { offsetInCU: 0x294E6, offset: 0x294E6, size: 0x8, addend: 0x0, symName: __ZNK11__gnu_debug14_Safe_iteratorISt23_Rb_tree_const_iteratorINSt7__cxx1112basic_stringIcSt11char_traitsIcESaIcEEEENSt7__debug3setIS7_St4lessIS7_ESaIS7_EEESt20forward_iterator_tagE18_M_is_before_beginEv, symObjAddr: 0x363C, symBinAddr: 0x1000049DC, symSize: 0x20 }
  - { offsetInCU: 0x2950D, offset: 0x2950D, size: 0x8, addend: 0x0, symName: __ZNSt23_Rb_tree_const_iteratorINSt7__cxx1112basic_stringIcSt11char_traitsIcESaIcEEEEppEv, symObjAddr: 0x35BC, symBinAddr: 0x10000495C, symSize: 0x30 }
  - { offsetInCU: 0x29515, offset: 0x29515, size: 0x8, addend: 0x0, symName: __ZNK11__gnu_debug14_Safe_iteratorISt23_Rb_tree_const_iteratorINSt7__cxx1112basic_stringIcSt11char_traitsIcESaIcEEEENSt7__debug3setIS7_St4lessIS7_ESaIS7_EEESt20forward_iterator_tagE9_M_is_endEv, symObjAddr: 0x35EC, symBinAddr: 0x10000498C, symSize: 0x50 }
  - { offsetInCU: 0x2953C, offset: 0x2953C, size: 0x8, addend: 0x0, symName: __ZN11__gnu_debug14_Safe_iteratorISt23_Rb_tree_const_iteratorINSt7__cxx1112basic_stringIcSt11char_traitsIcESaIcEEEENSt7__debug3setIS7_St4lessIS7_ESaIS7_EEESt20forward_iterator_tagE4baseEv, symObjAddr: 0x35A8, symBinAddr: 0x100004948, symSize: 0x14 }
  - { offsetInCU: 0x29544, offset: 0x29544, size: 0x8, addend: 0x0, symName: __ZNSt23_Rb_tree_const_iteratorINSt7__cxx1112basic_stringIcSt11char_traitsIcESaIcEEEEppEv, symObjAddr: 0x35BC, symBinAddr: 0x10000495C, symSize: 0x30 }
  - { offsetInCU: 0x2956B, offset: 0x2956B, size: 0x8, addend: 0x0, symName: __ZNK11__gnu_debug14_Safe_iteratorISt23_Rb_tree_const_iteratorINSt7__cxx1112basic_stringIcSt11char_traitsIcESaIcEEEENSt7__debug3setIS7_St4lessIS7_ESaIS7_EEESt20forward_iterator_tagE16_M_incrementableEv, symObjAddr: 0x3544, symBinAddr: 0x1000048E4, symSize: 0x64 }
  - { offsetInCU: 0x29573, offset: 0x29573, size: 0x8, addend: 0x0, symName: __ZN11__gnu_debug14_Safe_iteratorISt23_Rb_tree_const_iteratorINSt7__cxx1112basic_stringIcSt11char_traitsIcESaIcEEEENSt7__debug3setIS7_St4lessIS7_ESaIS7_EEESt20forward_iterator_tagE4baseEv, symObjAddr: 0x35A8, symBinAddr: 0x100004948, symSize: 0x14 }
  - { offsetInCU: 0x29708, offset: 0x29708, size: 0x8, addend: 0x0, symName: __ZN11__gnu_debug16_Error_formatter10_ParameterC1ISt23_Rb_tree_const_iteratorINSt7__cxx1112basic_stringIcSt11char_traitsIcESaIcEEEENSt7__debug3setIS9_St4lessIS9_ESaIS9_EEESt26bidirectional_iterator_tagEERKNS_14_Safe_iteratorIT_T0_T1_EEPKcNS0_12_Is_iteratorE, symObjAddr: 0x33C8, symBinAddr: 0x100004768, symSize: 0x17C }
  - { offsetInCU: 0x29710, offset: 0x29710, size: 0x8, addend: 0x0, symName: __ZNK11__gnu_debug14_Safe_iteratorISt23_Rb_tree_const_iteratorINSt7__cxx1112basic_stringIcSt11char_traitsIcESaIcEEEENSt7__debug3setIS7_St4lessIS7_ESaIS7_EEESt20forward_iterator_tagE16_M_incrementableEv, symObjAddr: 0x3544, symBinAddr: 0x1000048E4, symSize: 0x64 }
  - { offsetInCU: 0x29686, offset: 0x29686, size: 0x8, addend: 0x0, symName: __ZN11__gnu_debug14_Safe_iteratorISt23_Rb_tree_const_iteratorINSt7__cxx1112basic_stringIcSt11char_traitsIcESaIcEEEENSt7__debug3setIS7_St4lessIS7_ESaIS7_EEESt20forward_iterator_tagE11_S_constantEv, symObjAddr: 0x33C0, symBinAddr: 0x100004760, symSize: 0x8 }
  - { offsetInCU: 0x2968E, offset: 0x2968E, size: 0x8, addend: 0x0, symName: __ZN11__gnu_debug16_Error_formatter10_ParameterC1ISt23_Rb_tree_const_iteratorINSt7__cxx1112basic_stringIcSt11char_traitsIcESaIcEEEENSt7__debug3setIS9_St4lessIS9_ESaIS9_EEESt26bidirectional_iterator_tagEERKNS_14_Safe_iteratorIT_T0_T1_EEPKcNS0_12_Is_iteratorE, symObjAddr: 0x33C8, symBinAddr: 0x100004768, symSize: 0x17C }
  - { offsetInCU: 0x29709, offset: 0x29709, size: 0x8, addend: 0x0, symName: __ZSteqRKSt23_Rb_tree_const_iteratorINSt7__cxx1112basic_stringIcSt11char_traitsIcESaIcEEEES8_, symObjAddr: 0x3390, symBinAddr: 0x100004730, symSize: 0x30 }
  - { offsetInCU: 0x29711, offset: 0x29711, size: 0x8, addend: 0x0, symName: __ZN11__gnu_debug14_Safe_iteratorISt23_Rb_tree_const_iteratorINSt7__cxx1112basic_stringIcSt11char_traitsIcESaIcEEEENSt7__debug3setIS7_St4lessIS7_ESaIS7_EEESt20forward_iterator_tagE11_S_constantEv, symObjAddr: 0x33C0, symBinAddr: 0x100004760, symSize: 0x8 }
  - { offsetInCU: 0x29774, offset: 0x29774, size: 0x8, addend: 0x0, symName: __ZNSt23_Rb_tree_const_iteratorINSt7__cxx1112basic_stringIcSt11char_traitsIcESaIcEEEEC1Ev, symObjAddr: 0x3374, symBinAddr: 0x100004714, symSize: 0x1C }
  - { offsetInCU: 0x2977C, offset: 0x2977C, size: 0x8, addend: 0x0, symName: __ZSteqRKSt23_Rb_tree_const_iteratorINSt7__cxx1112basic_stringIcSt11char_traitsIcESaIcEEEES8_, symObjAddr: 0x3390, symBinAddr: 0x100004730, symSize: 0x30 }
  - { offsetInCU: 0x2974B, offset: 0x2974B, size: 0x8, addend: 0x0, symName: __ZNKSt8_Rb_treeINSt7__cxx1112basic_stringIcSt11char_traitsIcESaIcEEES5_St9_IdentityIS5_ESt4lessIS5_ESaIS5_EE3endEv, symObjAddr: 0x334C, symBinAddr: 0x1000046EC, symSize: 0x28 }
  - { offsetInCU: 0x29753, offset: 0x29753, size: 0x8, addend: 0x0, symName: __ZNSt23_Rb_tree_const_iteratorINSt7__cxx1112basic_stringIcSt11char_traitsIcESaIcEEEEC1Ev, symObjAddr: 0x3374, symBinAddr: 0x100004714, symSize: 0x1C }
  - { offsetInCU: 0x29888, offset: 0x29888, size: 0x8, addend: 0x0, symName: __ZN11__gnu_debug14_Safe_iteratorISt23_Rb_tree_const_iteratorINSt7__cxx1112basic_stringIcSt11char_traitsIcESaIcEEEENSt7__debug3setIS7_St4lessIS7_ESaIS7_EEESt20forward_iterator_tagEC2ES8_PKNS_19_Safe_sequence_baseE, symObjAddr: 0x32F8, symBinAddr: 0x100004698, symSize: 0x54 }
  - { offsetInCU: 0x29890, offset: 0x29890, size: 0x8, addend: 0x0, symName: __ZNKSt8_Rb_treeINSt7__cxx1112basic_stringIcSt11char_traitsIcESaIcEEES5_St9_IdentityIS5_ESt4lessIS5_ESaIS5_EE3endEv, symObjAddr: 0x334C, symBinAddr: 0x1000046EC, symSize: 0x28 }
  - { offsetInCU: 0x297FD, offset: 0x297FD, size: 0x8, addend: 0x0, symName: __ZNKSt8_Rb_treeINSt7__cxx1112basic_stringIcSt11char_traitsIcESaIcEEES5_St9_IdentityIS5_ESt4lessIS5_ESaIS5_EE5beginEv, symObjAddr: 0x32D0, symBinAddr: 0x100004670, symSize: 0x28 }
  - { offsetInCU: 0x29805, offset: 0x29805, size: 0x8, addend: 0x0, symName: __ZN11__gnu_debug14_Safe_iteratorISt23_Rb_tree_const_iteratorINSt7__cxx1112basic_stringIcSt11char_traitsIcESaIcEEEENSt7__debug3setIS7_St4lessIS7_ESaIS7_EEESt20forward_iterator_tagEC2ES8_PKNS_19_Safe_sequence_baseE, symObjAddr: 0x32F8, symBinAddr: 0x100004698, symSize: 0x54 }
  - { offsetInCU: 0x29845, offset: 0x29845, size: 0x8, addend: 0x0, symName: __ZNKSt8_Rb_treeINSt7__cxx1112basic_stringIcSt11char_traitsIcESaIcEEES5_St9_IdentityIS5_ESt4lessIS5_ESaIS5_EE9_M_mbeginEv, symObjAddr: 0x32B8, symBinAddr: 0x100004658, symSize: 0x18 }
  - { offsetInCU: 0x2984D, offset: 0x2984D, size: 0x8, addend: 0x0, symName: __ZNKSt8_Rb_treeINSt7__cxx1112basic_stringIcSt11char_traitsIcESaIcEEES5_St9_IdentityIS5_ESt4lessIS5_ESaIS5_EE5beginEv, symObjAddr: 0x32D0, symBinAddr: 0x100004670, symSize: 0x28 }
  - { offsetInCU: 0x29874, offset: 0x29874, size: 0x8, addend: 0x0, symName: __ZNSt8_Rb_treeINSt7__cxx1112basic_stringIcSt11char_traitsIcESaIcEEES5_St9_IdentityIS5_ESt4lessIS5_ESaIS5_EE12_M_drop_nodeEPSt13_Rb_tree_nodeIS5_E, symObjAddr: 0x3284, symBinAddr: 0x100004624, symSize: 0x34 }
  - { offsetInCU: 0x2987C, offset: 0x2987C, size: 0x8, addend: 0x0, symName: __ZNKSt8_Rb_treeINSt7__cxx1112basic_stringIcSt11char_traitsIcESaIcEEES5_St9_IdentityIS5_ESt4lessIS5_ESaIS5_EE9_M_mbeginEv, symObjAddr: 0x32B8, symBinAddr: 0x100004658, symSize: 0x18 }
  - { offsetInCU: 0x298B8, offset: 0x298B8, size: 0x8, addend: 0x0, symName: __ZNSt8_Rb_treeINSt7__cxx1112basic_stringIcSt11char_traitsIcESaIcEEES5_St9_IdentityIS5_ESt4lessIS5_ESaIS5_EE7_S_leftEPSt18_Rb_tree_node_base, symObjAddr: 0x326C, symBinAddr: 0x10000460C, symSize: 0x18 }
  - { offsetInCU: 0x298C0, offset: 0x298C0, size: 0x8, addend: 0x0, symName: __ZNSt8_Rb_treeINSt7__cxx1112basic_stringIcSt11char_traitsIcESaIcEEES5_St9_IdentityIS5_ESt4lessIS5_ESaIS5_EE12_M_drop_nodeEPSt13_Rb_tree_nodeIS5_E, symObjAddr: 0x3284, symBinAddr: 0x100004624, symSize: 0x34 }
  - { offsetInCU: 0x298EB, offset: 0x298EB, size: 0x8, addend: 0x0, symName: __ZNSt8_Rb_treeINSt7__cxx1112basic_stringIcSt11char_traitsIcESaIcEEES5_St9_IdentityIS5_ESt4lessIS5_ESaIS5_EE8_S_rightEPSt18_Rb_tree_node_base, symObjAddr: 0x3254, symBinAddr: 0x1000045F4, symSize: 0x18 }
  - { offsetInCU: 0x298F3, offset: 0x298F3, size: 0x8, addend: 0x0, symName: __ZNSt8_Rb_treeINSt7__cxx1112basic_stringIcSt11char_traitsIcESaIcEEES5_St9_IdentityIS5_ESt4lessIS5_ESaIS5_EE7_S_leftEPSt18_Rb_tree_node_base, symObjAddr: 0x326C, symBinAddr: 0x10000460C, symSize: 0x18 }
  - { offsetInCU: 0x2991E, offset: 0x2991E, size: 0x8, addend: 0x0, symName: __ZNSt8_Rb_treeINSt7__cxx1112basic_stringIcSt11char_traitsIcESaIcEEES5_St9_IdentityIS5_ESt4lessIS5_ESaIS5_EE22_M_insert_range_uniqueIPKPKcEENSt9enable_ifIXntsrSt7is_sameIS5_NSt15iterator_traitsIT_E10value_typeEE5valueEvE4typeESK_SK_, symObjAddr: 0x3204, symBinAddr: 0x1000045A4, symSize: 0x50 }
  - { offsetInCU: 0x29926, offset: 0x29926, size: 0x8, addend: 0x0, symName: __ZNSt8_Rb_treeINSt7__cxx1112basic_stringIcSt11char_traitsIcESaIcEEES5_St9_IdentityIS5_ESt4lessIS5_ESaIS5_EE8_S_rightEPSt18_Rb_tree_node_base, symObjAddr: 0x3254, symBinAddr: 0x1000045F4, symSize: 0x18 }
  - { offsetInCU: 0x29A3A, offset: 0x29A3A, size: 0x8, addend: 0x0, symName: __ZNSt8_Rb_treeINSt7__cxx1112basic_stringIcSt11char_traitsIcESaIcEEES5_St9_IdentityIS5_ESt4lessIS5_ESaIS5_EEC1ERKS9_RKSA_, symObjAddr: 0x3188, symBinAddr: 0x100004528, symSize: 0x7C }
  - { offsetInCU: 0x29A42, offset: 0x29A42, size: 0x8, addend: 0x0, symName: __ZNSt8_Rb_treeINSt7__cxx1112basic_stringIcSt11char_traitsIcESaIcEEES5_St9_IdentityIS5_ESt4lessIS5_ESaIS5_EE22_M_insert_range_uniqueIPKPKcEENSt9enable_ifIXntsrSt7is_sameIS5_NSt15iterator_traitsIT_E10value_typeEE5valueEvE4typeESK_SK_, symObjAddr: 0x3204, symBinAddr: 0x1000045A4, symSize: 0x50 }
  - { offsetInCU: 0x29AD8, offset: 0x29AD8, size: 0x8, addend: 0x0, symName: __ZN11__gnu_debug16_Error_formatter11_M_iteratorIPKPKcEERS0_RKT_S3_, symObjAddr: 0x30F4, symBinAddr: 0x100004494, symSize: 0x94 }
  - { offsetInCU: 0x29AE0, offset: 0x29AE0, size: 0x8, addend: 0x0, symName: __ZNSt8_Rb_treeINSt7__cxx1112basic_stringIcSt11char_traitsIcESaIcEEES5_St9_IdentityIS5_ESt4lessIS5_ESaIS5_EEC1ERKS9_RKSA_, symObjAddr: 0x3188, symBinAddr: 0x100004528, symSize: 0x7C }
  - { offsetInCU: 0x29B97, offset: 0x29B97, size: 0x8, addend: 0x0, symName: __ZN11__gnu_debug13__valid_rangeIPKPKcEEbT_S5_, symObjAddr: 0x30CC, symBinAddr: 0x10000446C, symSize: 0x28 }
  - { offsetInCU: 0x29B9F, offset: 0x29B9F, size: 0x8, addend: 0x0, symName: __ZN11__gnu_debug16_Error_formatter11_M_iteratorIPKPKcEERS0_RKT_S3_, symObjAddr: 0x30F4, symBinAddr: 0x100004494, symSize: 0x94 }
  - { offsetInCU: 0x29BA4, offset: 0x29BA4, size: 0x8, addend: 0x0, symName: __ZNSt7__cxx1112basic_stringIcSt11char_traitsIcESaIcEE11_S_allocateERS3_m, symObjAddr: 0x3088, symBinAddr: 0x100004428, symSize: 0x44 }
  - { offsetInCU: 0x29BAC, offset: 0x29BAC, size: 0x8, addend: 0x0, symName: __ZN11__gnu_debug13__valid_rangeIPKPKcEEbT_S5_, symObjAddr: 0x30CC, symBinAddr: 0x10000446C, symSize: 0x28 }
  - { offsetInCU: 0x29C71, offset: 0x29C71, size: 0x8, addend: 0x0, symName: __ZNSt7__cxx1112basic_stringIcSt11char_traitsIcESaIcEE13_S_copy_charsEPcS5_S5_, symObjAddr: 0x304C, symBinAddr: 0x1000043EC, symSize: 0x3C }
  - { offsetInCU: 0x29C79, offset: 0x29C79, size: 0x8, addend: 0x0, symName: __ZNSt7__cxx1112basic_stringIcSt11char_traitsIcESaIcEE11_S_allocateERS3_m, symObjAddr: 0x3088, symBinAddr: 0x100004428, symSize: 0x44 }
  - { offsetInCU: 0x29D30, offset: 0x29D30, size: 0x8, addend: 0x0, symName: __ZNSt7__cxx1112basic_stringIcSt11char_traitsIcESaIcEE6appendEPKcm, symObjAddr: 0x3008, symBinAddr: 0x1000043A8, symSize: 0x44 }
  - { offsetInCU: 0x29D38, offset: 0x29D38, size: 0x8, addend: 0x0, symName: __ZNSt7__cxx1112basic_stringIcSt11char_traitsIcESaIcEE13_S_copy_charsEPcS5_S5_, symObjAddr: 0x304C, symBinAddr: 0x1000043EC, symSize: 0x3C }
  - { offsetInCU: 0x29D89, offset: 0x29D89, size: 0x8, addend: 0x0, symName: __ZNSt7__cxx1112basic_stringIcSt11char_traitsIcESaIcEE13_S_copy_charsEPcPKcS7_, symObjAddr: 0x2FCC, symBinAddr: 0x10000436C, symSize: 0x3C }
  - { offsetInCU: 0x29D91, offset: 0x29D91, size: 0x8, addend: 0x0, symName: __ZNSt7__cxx1112basic_stringIcSt11char_traitsIcESaIcEE6appendEPKcm, symObjAddr: 0x3008, symBinAddr: 0x1000043A8, symSize: 0x44 }
  - { offsetInCU: 0x29E59, offset: 0x29E59, size: 0x8, addend: 0x0, symName: __ZNKSt7__cxx1112basic_stringIcSt11char_traitsIcESaIcEE13_M_local_dataEv, symObjAddr: 0x2FAC, symBinAddr: 0x10000434C, symSize: 0x20 }
  - { offsetInCU: 0x29E61, offset: 0x29E61, size: 0x8, addend: 0x0, symName: __ZNSt7__cxx1112basic_stringIcSt11char_traitsIcESaIcEE13_S_copy_charsEPcPKcS7_, symObjAddr: 0x2FCC, symBinAddr: 0x10000436C, symSize: 0x3C }
  - { offsetInCU: 0x29E8C, offset: 0x29E8C, size: 0x8, addend: 0x0, symName: __ZNSt7__cxx1112basic_stringIcSt11char_traitsIcESaIcEE9_M_createERmm, symObjAddr: 0x2EB8, symBinAddr: 0x100004258, symSize: 0xF4 }
  - { offsetInCU: 0x29E94, offset: 0x29E94, size: 0x8, addend: 0x0, symName: __ZNKSt7__cxx1112basic_stringIcSt11char_traitsIcESaIcEE13_M_local_dataEv, symObjAddr: 0x2FAC, symBinAddr: 0x10000434C, symSize: 0x20 }
  - { offsetInCU: 0x29F0A, offset: 0x29F0A, size: 0x8, addend: 0x0, symName: __ZNSt19__ptr_traits_ptr_toIPccLb0EE10pointer_toERc, symObjAddr: 0x2E9C, symBinAddr: 0x10000423C, symSize: 0x1C }
  - { offsetInCU: 0x29F12, offset: 0x29F12, size: 0x8, addend: 0x0, symName: __ZNSt7__cxx1112basic_stringIcSt11char_traitsIcESaIcEE9_M_createERmm, symObjAddr: 0x2EB8, symBinAddr: 0x100004258, symSize: 0xF4 }
  - { offsetInCU: 0x29F3B, offset: 0x29F3B, size: 0x8, addend: 0x0, symName: __ZNSt8_Rb_treeINSt7__cxx1112basic_stringIcSt11char_traitsIcESaIcEEES5_St9_IdentityIS5_ESt4lessIS5_ESaIS5_EE7_M_copyILb0ENSB_20_Reuse_or_alloc_nodeEEEPSt13_Rb_tree_nodeIS5_ERKSB_RT0_, symObjAddr: 0x2E08, symBinAddr: 0x1000041A8, symSize: 0x94 }
  - { offsetInCU: 0x29F43, offset: 0x29F43, size: 0x8, addend: 0x0, symName: __ZNSt19__ptr_traits_ptr_toIPccLb0EE10pointer_toERc, symObjAddr: 0x2E9C, symBinAddr: 0x10000423C, symSize: 0x1C }
  - { offsetInCU: 0x29FC4, offset: 0x29FC4, size: 0x8, addend: 0x0, symName: __ZNSt8_Rb_treeINSt7__cxx1112basic_stringIcSt11char_traitsIcESaIcEEES5_St9_IdentityIS5_ESt4lessIS5_ESaIS5_EE7_M_rootEv, symObjAddr: 0x2DF0, symBinAddr: 0x100004190, symSize: 0x18 }
  - { offsetInCU: 0x29FCC, offset: 0x29FCC, size: 0x8, addend: 0x0, symName: __ZNSt8_Rb_treeINSt7__cxx1112basic_stringIcSt11char_traitsIcESaIcEEES5_St9_IdentityIS5_ESt4lessIS5_ESaIS5_EE7_M_copyILb0ENSB_20_Reuse_or_alloc_nodeEEEPSt13_Rb_tree_nodeIS5_ERKSB_RT0_, symObjAddr: 0x2E08, symBinAddr: 0x1000041A8, symSize: 0x94 }
  - { offsetInCU: 0x29FF3, offset: 0x29FF3, size: 0x8, addend: 0x0, symName: __ZNKSt8_Rb_treeINSt7__cxx1112basic_stringIcSt11char_traitsIcESaIcEEES5_St9_IdentityIS5_ESt4lessIS5_ESaIS5_EE7_M_rootEv, symObjAddr: 0x2DD8, symBinAddr: 0x100004178, symSize: 0x18 }
  - { offsetInCU: 0x29FFB, offset: 0x29FFB, size: 0x8, addend: 0x0, symName: __ZNSt8_Rb_treeINSt7__cxx1112basic_stringIcSt11char_traitsIcESaIcEEES5_St9_IdentityIS5_ESt4lessIS5_ESaIS5_EE7_M_rootEv, symObjAddr: 0x2DF0, symBinAddr: 0x100004190, symSize: 0x18 }
  - { offsetInCU: 0x2A0CF, offset: 0x2A0CF, size: 0x8, addend: 0x0, symName: __ZNSt8_Rb_treeINSt7__cxx1112basic_stringIcSt11char_traitsIcESaIcEEES5_St9_IdentityIS5_ESt4lessIS5_ESaIS5_EE20_Reuse_or_alloc_nodeD1Ev, symObjAddr: 0x2DA4, symBinAddr: 0x100004144, symSize: 0x34 }
  - { offsetInCU: 0x2A0D7, offset: 0x2A0D7, size: 0x8, addend: 0x0, symName: __ZNKSt8_Rb_treeINSt7__cxx1112basic_stringIcSt11char_traitsIcESaIcEEES5_St9_IdentityIS5_ESt4lessIS5_ESaIS5_EE7_M_rootEv, symObjAddr: 0x2DD8, symBinAddr: 0x100004178, symSize: 0x18 }
  - { offsetInCU: 0x2A12D, offset: 0x2A12D, size: 0x8, addend: 0x0, symName: __ZNSt8_Rb_treeINSt7__cxx1112basic_stringIcSt11char_traitsIcESaIcEEES5_St9_IdentityIS5_ESt4lessIS5_ESaIS5_EE20_Reuse_or_alloc_nodeC1ERSB_, symObjAddr: 0x2D04, symBinAddr: 0x1000040A4, symSize: 0xA0 }
  - { offsetInCU: 0x2A135, offset: 0x2A135, size: 0x8, addend: 0x0, symName: __ZNSt8_Rb_treeINSt7__cxx1112basic_stringIcSt11char_traitsIcESaIcEEES5_St9_IdentityIS5_ESt4lessIS5_ESaIS5_EE20_Reuse_or_alloc_nodeD1Ev, symObjAddr: 0x2DA4, symBinAddr: 0x100004144, symSize: 0x34 }
  - { offsetInCU: 0x2A123, offset: 0x2A123, size: 0x8, addend: 0x0, symName: __ZNSt8_Rb_treeINSt7__cxx1112basic_stringIcSt11char_traitsIcESaIcEEES5_St9_IdentityIS5_ESt4lessIS5_ESaIS5_EE5clearEv, symObjAddr: 0x2CCC, symBinAddr: 0x10000406C, symSize: 0x38 }
  - { offsetInCU: 0x2A12B, offset: 0x2A12B, size: 0x8, addend: 0x0, symName: __ZNSt8_Rb_treeINSt7__cxx1112basic_stringIcSt11char_traitsIcESaIcEEES5_St9_IdentityIS5_ESt4lessIS5_ESaIS5_EE20_Reuse_or_alloc_nodeC1ERSB_, symObjAddr: 0x2D04, symBinAddr: 0x1000040A4, symSize: 0xA0 }
  - { offsetInCU: 0x2A17C, offset: 0x2A17C, size: 0x8, addend: 0x0, symName: __ZNKSt8_Rb_treeINSt7__cxx1112basic_stringIcSt11char_traitsIcESaIcEEES5_St9_IdentityIS5_ESt4lessIS5_ESaIS5_EE21_M_get_Node_allocatorEv, symObjAddr: 0x2CB8, symBinAddr: 0x100004058, symSize: 0x14 }
  - { offsetInCU: 0x2A184, offset: 0x2A184, size: 0x8, addend: 0x0, symName: __ZNSt8_Rb_treeINSt7__cxx1112basic_stringIcSt11char_traitsIcESaIcEEES5_St9_IdentityIS5_ESt4lessIS5_ESaIS5_EE5clearEv, symObjAddr: 0x2CCC, symBinAddr: 0x10000406C, symSize: 0x38 }
  - { offsetInCU: 0x2A1AB, offset: 0x2A1AB, size: 0x8, addend: 0x0, symName: __ZNSt8_Rb_treeINSt7__cxx1112basic_stringIcSt11char_traitsIcESaIcEEES5_St9_IdentityIS5_ESt4lessIS5_ESaIS5_EE21_M_get_Node_allocatorEv, symObjAddr: 0x2CA4, symBinAddr: 0x100004044, symSize: 0x14 }
  - { offsetInCU: 0x2A1B3, offset: 0x2A1B3, size: 0x8, addend: 0x0, symName: __ZNKSt8_Rb_treeINSt7__cxx1112basic_stringIcSt11char_traitsIcESaIcEEES5_St9_IdentityIS5_ESt4lessIS5_ESaIS5_EE21_M_get_Node_allocatorEv, symObjAddr: 0x2CB8, symBinAddr: 0x100004058, symSize: 0x14 }
  - { offsetInCU: 0x2A35D, offset: 0x2A35D, size: 0x8, addend: 0x0, symName: __ZSt11__addressofIKSt8_Rb_treeINSt7__cxx1112basic_stringIcSt11char_traitsIcESaIcEEES6_St9_IdentityIS6_ESt4lessIS6_ESaIS6_EEEPT_RSE_, symObjAddr: 0x2C90, symBinAddr: 0x100004030, symSize: 0x14 }
  - { offsetInCU: 0x2A365, offset: 0x2A365, size: 0x8, addend: 0x0, symName: __ZNSt8_Rb_treeINSt7__cxx1112basic_stringIcSt11char_traitsIcESaIcEEES5_St9_IdentityIS5_ESt4lessIS5_ESaIS5_EE21_M_get_Node_allocatorEv, symObjAddr: 0x2CA4, symBinAddr: 0x100004044, symSize: 0x14 }
  - { offsetInCU: 0x2A225, offset: 0x2A225, size: 0x8, addend: 0x0, symName: __ZN11__gnu_debug19_Safe_node_sequenceINSt7__debug3setINSt7__cxx1112basic_stringIcSt11char_traitsIcESaIcEEESt4lessIS8_ESaIS8_EEEE17_M_invalidate_allEv, symObjAddr: 0x2C3C, symBinAddr: 0x100003FDC, symSize: 0x54 }
  - { offsetInCU: 0x2A22D, offset: 0x2A22D, size: 0x8, addend: 0x0, symName: __ZSt11__addressofIKSt8_Rb_treeINSt7__cxx1112basic_stringIcSt11char_traitsIcESaIcEEES6_St9_IdentityIS6_ESt4lessIS6_ESaIS6_EEEPT_RSE_, symObjAddr: 0x2C90, symBinAddr: 0x100004030, symSize: 0x14 }
  - { offsetInCU: 0x2A3AB, offset: 0x2A3AB, size: 0x8, addend: 0x0, symName: __ZNSt4pairIN11__gnu_debug14_Safe_iteratorISt23_Rb_tree_const_iteratorINSt7__cxx1112basic_stringIcSt11char_traitsIcESaIcEEEENSt7__debug3setIS8_St4lessIS8_ESaIS8_EEESt26bidirectional_iterator_tagEEbEC1ISH_bLb1EEERKSH_RKb, symObjAddr: 0x2C00, symBinAddr: 0x100003FA0, symSize: 0x3C }
  - { offsetInCU: 0x2A3B3, offset: 0x2A3B3, size: 0x8, addend: 0x0, symName: __ZN11__gnu_debug19_Safe_node_sequenceINSt7__debug3setINSt7__cxx1112basic_stringIcSt11char_traitsIcESaIcEEESt4lessIS8_ESaIS8_EEEE17_M_invalidate_allEv, symObjAddr: 0x2C3C, symBinAddr: 0x100003FDC, symSize: 0x54 }
  - { offsetInCU: 0x2A336, offset: 0x2A336, size: 0x8, addend: 0x0, symName: __ZNSt9__cxx19983setINSt7__cxx1112basic_stringIcSt11char_traitsIcESaIcEEESt4lessIS6_ESaIS6_EE6insertEOS6_, symObjAddr: 0x2BAC, symBinAddr: 0x100003F4C, symSize: 0x54 }
  - { offsetInCU: 0x2A33E, offset: 0x2A33E, size: 0x8, addend: 0x0, symName: __ZNSt4pairIN11__gnu_debug14_Safe_iteratorISt23_Rb_tree_const_iteratorINSt7__cxx1112basic_stringIcSt11char_traitsIcESaIcEEEENSt7__debug3setIS8_St4lessIS8_ESaIS8_EEESt26bidirectional_iterator_tagEEbEC1ISH_bLb1EEERKSH_RKb, symObjAddr: 0x2C00, symBinAddr: 0x100003FA0, symSize: 0x3C }
  - { offsetInCU: 0x2A38F, offset: 0x2A38F, size: 0x8, addend: 0x0, symName: __ZNKSt23_Rb_tree_const_iteratorINSt7__cxx1112basic_stringIcSt11char_traitsIcESaIcEEEEdeEv, symObjAddr: 0x2B8C, symBinAddr: 0x100003F2C, symSize: 0x20 }
  - { offsetInCU: 0x2A397, offset: 0x2A397, size: 0x8, addend: 0x0, symName: __ZNSt9__cxx19983setINSt7__cxx1112basic_stringIcSt11char_traitsIcESaIcEEESt4lessIS6_ESaIS6_EE6insertEOS6_, symObjAddr: 0x2BAC, symBinAddr: 0x100003F4C, symSize: 0x54 }
  - { offsetInCU: 0x2A3BE, offset: 0x2A3BE, size: 0x8, addend: 0x0, symName: __ZN11__gnu_debug16_Error_formatter11_M_iteratorINS_14_Safe_iteratorISt23_Rb_tree_const_iteratorINSt7__cxx1112basic_stringIcSt11char_traitsIcESaIcEEEENSt7__debug3setIS9_St4lessIS9_ESaIS9_EEESt20forward_iterator_tagEEEERS0_RKT_PKc, symObjAddr: 0x2AF8, symBinAddr: 0x100003E98, symSize: 0x94 }
  - { offsetInCU: 0x2A3C6, offset: 0x2A3C6, size: 0x8, addend: 0x0, symName: __ZNKSt23_Rb_tree_const_iteratorINSt7__cxx1112basic_stringIcSt11char_traitsIcESaIcEEEEdeEv, symObjAddr: 0x2B8C, symBinAddr: 0x100003F2C, symSize: 0x20 }
  - { offsetInCU: 0x2A427, offset: 0x2A427, size: 0x8, addend: 0x0, symName: __ZNK11__gnu_debug14_Safe_iteratorISt23_Rb_tree_const_iteratorINSt7__cxx1112basic_stringIcSt11char_traitsIcESaIcEEEENSt7__debug3setIS7_St4lessIS7_ESaIS7_EEESt20forward_iterator_tagE18_M_dereferenceableEv, symObjAddr: 0x2A74, symBinAddr: 0x100003E14, symSize: 0x84 }
  - { offsetInCU: 0x2A42F, offset: 0x2A42F, size: 0x8, addend: 0x0, symName: __ZN11__gnu_debug16_Error_formatter11_M_iteratorINS_14_Safe_iteratorISt23_Rb_tree_const_iteratorINSt7__cxx1112basic_stringIcSt11char_traitsIcESaIcEEEENSt7__debug3setIS9_St4lessIS9_ESaIS9_EEESt20forward_iterator_tagEEEERS0_RKT_PKc, symObjAddr: 0x2AF8, symBinAddr: 0x100003E98, symSize: 0x94 }
  - { offsetInCU: 0x2A456, offset: 0x2A456, size: 0x8, addend: 0x0, symName: __ZN11__gnu_debug14_Safe_iteratorISt23_Rb_tree_const_iteratorINSt7__cxx1112basic_stringIcSt11char_traitsIcESaIcEEEENSt7__debug3setIS7_St4lessIS7_ESaIS7_EEESt20forward_iterator_tagEppEv, symObjAddr: 0x2970, symBinAddr: 0x100003D10, symSize: 0x104 }
  - { offsetInCU: 0x2A45E, offset: 0x2A45E, size: 0x8, addend: 0x0, symName: __ZNK11__gnu_debug14_Safe_iteratorISt23_Rb_tree_const_iteratorINSt7__cxx1112basic_stringIcSt11char_traitsIcESaIcEEEENSt7__debug3setIS7_St4lessIS7_ESaIS7_EEESt20forward_iterator_tagE18_M_dereferenceableEv, symObjAddr: 0x2A74, symBinAddr: 0x100003E14, symSize: 0x84 }
  - { offsetInCU: 0x2A539, offset: 0x2A539, size: 0x8, addend: 0x0, symName: __ZStneRKSt23_Rb_tree_const_iteratorINSt7__cxx1112basic_stringIcSt11char_traitsIcESaIcEEEES8_, symObjAddr: 0x2940, symBinAddr: 0x100003CE0, symSize: 0x30 }
  - { offsetInCU: 0x2A541, offset: 0x2A541, size: 0x8, addend: 0x0, symName: __ZN11__gnu_debug14_Safe_iteratorISt23_Rb_tree_const_iteratorINSt7__cxx1112basic_stringIcSt11char_traitsIcESaIcEEEENSt7__debug3setIS7_St4lessIS7_ESaIS7_EEESt20forward_iterator_tagEppEv, symObjAddr: 0x2970, symBinAddr: 0x100003D10, symSize: 0x104 }
  - { offsetInCU: 0x2A528, offset: 0x2A528, size: 0x8, addend: 0x0, symName: __ZNK11__gnu_debug14_Safe_iteratorISt23_Rb_tree_const_iteratorINSt7__cxx1112basic_stringIcSt11char_traitsIcESaIcEEEENSt7__debug3setIS7_St4lessIS7_ESaIS7_EEESt20forward_iterator_tagE4baseEv, symObjAddr: 0x292C, symBinAddr: 0x100003CCC, symSize: 0x14 }
  - { offsetInCU: 0x2A530, offset: 0x2A530, size: 0x8, addend: 0x0, symName: __ZStneRKSt23_Rb_tree_const_iteratorINSt7__cxx1112basic_stringIcSt11char_traitsIcESaIcEEEES8_, symObjAddr: 0x2940, symBinAddr: 0x100003CE0, symSize: 0x30 }
  - { offsetInCU: 0x2A557, offset: 0x2A557, size: 0x8, addend: 0x0, symName: __ZN11__gnu_debug16_Error_formatter11_M_iteratorINS_14_Safe_iteratorISt23_Rb_tree_const_iteratorINSt7__cxx1112basic_stringIcSt11char_traitsIcESaIcEEEENSt7__debug3setIS9_St4lessIS9_ESaIS9_EEESt26bidirectional_iterator_tagEEEERS0_RKT_PKc, symObjAddr: 0x2898, symBinAddr: 0x100003C38, symSize: 0x94 }
  - { offsetInCU: 0x2A55F, offset: 0x2A55F, size: 0x8, addend: 0x0, symName: __ZNK11__gnu_debug14_Safe_iteratorISt23_Rb_tree_const_iteratorINSt7__cxx1112basic_stringIcSt11char_traitsIcESaIcEEEENSt7__debug3setIS7_St4lessIS7_ESaIS7_EEESt20forward_iterator_tagE4baseEv, symObjAddr: 0x292C, symBinAddr: 0x100003CCC, symSize: 0x14 }
  - { offsetInCU: 0x2A5C0, offset: 0x2A5C0, size: 0x8, addend: 0x0, symName: __ZNK11__gnu_debug14_Safe_iteratorISt23_Rb_tree_const_iteratorINSt7__cxx1112basic_stringIcSt11char_traitsIcESaIcEEEENSt7__debug3setIS7_St4lessIS7_ESaIS7_EEESt20forward_iterator_tagE20_M_value_initializedEv, symObjAddr: 0x282C, symBinAddr: 0x100003BCC, symSize: 0x6C }
  - { offsetInCU: 0x2A5C8, offset: 0x2A5C8, size: 0x8, addend: 0x0, symName: __ZN11__gnu_debug16_Error_formatter11_M_iteratorINS_14_Safe_iteratorISt23_Rb_tree_const_iteratorINSt7__cxx1112basic_stringIcSt11char_traitsIcESaIcEEEENSt7__debug3setIS9_St4lessIS9_ESaIS9_EEESt26bidirectional_iterator_tagEEEERS0_RKT_PKc, symObjAddr: 0x2898, symBinAddr: 0x100003C38, symSize: 0x94 }
  - { offsetInCU: 0x2A5EF, offset: 0x2A5EF, size: 0x8, addend: 0x0, symName: __ZNKSt9__cxx19983setINSt7__cxx1112basic_stringIcSt11char_traitsIcESaIcEEESt4lessIS6_ESaIS6_EE3endEv, symObjAddr: 0x2810, symBinAddr: 0x100003BB0, symSize: 0x1C }
  - { offsetInCU: 0x2A5F7, offset: 0x2A5F7, size: 0x8, addend: 0x0, symName: __ZNK11__gnu_debug14_Safe_iteratorISt23_Rb_tree_const_iteratorINSt7__cxx1112basic_stringIcSt11char_traitsIcESaIcEEEENSt7__debug3setIS7_St4lessIS7_ESaIS7_EEESt20forward_iterator_tagE20_M_value_initializedEv, symObjAddr: 0x282C, symBinAddr: 0x100003BCC, symSize: 0x6C }
  - { offsetInCU: 0x2A736, offset: 0x2A736, size: 0x8, addend: 0x0, symName: __ZN11__gnu_debug14_Safe_iteratorISt23_Rb_tree_const_iteratorINSt7__cxx1112basic_stringIcSt11char_traitsIcESaIcEEEENSt7__debug3setIS7_St4lessIS7_ESaIS7_EEESt26bidirectional_iterator_tagEC1ES8_PKNS_19_Safe_sequence_baseE, symObjAddr: 0x27E0, symBinAddr: 0x100003B80, symSize: 0x30 }
  - { offsetInCU: 0x2A73E, offset: 0x2A73E, size: 0x8, addend: 0x0, symName: __ZNKSt9__cxx19983setINSt7__cxx1112basic_stringIcSt11char_traitsIcESaIcEEESt4lessIS6_ESaIS6_EE3endEv, symObjAddr: 0x2810, symBinAddr: 0x100003BB0, symSize: 0x1C }
  - { offsetInCU: 0x2A6A5, offset: 0x2A6A5, size: 0x8, addend: 0x0, symName: __ZNKSt9__cxx19983setINSt7__cxx1112basic_stringIcSt11char_traitsIcESaIcEEESt4lessIS6_ESaIS6_EE5beginEv, symObjAddr: 0x27C4, symBinAddr: 0x100003B64, symSize: 0x1C }
  - { offsetInCU: 0x2A6AD, offset: 0x2A6AD, size: 0x8, addend: 0x0, symName: __ZN11__gnu_debug14_Safe_iteratorISt23_Rb_tree_const_iteratorINSt7__cxx1112basic_stringIcSt11char_traitsIcESaIcEEEENSt7__debug3setIS7_St4lessIS7_ESaIS7_EEESt26bidirectional_iterator_tagEC1ES8_PKNS_19_Safe_sequence_baseE, symObjAddr: 0x27E0, symBinAddr: 0x100003B80, symSize: 0x30 }
  - { offsetInCU: 0x2A75F, offset: 0x2A75F, size: 0x8, addend: 0x0, symName: __ZNSt15__new_allocatorISt13_Rb_tree_nodeINSt7__cxx1112basic_stringIcSt11char_traitsIcESaIcEEEEED2Ev, symObjAddr: 0x27B0, symBinAddr: 0x100003B50, symSize: 0x14 }
  - { offsetInCU: 0x2A767, offset: 0x2A767, size: 0x8, addend: 0x0, symName: __ZNKSt9__cxx19983setINSt7__cxx1112basic_stringIcSt11char_traitsIcESaIcEEESt4lessIS6_ESaIS6_EE5beginEv, symObjAddr: 0x27C4, symBinAddr: 0x100003B64, symSize: 0x1C }
  - { offsetInCU: 0x2A7A3, offset: 0x2A7A3, size: 0x8, addend: 0x0, symName: __ZNSt20_Rb_tree_key_compareISt4lessINSt7__cxx1112basic_stringIcSt11char_traitsIcESaIcEEEEEC2Ev, symObjAddr: 0x279C, symBinAddr: 0x100003B3C, symSize: 0x14 }
  - { offsetInCU: 0x2A7AB, offset: 0x2A7AB, size: 0x8, addend: 0x0, symName: __ZNSt15__new_allocatorISt13_Rb_tree_nodeINSt7__cxx1112basic_stringIcSt11char_traitsIcESaIcEEEEED2Ev, symObjAddr: 0x27B0, symBinAddr: 0x100003B50, symSize: 0x14 }
  - { offsetInCU: 0x2A78D, offset: 0x2A78D, size: 0x8, addend: 0x0, symName: __ZNSt8_Rb_treeINSt7__cxx1112basic_stringIcSt11char_traitsIcESaIcEEES5_St9_IdentityIS5_ESt4lessIS5_ESaIS5_EE8_M_beginEv, symObjAddr: 0x2780, symBinAddr: 0x100003B20, symSize: 0x1C }
  - { offsetInCU: 0x2A795, offset: 0x2A795, size: 0x8, addend: 0x0, symName: __ZNSt20_Rb_tree_key_compareISt4lessINSt7__cxx1112basic_stringIcSt11char_traitsIcESaIcEEEEEC2Ev, symObjAddr: 0x279C, symBinAddr: 0x100003B3C, symSize: 0x14 }
  - { offsetInCU: 0x2A7BC, offset: 0x2A7BC, size: 0x8, addend: 0x0, symName: __ZNSt8_Rb_treeINSt7__cxx1112basic_stringIcSt11char_traitsIcESaIcEEES5_St9_IdentityIS5_ESt4lessIS5_ESaIS5_EE8_M_eraseEPSt13_Rb_tree_nodeIS5_E, symObjAddr: 0x271C, symBinAddr: 0x100003ABC, symSize: 0x64 }
  - { offsetInCU: 0x2A7C4, offset: 0x2A7C4, size: 0x8, addend: 0x0, symName: __ZNSt8_Rb_treeINSt7__cxx1112basic_stringIcSt11char_traitsIcESaIcEEES5_St9_IdentityIS5_ESt4lessIS5_ESaIS5_EE8_M_beginEv, symObjAddr: 0x2780, symBinAddr: 0x100003B20, symSize: 0x1C }
  - { offsetInCU: 0x2A904, offset: 0x2A904, size: 0x8, addend: 0x0, symName: __ZNSt9__cxx19983setINSt7__cxx1112basic_stringIcSt11char_traitsIcESaIcEEESt4lessIS6_ESaIS6_EEC2IPKPKcEET_SG_RKS8_RKS9_, symObjAddr: 0x266C, symBinAddr: 0x100003A0C, symSize: 0xB0 }
  - { offsetInCU: 0x2A90C, offset: 0x2A90C, size: 0x8, addend: 0x0, symName: __ZNSt8_Rb_treeINSt7__cxx1112basic_stringIcSt11char_traitsIcESaIcEEES5_St9_IdentityIS5_ESt4lessIS5_ESaIS5_EE8_M_eraseEPSt13_Rb_tree_nodeIS5_E, symObjAddr: 0x271C, symBinAddr: 0x100003ABC, symSize: 0x64 }
  - { offsetInCU: 0x2A9F7, offset: 0x2A9F7, size: 0x8, addend: 0x0, symName: __ZN11__gnu_debug6__baseIPKPKcEET_S5_, symObjAddr: 0x2658, symBinAddr: 0x1000039F8, symSize: 0x14 }
  - { offsetInCU: 0x2A9FF, offset: 0x2A9FF, size: 0x8, addend: 0x0, symName: __ZNSt9__cxx19983setINSt7__cxx1112basic_stringIcSt11char_traitsIcESaIcEEESt4lessIS6_ESaIS6_EEC2IPKPKcEET_SG_RKS8_RKS9_, symObjAddr: 0x266C, symBinAddr: 0x100003A0C, symSize: 0xB0 }
  - { offsetInCU: 0x2AA6A, offset: 0x2AA6A, size: 0x8, addend: 0x0, symName: __ZN11__gnu_debug19__check_valid_rangeIPKPKcEET_RKS5_S7_S2_jS2_, symObjAddr: 0x2540, symBinAddr: 0x1000038E0, symSize: 0x118 }
  - { offsetInCU: 0x2AA72, offset: 0x2AA72, size: 0x8, addend: 0x0, symName: __ZN11__gnu_debug6__baseIPKPKcEET_S5_, symObjAddr: 0x2658, symBinAddr: 0x1000039F8, symSize: 0x14 }
  - { offsetInCU: 0x2AB0E, offset: 0x2AB0E, size: 0x8, addend: 0x0, symName: __ZNSt15__new_allocatorINSt7__cxx1112basic_stringIcSt11char_traitsIcESaIcEEEED2Ev, symObjAddr: 0x252C, symBinAddr: 0x1000038CC, symSize: 0x14 }
  - { offsetInCU: 0x2AB16, offset: 0x2AB16, size: 0x8, addend: 0x0, symName: __ZN11__gnu_debug19__check_valid_rangeIPKPKcEET_RKS5_S7_S2_jS2_, symObjAddr: 0x2540, symBinAddr: 0x1000038E0, symSize: 0x118 }
  - { offsetInCU: 0x2AB0B, offset: 0x2AB0B, size: 0x8, addend: 0x0, symName: __ZNSt7__cxx1112basic_stringIcSt11char_traitsIcESaIcEE7reserveEm, symObjAddr: 0x2484, symBinAddr: 0x100003824, symSize: 0xA8 }
  - { offsetInCU: 0x2AB13, offset: 0x2AB13, size: 0x8, addend: 0x0, symName: __ZNSt15__new_allocatorINSt7__cxx1112basic_stringIcSt11char_traitsIcESaIcEEEED2Ev, symObjAddr: 0x252C, symBinAddr: 0x1000038CC, symSize: 0x14 }
  - { offsetInCU: 0x2ABE2, offset: 0x2ABE2, size: 0x8, addend: 0x0, symName: __ZNSt7__cxx1112basic_stringIcSt11char_traitsIcESaIcEEC1ERKS3_, symObjAddr: 0x2424, symBinAddr: 0x1000037C4, symSize: 0x60 }
  - { offsetInCU: 0x2ABEA, offset: 0x2ABEA, size: 0x8, addend: 0x0, symName: __ZNSt7__cxx1112basic_stringIcSt11char_traitsIcESaIcEE7reserveEm, symObjAddr: 0x2484, symBinAddr: 0x100003824, symSize: 0xA8 }
  - { offsetInCU: 0x2AC09, offset: 0x2AC09, size: 0x8, addend: 0x0, symName: __ZNKSt7__cxx1112basic_stringIcSt11char_traitsIcESaIcEE4dataEv, symObjAddr: 0x2408, symBinAddr: 0x1000037A8, symSize: 0x1C }
  - { offsetInCU: 0x2AC11, offset: 0x2AC11, size: 0x8, addend: 0x0, symName: __ZNSt7__cxx1112basic_stringIcSt11char_traitsIcESaIcEEC1ERKS3_, symObjAddr: 0x2424, symBinAddr: 0x1000037C4, symSize: 0x60 }
  - { offsetInCU: 0x2AC38, offset: 0x2AC38, size: 0x8, addend: 0x0, symName: __ZNSt7__cxx1112basic_stringIcSt11char_traitsIcESaIcEE7_S_copyEPcPKcm, symObjAddr: 0x23BC, symBinAddr: 0x10000375C, symSize: 0x4C }
  - { offsetInCU: 0x2AC40, offset: 0x2AC40, size: 0x8, addend: 0x0, symName: __ZNKSt7__cxx1112basic_stringIcSt11char_traitsIcESaIcEE4dataEv, symObjAddr: 0x2408, symBinAddr: 0x1000037A8, symSize: 0x1C }
  - { offsetInCU: 0x2AC95, offset: 0x2AC95, size: 0x8, addend: 0x0, symName: __ZNSt7__cxx1112basic_stringIcSt11char_traitsIcESaIcEE10_M_destroyEm, symObjAddr: 0x2358, symBinAddr: 0x1000036F8, symSize: 0x64 }
  - { offsetInCU: 0x2AC9D, offset: 0x2AC9D, size: 0x8, addend: 0x0, symName: __ZNSt7__cxx1112basic_stringIcSt11char_traitsIcESaIcEE7_S_copyEPcPKcm, symObjAddr: 0x23BC, symBinAddr: 0x10000375C, symSize: 0x4C }
  - { offsetInCU: 0x2AD1B, offset: 0x2AD1B, size: 0x8, addend: 0x0, symName: __ZNSt7__cxx1112basic_stringIcSt11char_traitsIcESaIcEE12_M_constructIPcEEvT_S7_St20forward_iterator_tag, symObjAddr: 0x2270, symBinAddr: 0x100003610, symSize: 0xE8 }
  - { offsetInCU: 0x2AD23, offset: 0x2AD23, size: 0x8, addend: 0x0, symName: __ZNSt7__cxx1112basic_stringIcSt11char_traitsIcESaIcEE10_M_destroyEm, symObjAddr: 0x2358, symBinAddr: 0x1000036F8, symSize: 0x64 }
  - { offsetInCU: 0x2AED4, offset: 0x2AED4, size: 0x8, addend: 0x0, symName: __ZZNSt7__cxx1112basic_stringIcSt11char_traitsIcESaIcEE12_M_constructIPcEEvT_S7_St20forward_iterator_tagEN6_GuardC1EPS4_, symObjAddr: 0x2218, symBinAddr: 0x1000035B8, symSize: 0x24 }
  - { offsetInCU: 0x2AEDC, offset: 0x2AEDC, size: 0x8, addend: 0x0, symName: __ZZNSt7__cxx1112basic_stringIcSt11char_traitsIcESaIcEE12_M_constructIPcEEvT_S7_St20forward_iterator_tagEN6_GuardD1Ev, symObjAddr: 0x223C, symBinAddr: 0x1000035DC, symSize: 0x34 }
  - { offsetInCU: 0x2AF0F, offset: 0x2AF0F, size: 0x8, addend: 0x0, symName: __ZZNSt7__cxx1112basic_stringIcSt11char_traitsIcESaIcEE12_M_constructIPcEEvT_S7_St20forward_iterator_tagEN6_GuardD1Ev, symObjAddr: 0x223C, symBinAddr: 0x1000035DC, symSize: 0x34 }
  - { offsetInCU: 0x2AF17, offset: 0x2AF17, size: 0x8, addend: 0x0, symName: __ZNSt7__cxx1112basic_stringIcSt11char_traitsIcESaIcEE12_M_constructIPcEEvT_S7_St20forward_iterator_tag, symObjAddr: 0x2270, symBinAddr: 0x100003610, symSize: 0xE8 }
  - { offsetInCU: 0x2AFBD, offset: 0x2AFBD, size: 0x8, addend: 0x0, symName: __ZNKSt7__cxx1112basic_stringIcSt11char_traitsIcESaIcEE16_M_get_allocatorEv, symObjAddr: 0x2204, symBinAddr: 0x1000035A4, symSize: 0x14 }
  - { offsetInCU: 0x2AFC5, offset: 0x2AFC5, size: 0x8, addend: 0x0, symName: __ZZNSt7__cxx1112basic_stringIcSt11char_traitsIcESaIcEE12_M_constructIPcEEvT_S7_St20forward_iterator_tagEN6_GuardC1EPS4_, symObjAddr: 0x2218, symBinAddr: 0x1000035B8, symSize: 0x24 }
  - { offsetInCU: 0x2B005, offset: 0x2B005, size: 0x8, addend: 0x0, symName: __ZNKSt7__cxx1112basic_stringIcSt11char_traitsIcESaIcEE8capacityEv, symObjAddr: 0x21C8, symBinAddr: 0x100003568, symSize: 0x3C }
  - { offsetInCU: 0x2B00D, offset: 0x2B00D, size: 0x8, addend: 0x0, symName: __ZNKSt7__cxx1112basic_stringIcSt11char_traitsIcESaIcEE16_M_get_allocatorEv, symObjAddr: 0x2204, symBinAddr: 0x1000035A4, symSize: 0x14 }
  - { offsetInCU: 0x2B0F4, offset: 0x2B0F4, size: 0x8, addend: 0x0, symName: __ZSt12__str_concatINSt7__cxx1112basic_stringIcSt11char_traitsIcESaIcEEEET_PKNS6_10value_typeENS6_9size_typeES9_SA_RKNS6_14allocator_typeE, symObjAddr: 0x20E8, symBinAddr: 0x100003488, symSize: 0xE0 }
  - { offsetInCU: 0x2B0FC, offset: 0x2B0FC, size: 0x8, addend: 0x0, symName: __ZNKSt7__cxx1112basic_stringIcSt11char_traitsIcESaIcEE8capacityEv, symObjAddr: 0x21C8, symBinAddr: 0x100003568, symSize: 0x3C }
  - { offsetInCU: 0x2B1D9, offset: 0x2B1D9, size: 0x8, addend: 0x0, symName: __ZNKSt7__cxx1112basic_stringIcSt11char_traitsIcESaIcEE13get_allocatorEv, symObjAddr: 0x2098, symBinAddr: 0x100003438, symSize: 0x50 }
  - { offsetInCU: 0x2B1E1, offset: 0x2B1E1, size: 0x8, addend: 0x0, symName: __ZSt12__str_concatINSt7__cxx1112basic_stringIcSt11char_traitsIcESaIcEEEET_PKNS6_10value_typeENS6_9size_typeES9_SA_RKNS6_14allocator_typeE, symObjAddr: 0x20E8, symBinAddr: 0x100003488, symSize: 0xE0 }
  - { offsetInCU: 0x2B2B8, offset: 0x2B2B8, size: 0x8, addend: 0x0, symName: __ZSt7forwardIbEOT_RNSt16remove_referenceIS0_E4typeE, symObjAddr: 0x2084, symBinAddr: 0x100003424, symSize: 0x14 }
  - { offsetInCU: 0x2B2C0, offset: 0x2B2C0, size: 0x8, addend: 0x0, symName: __ZNKSt7__cxx1112basic_stringIcSt11char_traitsIcESaIcEE13get_allocatorEv, symObjAddr: 0x2098, symBinAddr: 0x100003438, symSize: 0x50 }
  - { offsetInCU: 0x2B2C7, offset: 0x2B2C7, size: 0x8, addend: 0x0, symName: __ZNSt7__cxx1112basic_stringIcSt11char_traitsIcESaIcEE12_M_constructIPKcEEvT_S8_St20forward_iterator_tag, symObjAddr: 0x1F9C, symBinAddr: 0x10000333C, symSize: 0xE8 }
  - { offsetInCU: 0x2B2CF, offset: 0x2B2CF, size: 0x8, addend: 0x0, symName: __ZSt7forwardIbEOT_RNSt16remove_referenceIS0_E4typeE, symObjAddr: 0x2084, symBinAddr: 0x100003424, symSize: 0x14 }
  - { offsetInCU: 0x2B481, offset: 0x2B481, size: 0x8, addend: 0x0, symName: __ZZNSt7__cxx1112basic_stringIcSt11char_traitsIcESaIcEE12_M_constructIPKcEEvT_S8_St20forward_iterator_tagEN6_GuardC1EPS4_, symObjAddr: 0x1F44, symBinAddr: 0x1000032E4, symSize: 0x24 }
  - { offsetInCU: 0x2B489, offset: 0x2B489, size: 0x8, addend: 0x0, symName: __ZZNSt7__cxx1112basic_stringIcSt11char_traitsIcESaIcEE12_M_constructIPKcEEvT_S8_St20forward_iterator_tagEN6_GuardD1Ev, symObjAddr: 0x1F68, symBinAddr: 0x100003308, symSize: 0x34 }
  - { offsetInCU: 0x2B4BC, offset: 0x2B4BC, size: 0x8, addend: 0x0, symName: __ZZNSt7__cxx1112basic_stringIcSt11char_traitsIcESaIcEE12_M_constructIPKcEEvT_S8_St20forward_iterator_tagEN6_GuardD1Ev, symObjAddr: 0x1F68, symBinAddr: 0x100003308, symSize: 0x34 }
  - { offsetInCU: 0x2B4C4, offset: 0x2B4C4, size: 0x8, addend: 0x0, symName: __ZNSt7__cxx1112basic_stringIcSt11char_traitsIcESaIcEE12_M_constructIPKcEEvT_S8_St20forward_iterator_tag, symObjAddr: 0x1F9C, symBinAddr: 0x10000333C, symSize: 0xE8 }
  - { offsetInCU: 0x2B54E, offset: 0x2B54E, size: 0x8, addend: 0x0, symName: __ZNSt7__cxx1112basic_stringIcSt11char_traitsIcESaIcEE13_M_set_lengthEm, symObjAddr: 0x1EFC, symBinAddr: 0x10000329C, symSize: 0x48 }
  - { offsetInCU: 0x2B556, offset: 0x2B556, size: 0x8, addend: 0x0, symName: __ZZNSt7__cxx1112basic_stringIcSt11char_traitsIcESaIcEE12_M_constructIPKcEEvT_S8_St20forward_iterator_tagEN6_GuardC1EPS4_, symObjAddr: 0x1F44, symBinAddr: 0x1000032E4, symSize: 0x24 }
  - { offsetInCU: 0x2B590, offset: 0x2B590, size: 0x8, addend: 0x0, symName: __ZNSt7__cxx1112basic_stringIcSt11char_traitsIcESaIcEE9_M_lengthEm, symObjAddr: 0x1ED8, symBinAddr: 0x100003278, symSize: 0x24 }
  - { offsetInCU: 0x2B598, offset: 0x2B598, size: 0x8, addend: 0x0, symName: __ZNSt7__cxx1112basic_stringIcSt11char_traitsIcESaIcEE13_M_set_lengthEm, symObjAddr: 0x1EFC, symBinAddr: 0x10000329C, symSize: 0x48 }
  - { offsetInCU: 0x2B5D2, offset: 0x2B5D2, size: 0x8, addend: 0x0, symName: __ZNSt7__cxx1112basic_stringIcSt11char_traitsIcESaIcEE11_M_capacityEm, symObjAddr: 0x1EB4, symBinAddr: 0x100003254, symSize: 0x24 }
  - { offsetInCU: 0x2B5DA, offset: 0x2B5DA, size: 0x8, addend: 0x0, symName: __ZNSt7__cxx1112basic_stringIcSt11char_traitsIcESaIcEE9_M_lengthEm, symObjAddr: 0x1ED8, symBinAddr: 0x100003278, symSize: 0x24 }
  - { offsetInCU: 0x2B614, offset: 0x2B614, size: 0x8, addend: 0x0, symName: __ZNSt7__cxx1112basic_stringIcSt11char_traitsIcESaIcEE7_M_dataEPc, symObjAddr: 0x1E90, symBinAddr: 0x100003230, symSize: 0x24 }
  - { offsetInCU: 0x2B61C, offset: 0x2B61C, size: 0x8, addend: 0x0, symName: __ZNSt7__cxx1112basic_stringIcSt11char_traitsIcESaIcEE11_M_capacityEm, symObjAddr: 0x1EB4, symBinAddr: 0x100003254, symSize: 0x24 }
  - { offsetInCU: 0x2B656, offset: 0x2B656, size: 0x8, addend: 0x0, symName: __ZNKSt7__cxx1112basic_stringIcSt11char_traitsIcESaIcEE6lengthEv, symObjAddr: 0x1E78, symBinAddr: 0x100003218, symSize: 0x18 }
  - { offsetInCU: 0x2B65E, offset: 0x2B65E, size: 0x8, addend: 0x0, symName: __ZNSt7__cxx1112basic_stringIcSt11char_traitsIcESaIcEE7_M_dataEPc, symObjAddr: 0x1E90, symBinAddr: 0x100003230, symSize: 0x24 }
  - { offsetInCU: 0x2B685, offset: 0x2B685, size: 0x8, addend: 0x0, symName: __ZNKSt7__cxx1112basic_stringIcSt11char_traitsIcESaIcEE11_M_is_localEv, symObjAddr: 0x1E18, symBinAddr: 0x1000031B8, symSize: 0x60 }
  - { offsetInCU: 0x2B68D, offset: 0x2B68D, size: 0x8, addend: 0x0, symName: __ZNKSt7__cxx1112basic_stringIcSt11char_traitsIcESaIcEE6lengthEv, symObjAddr: 0x1E78, symBinAddr: 0x100003218, symSize: 0x18 }
  - { offsetInCU: 0x2B73A, offset: 0x2B73A, size: 0x8, addend: 0x0, symName: __ZNSt7__cxx1112basic_stringIcSt11char_traitsIcESaIcEE12_Alloc_hiderC1EPcOS3_, symObjAddr: 0x1DBC, symBinAddr: 0x10000315C, symSize: 0x5C }
  - { offsetInCU: 0x2B742, offset: 0x2B742, size: 0x8, addend: 0x0, symName: __ZNKSt7__cxx1112basic_stringIcSt11char_traitsIcESaIcEE11_M_is_localEv, symObjAddr: 0x1E18, symBinAddr: 0x1000031B8, symSize: 0x60 }
  - { offsetInCU: 0x2B7F7, offset: 0x2B7F7, size: 0x8, addend: 0x0, symName: __ZSt4moveIRSaIcEEONSt16remove_referenceIT_E4typeEOS3_, symObjAddr: 0x1DA8, symBinAddr: 0x100003148, symSize: 0x14 }
  - { offsetInCU: 0x2B7FF, offset: 0x2B7FF, size: 0x8, addend: 0x0, symName: __ZNSt7__cxx1112basic_stringIcSt11char_traitsIcESaIcEE12_Alloc_hiderC1EPcOS3_, symObjAddr: 0x1DBC, symBinAddr: 0x10000315C, symSize: 0x5C }
  - { offsetInCU: 0x2B7F6, offset: 0x2B7F6, size: 0x8, addend: 0x0, symName: __ZNSt7__cxx1112basic_stringIcSt11char_traitsIcESaIcEE16_M_get_allocatorEv, symObjAddr: 0x1D94, symBinAddr: 0x100003134, symSize: 0x14 }
  - { offsetInCU: 0x2B7FE, offset: 0x2B7FE, size: 0x8, addend: 0x0, symName: __ZSt4moveIRSaIcEEONSt16remove_referenceIT_E4typeEOS3_, symObjAddr: 0x1DA8, symBinAddr: 0x100003148, symSize: 0x14 }
  - { offsetInCU: 0x2B825, offset: 0x2B825, size: 0x8, addend: 0x0, symName: __ZNSt7__cxx1112basic_stringIcSt11char_traitsIcESaIcEE10_M_disposeEv, symObjAddr: 0x1D48, symBinAddr: 0x1000030E8, symSize: 0x4C }
  - { offsetInCU: 0x2B82D, offset: 0x2B82D, size: 0x8, addend: 0x0, symName: __ZNSt7__cxx1112basic_stringIcSt11char_traitsIcESaIcEE16_M_get_allocatorEv, symObjAddr: 0x1D94, symBinAddr: 0x100003134, symSize: 0x14 }
  - { offsetInCU: 0x2B8DB, offset: 0x2B8DB, size: 0x8, addend: 0x0, symName: __ZNSt7__cxx1112basic_stringIcSt11char_traitsIcESaIcEE12_Alloc_hiderC1EPcRKS3_, symObjAddr: 0x1CF8, symBinAddr: 0x100003098, symSize: 0x50 }
  - { offsetInCU: 0x2B8E3, offset: 0x2B8E3, size: 0x8, addend: 0x0, symName: __ZNSt7__cxx1112basic_stringIcSt11char_traitsIcESaIcEE10_M_disposeEv, symObjAddr: 0x1D48, symBinAddr: 0x1000030E8, symSize: 0x4C }
  - { offsetInCU: 0x2B941, offset: 0x2B941, size: 0x8, addend: 0x0, symName: __ZNSt7__cxx1112basic_stringIcSt11char_traitsIcESaIcEE13_M_local_dataEv, symObjAddr: 0x1CD8, symBinAddr: 0x100003078, symSize: 0x20 }
  - { offsetInCU: 0x2B949, offset: 0x2B949, size: 0x8, addend: 0x0, symName: __ZNSt7__cxx1112basic_stringIcSt11char_traitsIcESaIcEE12_Alloc_hiderC1EPcRKS3_, symObjAddr: 0x1CF8, symBinAddr: 0x100003098, symSize: 0x50 }
  - { offsetInCU: 0x2B9B5, offset: 0x2B9B5, size: 0x8, addend: 0x0, symName: __ZNSt15__new_allocatorIcED2Ev, symObjAddr: 0x1CC4, symBinAddr: 0x100003064, symSize: 0x14 }
  - { offsetInCU: 0x2B9BD, offset: 0x2B9BD, size: 0x8, addend: 0x0, symName: __ZNSt7__cxx1112basic_stringIcSt11char_traitsIcESaIcEE13_M_local_dataEv, symObjAddr: 0x1CD8, symBinAddr: 0x100003078, symSize: 0x20 }
  - { offsetInCU: 0x2B9E0, offset: 0x2B9E0, size: 0x8, addend: 0x0, symName: __ZNKSt7__cxx1112basic_stringIcSt11char_traitsIcESaIcEE7_M_dataEv, symObjAddr: 0x1CAC, symBinAddr: 0x10000304C, symSize: 0x18 }
  - { offsetInCU: 0x2B9E8, offset: 0x2B9E8, size: 0x8, addend: 0x0, symName: __ZNSt15__new_allocatorIcED2Ev, symObjAddr: 0x1CC4, symBinAddr: 0x100003064, symSize: 0x14 }
  - { offsetInCU: 0x2BA0F, offset: 0x2BA0F, size: 0x8, addend: 0x0, symName: __ZN9__gnu_cxx11char_traitsIcE2eqERKcS3_, symObjAddr: 0x1C7C, symBinAddr: 0x10000301C, symSize: 0x30 }
  - { offsetInCU: 0x2BA17, offset: 0x2BA17, size: 0x8, addend: 0x0, symName: __ZNKSt7__cxx1112basic_stringIcSt11char_traitsIcESaIcEE7_M_dataEv, symObjAddr: 0x1CAC, symBinAddr: 0x10000304C, symSize: 0x18 }
  - { offsetInCU: 0x2BA53, offset: 0x2BA53, size: 0x8, addend: 0x0, symName: __ZNSt8_Rb_treeINSt7__cxx1112basic_stringIcSt11char_traitsIcESaIcEEES5_St9_IdentityIS5_ESt4lessIS5_ESaIS5_EEaSERKSB_, symObjAddr: 0x1B20, symBinAddr: 0x100002EC0, symSize: 0x15C }
  - { offsetInCU: 0x2BA5B, offset: 0x2BA5B, size: 0x8, addend: 0x0, symName: __ZN9__gnu_cxx11char_traitsIcE2eqERKcS3_, symObjAddr: 0x1C7C, symBinAddr: 0x10000301C, symSize: 0x30 }
  - { offsetInCU: 0x2BBB3, offset: 0x2BBB3, size: 0x8, addend: 0x0, symName: __ZN11__gnu_debug15_Safe_containerINSt7__debug3setINSt7__cxx1112basic_stringIcSt11char_traitsIcESaIcEEESt4lessIS8_ESaIS8_EEESB_NS_19_Safe_node_sequenceELb1EEaSERKSE_, symObjAddr: 0x1AFC, symBinAddr: 0x100002E9C, symSize: 0x24 }
  - { offsetInCU: 0x2BBBB, offset: 0x2BBBB, size: 0x8, addend: 0x0, symName: __ZNSt8_Rb_treeINSt7__cxx1112basic_stringIcSt11char_traitsIcESaIcEEES5_St9_IdentityIS5_ESt4lessIS5_ESaIS5_EEaSERKSB_, symObjAddr: 0x1B20, symBinAddr: 0x100002EC0, symSize: 0x15C }
  - { offsetInCU: 0x2BBEF, offset: 0x2BBEF, size: 0x8, addend: 0x0, symName: __ZNSt7__debug3setINSt7__cxx1112basic_stringIcSt11char_traitsIcESaIcEEESt4lessIS6_ESaIS6_EE6insertEOS6_, symObjAddr: 0x1A7C, symBinAddr: 0x100002E1C, symSize: 0x80 }
  - { offsetInCU: 0x2BBF7, offset: 0x2BBF7, size: 0x8, addend: 0x0, symName: __ZN11__gnu_debug15_Safe_containerINSt7__debug3setINSt7__cxx1112basic_stringIcSt11char_traitsIcESaIcEEESt4lessIS8_ESaIS8_EEESB_NS_19_Safe_node_sequenceELb1EEaSERKSE_, symObjAddr: 0x1AFC, symBinAddr: 0x100002E9C, symSize: 0x24 }
  - { offsetInCU: 0x2BC4A, offset: 0x2BC4A, size: 0x8, addend: 0x0, symName: __ZNK11__gnu_debug14_Safe_iteratorISt23_Rb_tree_const_iteratorINSt7__cxx1112basic_stringIcSt11char_traitsIcESaIcEEEENSt7__debug3setIS7_St4lessIS7_ESaIS7_EEESt20forward_iterator_tagEdeEv, symObjAddr: 0x19A8, symBinAddr: 0x100002D48, symSize: 0xD4 }
  - { offsetInCU: 0x2BC52, offset: 0x2BC52, size: 0x8, addend: 0x0, symName: __ZNSt7__debug3setINSt7__cxx1112basic_stringIcSt11char_traitsIcESaIcEEESt4lessIS6_ESaIS6_EE6insertEOS6_, symObjAddr: 0x1A7C, symBinAddr: 0x100002E1C, symSize: 0x80 }
  - { offsetInCU: 0x2BCB1, offset: 0x2BCB1, size: 0x8, addend: 0x0, symName: __ZN11__gnu_debug14_Safe_iteratorISt23_Rb_tree_const_iteratorINSt7__cxx1112basic_stringIcSt11char_traitsIcESaIcEEEENSt7__debug3setIS7_St4lessIS7_ESaIS7_EEESt26bidirectional_iterator_tagEppEv, symObjAddr: 0x1988, symBinAddr: 0x100002D28, symSize: 0x20 }
  - { offsetInCU: 0x2BCB9, offset: 0x2BCB9, size: 0x8, addend: 0x0, symName: __ZNK11__gnu_debug14_Safe_iteratorISt23_Rb_tree_const_iteratorINSt7__cxx1112basic_stringIcSt11char_traitsIcESaIcEEEENSt7__debug3setIS7_St4lessIS7_ESaIS7_EEESt20forward_iterator_tagEdeEv, symObjAddr: 0x19A8, symBinAddr: 0x100002D48, symSize: 0xD4 }
  - { offsetInCU: 0x2BDB0, offset: 0x2BDB0, size: 0x8, addend: 0x0, symName: __ZN11__gnu_debugneERKNS_14_Safe_iteratorISt23_Rb_tree_const_iteratorINSt7__cxx1112basic_stringIcSt11char_traitsIcESaIcEEEENSt7__debug3setIS7_St4lessIS7_ESaIS7_EEESt26bidirectional_iterator_tagEESI_, symObjAddr: 0x169C, symBinAddr: 0x100002A3C, symSize: 0x2EC }
  - { offsetInCU: 0x2BDB8, offset: 0x2BDB8, size: 0x8, addend: 0x0, symName: __ZN11__gnu_debug14_Safe_iteratorISt23_Rb_tree_const_iteratorINSt7__cxx1112basic_stringIcSt11char_traitsIcESaIcEEEENSt7__debug3setIS7_St4lessIS7_ESaIS7_EEESt26bidirectional_iterator_tagEppEv, symObjAddr: 0x1988, symBinAddr: 0x100002D28, symSize: 0x20 }
  - { offsetInCU: 0x2BD78, offset: 0x2BD78, size: 0x8, addend: 0x0, symName: __ZNSt7__debug3setINSt7__cxx1112basic_stringIcSt11char_traitsIcESaIcEEESt4lessIS6_ESaIS6_EE3endEv, symObjAddr: 0x1658, symBinAddr: 0x1000029F8, symSize: 0x44 }
  - { offsetInCU: 0x2BD80, offset: 0x2BD80, size: 0x8, addend: 0x0, symName: __ZN11__gnu_debugneERKNS_14_Safe_iteratorISt23_Rb_tree_const_iteratorINSt7__cxx1112basic_stringIcSt11char_traitsIcESaIcEEEENSt7__debug3setIS7_St4lessIS7_ESaIS7_EEESt26bidirectional_iterator_tagEESI_, symObjAddr: 0x169C, symBinAddr: 0x100002A3C, symSize: 0x2EC }
  - { offsetInCU: 0x2BDA7, offset: 0x2BDA7, size: 0x8, addend: 0x0, symName: __ZNSt7__debug3setINSt7__cxx1112basic_stringIcSt11char_traitsIcESaIcEEESt4lessIS6_ESaIS6_EE5beginEv, symObjAddr: 0x1614, symBinAddr: 0x1000029B4, symSize: 0x44 }
  - { offsetInCU: 0x2BDAF, offset: 0x2BDAF, size: 0x8, addend: 0x0, symName: __ZNSt7__debug3setINSt7__cxx1112basic_stringIcSt11char_traitsIcESaIcEEESt4lessIS6_ESaIS6_EE3endEv, symObjAddr: 0x1658, symBinAddr: 0x1000029F8, symSize: 0x44 }
  - { offsetInCU: 0x2BE9E, offset: 0x2BE9E, size: 0x8, addend: 0x0, symName: __ZNSt8_Rb_treeINSt7__cxx1112basic_stringIcSt11char_traitsIcESaIcEEES5_St9_IdentityIS5_ESt4lessIS5_ESaIS5_EE13_Rb_tree_implIS9_Lb1EEC1Ev, symObjAddr: 0x15D0, symBinAddr: 0x100002970, symSize: 0x44 }
  - { offsetInCU: 0x2BEA6, offset: 0x2BEA6, size: 0x8, addend: 0x0, symName: __ZNSt7__debug3setINSt7__cxx1112basic_stringIcSt11char_traitsIcESaIcEEESt4lessIS6_ESaIS6_EE5beginEv, symObjAddr: 0x1614, symBinAddr: 0x1000029B4, symSize: 0x44 }
  - { offsetInCU: 0x2BF2D, offset: 0x2BF2D, size: 0x8, addend: 0x0, symName: __ZNSt8_Rb_treeINSt7__cxx1112basic_stringIcSt11char_traitsIcESaIcEEES5_St9_IdentityIS5_ESt4lessIS5_ESaIS5_EED1Ev, symObjAddr: 0x159C, symBinAddr: 0x10000293C, symSize: 0x34 }
  - { offsetInCU: 0x2BF35, offset: 0x2BF35, size: 0x8, addend: 0x0, symName: __ZNSt8_Rb_treeINSt7__cxx1112basic_stringIcSt11char_traitsIcESaIcEEES5_St9_IdentityIS5_ESt4lessIS5_ESaIS5_EE13_Rb_tree_implIS9_Lb1EEC1Ev, symObjAddr: 0x15D0, symBinAddr: 0x100002970, symSize: 0x44 }
  - { offsetInCU: 0x2BFF5, offset: 0x2BFF5, size: 0x8, addend: 0x0, symName: __ZNSt7__debug3setINSt7__cxx1112basic_stringIcSt11char_traitsIcESaIcEEESt4lessIS6_ESaIS6_EEC1IPKPKcEET_SG_RKS8_RKS9_, symObjAddr: 0x14FC, symBinAddr: 0x10000289C, symSize: 0xA0 }
  - { offsetInCU: 0x2BFFD, offset: 0x2BFFD, size: 0x8, addend: 0x0, symName: __ZNSt8_Rb_treeINSt7__cxx1112basic_stringIcSt11char_traitsIcESaIcEEES5_St9_IdentityIS5_ESt4lessIS5_ESaIS5_EED1Ev, symObjAddr: 0x159C, symBinAddr: 0x10000293C, symSize: 0x34 }
  - { offsetInCU: 0x2C0AF, offset: 0x2C0AF, size: 0x8, addend: 0x0, symName: __ZNSt7__cxx1112basic_stringIcSt11char_traitsIcESaIcEEC1ERKS4_, symObjAddr: 0x1410, symBinAddr: 0x1000027B0, symSize: 0xEC }
  - { offsetInCU: 0x2C0B7, offset: 0x2C0B7, size: 0x8, addend: 0x0, symName: __ZNSt7__debug3setINSt7__cxx1112basic_stringIcSt11char_traitsIcESaIcEEESt4lessIS6_ESaIS6_EEC1IPKPKcEET_SG_RKS8_RKS9_, symObjAddr: 0x14FC, symBinAddr: 0x10000289C, symSize: 0xA0 }
  - { offsetInCU: 0x2C220, offset: 0x2C220, size: 0x8, addend: 0x0, symName: __ZSt4moveIRNSt7__cxx1112basic_stringIcSt11char_traitsIcESaIcEEEEONSt16remove_referenceIT_E4typeEOS8_, symObjAddr: 0x13FC, symBinAddr: 0x10000279C, symSize: 0x14 }
  - { offsetInCU: 0x2C228, offset: 0x2C228, size: 0x8, addend: 0x0, symName: __ZNSt7__cxx1112basic_stringIcSt11char_traitsIcESaIcEEC1ERKS4_, symObjAddr: 0x1410, symBinAddr: 0x1000027B0, symSize: 0xEC }
  - { offsetInCU: 0x2C27C, offset: 0x2C27C, size: 0x8, addend: 0x0, symName: __ZNSt7__cxx1112basic_stringIcSt11char_traitsIcESaIcEEC1IS3_EEPKcRKS3_, symObjAddr: 0x1360, symBinAddr: 0x100002700, symSize: 0x9C }
  - { offsetInCU: 0x2C284, offset: 0x2C284, size: 0x8, addend: 0x0, symName: __ZSt4moveIRNSt7__cxx1112basic_stringIcSt11char_traitsIcESaIcEEEEONSt16remove_referenceIT_E4typeEOS8_, symObjAddr: 0x13FC, symBinAddr: 0x10000279C, symSize: 0x14 }
  - { offsetInCU: 0x2C351, offset: 0x2C351, size: 0x8, addend: 0x0, symName: __ZStplIcSt11char_traitsIcESaIcEENSt7__cxx1112basic_stringIT_T0_T1_EERKS8_PKS5_, symObjAddr: 0x12B4, symBinAddr: 0x100002654, symSize: 0xAC }
  - { offsetInCU: 0x2C359, offset: 0x2C359, size: 0x8, addend: 0x0, symName: __ZNSt7__cxx1112basic_stringIcSt11char_traitsIcESaIcEEC1IS3_EEPKcRKS3_, symObjAddr: 0x1360, symBinAddr: 0x100002700, symSize: 0x9C }
  - { offsetInCU: 0x2C384, offset: 0x2C384, size: 0x8, addend: 0x0, symName: __ZNKSt7__cxx1112basic_stringIcSt11char_traitsIcESaIcEE4sizeEv, symObjAddr: 0x129C, symBinAddr: 0x10000263C, symSize: 0x18 }
  - { offsetInCU: 0x2C38C, offset: 0x2C38C, size: 0x8, addend: 0x0, symName: __ZStplIcSt11char_traitsIcESaIcEENSt7__cxx1112basic_stringIT_T0_T1_EERKS8_PKS5_, symObjAddr: 0x12B4, symBinAddr: 0x100002654, symSize: 0xAC }
  - { offsetInCU: 0x2C41B, offset: 0x2C41B, size: 0x8, addend: 0x0, symName: __ZNSt7__cxx1112basic_stringIcSt11char_traitsIcESaIcEEC1EOS4_, symObjAddr: 0x11A8, symBinAddr: 0x100002548, symSize: 0xF4 }
  - { offsetInCU: 0x2C423, offset: 0x2C423, size: 0x8, addend: 0x0, symName: __ZNKSt7__cxx1112basic_stringIcSt11char_traitsIcESaIcEE4sizeEv, symObjAddr: 0x129C, symBinAddr: 0x10000263C, symSize: 0x18 }
  - { offsetInCU: 0x2C41B, offset: 0x2C41B, size: 0x8, addend: 0x0, symName: __ZNSt7__cxx1112basic_stringIcSt11char_traitsIcESaIcEEixEm, symObjAddr: 0x10FC, symBinAddr: 0x10000249C, symSize: 0xAC }
  - { offsetInCU: 0x2C423, offset: 0x2C423, size: 0x8, addend: 0x0, symName: __ZNSt7__cxx1112basic_stringIcSt11char_traitsIcESaIcEEC1EOS4_, symObjAddr: 0x11A8, symBinAddr: 0x100002548, symSize: 0xF4 }
  - { offsetInCU: 0x2C4F8, offset: 0x2C4F8, size: 0x8, addend: 0x0, symName: __ZNSt7__cxx1112basic_stringIcSt11char_traitsIcESaIcEED1Ev, symObjAddr: 0x10D4, symBinAddr: 0x100002474, symSize: 0x28 }
  - { offsetInCU: 0x2C500, offset: 0x2C500, size: 0x8, addend: 0x0, symName: __ZNSt7__cxx1112basic_stringIcSt11char_traitsIcESaIcEEixEm, symObjAddr: 0x10FC, symBinAddr: 0x10000249C, symSize: 0xAC }
  - { offsetInCU: 0x2C561, offset: 0x2C561, size: 0x8, addend: 0x0, symName: __ZNSt7__cxx1112basic_stringIcSt11char_traitsIcESaIcEE12_Alloc_hiderD1Ev, symObjAddr: 0x10A8, symBinAddr: 0x100002448, symSize: 0x2C }
  - { offsetInCU: 0x2C569, offset: 0x2C569, size: 0x8, addend: 0x0, symName: __ZNSt7__cxx1112basic_stringIcSt11char_traitsIcESaIcEED1Ev, symObjAddr: 0x10D4, symBinAddr: 0x100002474, symSize: 0x28 }
  - { offsetInCU: 0x2C5B1, offset: 0x2C5B1, size: 0x8, addend: 0x0, symName: __ZNKSt7__cxx1112basic_stringIcSt11char_traitsIcESaIcEE5c_strEv, symObjAddr: 0x108C, symBinAddr: 0x10000242C, symSize: 0x1C }
  - { offsetInCU: 0x2C5B9, offset: 0x2C5B9, size: 0x8, addend: 0x0, symName: __ZNSt7__cxx1112basic_stringIcSt11char_traitsIcESaIcEE12_Alloc_hiderD1Ev, symObjAddr: 0x10A8, symBinAddr: 0x100002448, symSize: 0x2C }
  - { offsetInCU: 0x2C5E0, offset: 0x2C5E0, size: 0x8, addend: 0x0, symName: __ZN9__gnu_cxx11char_traitsIcE6lengthEPKc, symObjAddr: 0x1030, symBinAddr: 0x1000023D0, symSize: 0x5C }
  - { offsetInCU: 0x2C5E8, offset: 0x2C5E8, size: 0x8, addend: 0x0, symName: __ZNKSt7__cxx1112basic_stringIcSt11char_traitsIcESaIcEE5c_strEv, symObjAddr: 0x108C, symBinAddr: 0x10000242C, symSize: 0x1C }
  - { offsetInCU: 0x2C62E, offset: 0x2C62E, size: 0x8, addend: 0x0, symName: _main, symObjAddr: 0xC1C, symBinAddr: 0x100001FBC, symSize: 0x414 }
  - { offsetInCU: 0x2C636, offset: 0x2C636, size: 0x8, addend: 0x0, symName: __ZN9__gnu_cxx11char_traitsIcE6lengthEPKc, symObjAddr: 0x1030, symBinAddr: 0x1000023D0, symSize: 0x5C }
  - { offsetInCU: 0x2C8AC, offset: 0x2C8AC, size: 0x8, addend: 0x0, symName: __ZNSt7__debug3setINSt7__cxx1112basic_stringIcSt11char_traitsIcESaIcEEESt4lessIS6_ESaIS6_EEaSERKSA_, symObjAddr: 0xBD8, symBinAddr: 0x100001F78, symSize: 0x44 }
  - { offsetInCU: 0x2C8B4, offset: 0x2C8B4, size: 0x8, addend: 0x0, symName: _main, symObjAddr: 0xC1C, symBinAddr: 0x100001FBC, symSize: 0x414 }
  - { offsetInCU: 0x2C8E8, offset: 0x2C8E8, size: 0x8, addend: 0x0, symName: __ZNSt9__cxx19983setINSt7__cxx1112basic_stringIcSt11char_traitsIcESaIcEEESt4lessIS6_ESaIS6_EEaSERKSA_, symObjAddr: 0xBB0, symBinAddr: 0x100001F50, symSize: 0x28 }
  - { offsetInCU: 0x2C8F0, offset: 0x2C8F0, size: 0x8, addend: 0x0, symName: __ZNSt7__debug3setINSt7__cxx1112basic_stringIcSt11char_traitsIcESaIcEEESt4lessIS6_ESaIS6_EEaSERKSA_, symObjAddr: 0xBD8, symBinAddr: 0x100001F78, symSize: 0x44 }
  - { offsetInCU: 0x2CA19, offset: 0x2CA19, size: 0x8, addend: 0x0, symName: __ZNSt4pairIN11__gnu_debug14_Safe_iteratorISt23_Rb_tree_const_iteratorINSt7__cxx1112basic_stringIcSt11char_traitsIcESaIcEEEENSt7__debug3setIS8_St4lessIS8_ESaIS8_EEESt26bidirectional_iterator_tagEEbED1Ev, symObjAddr: 0xB90, symBinAddr: 0x100001F30, symSize: 0x20 }
  - { offsetInCU: 0x2CA21, offset: 0x2CA21, size: 0x8, addend: 0x0, symName: __ZNSt9__cxx19983setINSt7__cxx1112basic_stringIcSt11char_traitsIcESaIcEEESt4lessIS6_ESaIS6_EEaSERKSA_, symObjAddr: 0xBB0, symBinAddr: 0x100001F50, symSize: 0x28 }
  - { offsetInCU: 0x2CA69, offset: 0x2CA69, size: 0x8, addend: 0x0, symName: __ZN11__gnu_debug14_Safe_iteratorISt23_Rb_tree_const_iteratorINSt7__cxx1112basic_stringIcSt11char_traitsIcESaIcEEEENSt7__debug3setIS7_St4lessIS7_ESaIS7_EEESt26bidirectional_iterator_tagED1Ev, symObjAddr: 0xB70, symBinAddr: 0x100001F10, symSize: 0x20 }
  - { offsetInCU: 0x2CA71, offset: 0x2CA71, size: 0x8, addend: 0x0, symName: __ZNSt4pairIN11__gnu_debug14_Safe_iteratorISt23_Rb_tree_const_iteratorINSt7__cxx1112basic_stringIcSt11char_traitsIcESaIcEEEENSt7__debug3setIS8_St4lessIS8_ESaIS8_EEESt26bidirectional_iterator_tagEEbED1Ev, symObjAddr: 0xB90, symBinAddr: 0x100001F30, symSize: 0x20 }
  - { offsetInCU: 0x2CABE, offset: 0x2CABE, size: 0x8, addend: 0x0, symName: __ZN11__gnu_debug14_Safe_iteratorISt23_Rb_tree_const_iteratorINSt7__cxx1112basic_stringIcSt11char_traitsIcESaIcEEEENSt7__debug3setIS7_St4lessIS7_ESaIS7_EEESt20forward_iterator_tagED2Ev, symObjAddr: 0xB4C, symBinAddr: 0x100001EEC, symSize: 0x24 }
  - { offsetInCU: 0x2CAC6, offset: 0x2CAC6, size: 0x8, addend: 0x0, symName: __ZN11__gnu_debug14_Safe_iteratorISt23_Rb_tree_const_iteratorINSt7__cxx1112basic_stringIcSt11char_traitsIcESaIcEEEENSt7__debug3setIS7_St4lessIS7_ESaIS7_EEESt26bidirectional_iterator_tagED1Ev, symObjAddr: 0xB70, symBinAddr: 0x100001F10, symSize: 0x20 }
  - { offsetInCU: 0x2CAAE, offset: 0x2CAAE, size: 0x8, addend: 0x0, symName: __ZNSt7__debug3setINSt7__cxx1112basic_stringIcSt11char_traitsIcESaIcEEESt4lessIS6_ESaIS6_EEC1Ev, symObjAddr: 0xB20, symBinAddr: 0x100001EC0, symSize: 0x2C }
  - { offsetInCU: 0x2CAB6, offset: 0x2CAB6, size: 0x8, addend: 0x0, symName: __ZN11__gnu_debug14_Safe_iteratorISt23_Rb_tree_const_iteratorINSt7__cxx1112basic_stringIcSt11char_traitsIcESaIcEEEENSt7__debug3setIS7_St4lessIS7_ESaIS7_EEESt20forward_iterator_tagED2Ev, symObjAddr: 0xB4C, symBinAddr: 0x100001EEC, symSize: 0x24 }
  - { offsetInCU: 0x2CAF9, offset: 0x2CAF9, size: 0x8, addend: 0x0, symName: __ZNSt9__cxx19983setINSt7__cxx1112basic_stringIcSt11char_traitsIcESaIcEEESt4lessIS6_ESaIS6_EEC2Ev, symObjAddr: 0xB00, symBinAddr: 0x100001EA0, symSize: 0x20 }
  - { offsetInCU: 0x2CB01, offset: 0x2CB01, size: 0x8, addend: 0x0, symName: __ZNSt7__debug3setINSt7__cxx1112basic_stringIcSt11char_traitsIcESaIcEEESt4lessIS6_ESaIS6_EEC1Ev, symObjAddr: 0xB20, symBinAddr: 0x100001EC0, symSize: 0x2C }
  - { offsetInCU: 0x2CB51, offset: 0x2CB51, size: 0x8, addend: 0x0, symName: __ZNSt8_Rb_treeINSt7__cxx1112basic_stringIcSt11char_traitsIcESaIcEEES5_St9_IdentityIS5_ESt4lessIS5_ESaIS5_EEC1Ev, symObjAddr: 0xAE0, symBinAddr: 0x100001E80, symSize: 0x20 }
  - { offsetInCU: 0x2CB59, offset: 0x2CB59, size: 0x8, addend: 0x0, symName: __ZNSt9__cxx19983setINSt7__cxx1112basic_stringIcSt11char_traitsIcESaIcEEESt4lessIS6_ESaIS6_EEC2Ev, symObjAddr: 0xB00, symBinAddr: 0x100001EA0, symSize: 0x20 }
  - { offsetInCU: 0x2CBC5, offset: 0x2CBC5, size: 0x8, addend: 0x0, symName: __ZNSt8_Rb_treeINSt7__cxx1112basic_stringIcSt11char_traitsIcESaIcEEES5_St9_IdentityIS5_ESt4lessIS5_ESaIS5_EE13_Rb_tree_implIS9_Lb1EED1Ev, symObjAddr: 0xAB4, symBinAddr: 0x100001E54, symSize: 0x2C }
  - { offsetInCU: 0x2CBCD, offset: 0x2CBCD, size: 0x8, addend: 0x0, symName: __ZNSt8_Rb_treeINSt7__cxx1112basic_stringIcSt11char_traitsIcESaIcEEES5_St9_IdentityIS5_ESt4lessIS5_ESaIS5_EEC1Ev, symObjAddr: 0xAE0, symBinAddr: 0x100001E80, symSize: 0x20 }
  - { offsetInCU: 0x2CC4F, offset: 0x2CC4F, size: 0x8, addend: 0x0, symName: __ZN11__gnu_debug15_Safe_containerINSt7__debug3setINSt7__cxx1112basic_stringIcSt11char_traitsIcESaIcEEESt4lessIS8_ESaIS8_EEESB_NS_19_Safe_node_sequenceELb1EEC2Ev, symObjAddr: 0xA94, symBinAddr: 0x100001E34, symSize: 0x20 }
  - { offsetInCU: 0x2CC57, offset: 0x2CC57, size: 0x8, addend: 0x0, symName: __ZNSt8_Rb_treeINSt7__cxx1112basic_stringIcSt11char_traitsIcESaIcEEES5_St9_IdentityIS5_ESt4lessIS5_ESaIS5_EE13_Rb_tree_implIS9_Lb1EED1Ev, symObjAddr: 0xAB4, symBinAddr: 0x100001E54, symSize: 0x2C }
  - { offsetInCU: 0x2CC80, offset: 0x2CC80, size: 0x8, addend: 0x0, symName: __ZN11__gnu_debug19_Safe_node_sequenceINSt7__debug3setINSt7__cxx1112basic_stringIcSt11char_traitsIcESaIcEEESt4lessIS8_ESaIS8_EEEEC2Ev, symObjAddr: 0xA74, symBinAddr: 0x100001E14, symSize: 0x20 }
  - { offsetInCU: 0x2CC88, offset: 0x2CC88, size: 0x8, addend: 0x0, symName: __ZN11__gnu_debug15_Safe_containerINSt7__debug3setINSt7__cxx1112basic_stringIcSt11char_traitsIcESaIcEEESt4lessIS8_ESaIS8_EEESB_NS_19_Safe_node_sequenceELb1EEC2Ev, symObjAddr: 0xA94, symBinAddr: 0x100001E34, symSize: 0x20 }
  - { offsetInCU: 0x2CCC8, offset: 0x2CCC8, size: 0x8, addend: 0x0, symName: __ZN11__gnu_debug14_Safe_sequenceINSt7__debug3setINSt7__cxx1112basic_stringIcSt11char_traitsIcESaIcEEESt4lessIS8_ESaIS8_EEEEC2Ev, symObjAddr: 0xA54, symBinAddr: 0x100001DF4, symSize: 0x20 }
  - { offsetInCU: 0x2CCD0, offset: 0x2CCD0, size: 0x8, addend: 0x0, symName: __ZN11__gnu_debug19_Safe_node_sequenceINSt7__debug3setINSt7__cxx1112basic_stringIcSt11char_traitsIcESaIcEEESt4lessIS8_ESaIS8_EEEEC2Ev, symObjAddr: 0xA74, symBinAddr: 0x100001E14, symSize: 0x20 }
  - { offsetInCU: 0x2CCFE, offset: 0x2CCFE, size: 0x8, addend: 0x0, symName: __ZNSt7__debug3setINSt7__cxx1112basic_stringIcSt11char_traitsIcESaIcEEESt4lessIS6_ESaIS6_EED1Ev, symObjAddr: 0xA28, symBinAddr: 0x100001DC8, symSize: 0x2C }
  - { offsetInCU: 0x2CD06, offset: 0x2CD06, size: 0x8, addend: 0x0, symName: __ZN11__gnu_debug14_Safe_sequenceINSt7__debug3setINSt7__cxx1112basic_stringIcSt11char_traitsIcESaIcEEESt4lessIS8_ESaIS8_EEEEC2Ev, symObjAddr: 0xA54, symBinAddr: 0x100001DF4, symSize: 0x20 }
  - { offsetInCU: 0x2CD57, offset: 0x2CD57, size: 0x8, addend: 0x0, symName: __ZNSt9__cxx19983setINSt7__cxx1112basic_stringIcSt11char_traitsIcESaIcEEESt4lessIS6_ESaIS6_EED2Ev, symObjAddr: 0xA08, symBinAddr: 0x100001DA8, symSize: 0x20 }
  - { offsetInCU: 0x2CD5F, offset: 0x2CD5F, size: 0x8, addend: 0x0, symName: __ZNSt7__debug3setINSt7__cxx1112basic_stringIcSt11char_traitsIcESaIcEEESt4lessIS6_ESaIS6_EED1Ev, symObjAddr: 0xA28, symBinAddr: 0x100001DC8, symSize: 0x2C }
  - { offsetInCU: 0x2CDF2, offset: 0x2CDF2, size: 0x8, addend: 0x0, symName: __ZN11__gnu_debug15_Safe_containerINSt7__debug3setINSt7__cxx1112basic_stringIcSt11char_traitsIcESaIcEEESt4lessIS8_ESaIS8_EEESB_NS_19_Safe_node_sequenceELb1EED2Ev, symObjAddr: 0x9E8, symBinAddr: 0x100001D88, symSize: 0x20 }
  - { offsetInCU: 0x2CDFA, offset: 0x2CDFA, size: 0x8, addend: 0x0, symName: __ZNSt9__cxx19983setINSt7__cxx1112basic_stringIcSt11char_traitsIcESaIcEEESt4lessIS6_ESaIS6_EED2Ev, symObjAddr: 0xA08, symBinAddr: 0x100001DA8, symSize: 0x20 }
  - { offsetInCU: 0x2CE31, offset: 0x2CE31, size: 0x8, addend: 0x0, symName: __ZN11__gnu_debug19_Safe_node_sequenceINSt7__debug3setINSt7__cxx1112basic_stringIcSt11char_traitsIcESaIcEEESt4lessIS8_ESaIS8_EEEED2Ev, symObjAddr: 0x9C8, symBinAddr: 0x100001D68, symSize: 0x20 }
  - { offsetInCU: 0x2CE39, offset: 0x2CE39, size: 0x8, addend: 0x0, symName: __ZN11__gnu_debug15_Safe_containerINSt7__debug3setINSt7__cxx1112basic_stringIcSt11char_traitsIcESaIcEEESt4lessIS8_ESaIS8_EEESB_NS_19_Safe_node_sequenceELb1EED2Ev, symObjAddr: 0x9E8, symBinAddr: 0x100001D88, symSize: 0x20 }
  - { offsetInCU: 0x2CE87, offset: 0x2CE87, size: 0x8, addend: 0x0, symName: __ZN11__gnu_debug14_Safe_sequenceINSt7__debug3setINSt7__cxx1112basic_stringIcSt11char_traitsIcESaIcEEESt4lessIS8_ESaIS8_EEEED2Ev, symObjAddr: 0x9A8, symBinAddr: 0x100001D48, symSize: 0x20 }
  - { offsetInCU: 0x2CE8F, offset: 0x2CE8F, size: 0x8, addend: 0x0, symName: __ZN11__gnu_debug19_Safe_node_sequenceINSt7__debug3setINSt7__cxx1112basic_stringIcSt11char_traitsIcESaIcEEESt4lessIS8_ESaIS8_EEEED2Ev, symObjAddr: 0x9C8, symBinAddr: 0x100001D68, symSize: 0x20 }
  - { offsetInCU: 0x2CE7B, offset: 0x2CE7B, size: 0x8, addend: 0x0, symName: __Z5setIONSt7__cxx1112basic_stringIcSt11char_traitsIcESaIcEEE, symObjAddr: 0x90C, symBinAddr: 0x100001CAC, symSize: 0x9C }
  - { offsetInCU: 0x2CE83, offset: 0x2CE83, size: 0x8, addend: 0x0, symName: __ZN11__gnu_debug14_Safe_sequenceINSt7__debug3setINSt7__cxx1112basic_stringIcSt11char_traitsIcESaIcEEESt4lessIS8_ESaIS8_EEEED2Ev, symObjAddr: 0x9A8, symBinAddr: 0x100001D48, symSize: 0x20 }
  - { offsetInCU: 0x2CE6E, offset: 0x2CE6E, size: 0x8, addend: 0x0, symName: __ZNSt15_Rb_tree_header8_M_resetEv, symObjAddr: 0x8D0, symBinAddr: 0x100001C70, symSize: 0x3C }
  - { offsetInCU: 0x2CE76, offset: 0x2CE76, size: 0x8, addend: 0x0, symName: __Z5setIONSt7__cxx1112basic_stringIcSt11char_traitsIcESaIcEEE, symObjAddr: 0x90C, symBinAddr: 0x100001CAC, symSize: 0x9C }
  - { offsetInCU: 0x2CED1, offset: 0x2CED1, size: 0x8, addend: 0x0, symName: __ZNSt15_Rb_tree_headerC2Ev, symObjAddr: 0x8A8, symBinAddr: 0x100001C48, symSize: 0x28 }
  - { offsetInCU: 0x2CED9, offset: 0x2CED9, size: 0x8, addend: 0x0, symName: __ZNSt15_Rb_tree_header8_M_resetEv, symObjAddr: 0x8D0, symBinAddr: 0x100001C70, symSize: 0x3C }
  - { offsetInCU: 0x2CEE6, offset: 0x2CEE6, size: 0x8, addend: 0x0, symName: __ZNSt18_Rb_tree_node_base10_S_maximumEPS_, symObjAddr: 0x874, symBinAddr: 0x100001C14, symSize: 0x34 }
  - { offsetInCU: 0x2CEEE, offset: 0x2CEEE, size: 0x8, addend: 0x0, symName: __ZNSt15_Rb_tree_headerC2Ev, symObjAddr: 0x8A8, symBinAddr: 0x100001C48, symSize: 0x28 }
  - { offsetInCU: 0x2CF17, offset: 0x2CF17, size: 0x8, addend: 0x0, symName: __ZNSt18_Rb_tree_node_base10_S_minimumEPS_, symObjAddr: 0x840, symBinAddr: 0x100001BE0, symSize: 0x34 }
  - { offsetInCU: 0x2CF1F, offset: 0x2CF1F, size: 0x8, addend: 0x0, symName: __ZNSt18_Rb_tree_node_base10_S_maximumEPS_, symObjAddr: 0x874, symBinAddr: 0x100001C14, symSize: 0x34 }
  - { offsetInCU: 0x2CF79, offset: 0x2CF79, size: 0x8, addend: 0x0, symName: __ZSt3minImERKT_S2_S2_, symObjAddr: 0x808, symBinAddr: 0x100001BA8, symSize: 0x38 }
  - { offsetInCU: 0x2CF81, offset: 0x2CF81, size: 0x8, addend: 0x0, symName: __ZNSt18_Rb_tree_node_base10_S_minimumEPS_, symObjAddr: 0x840, symBinAddr: 0x100001BE0, symSize: 0x34 }
  - { offsetInCU: 0x2CFF7, offset: 0x2CFF7, size: 0x8, addend: 0x0, symName: __ZN11__gnu_debug19_Safe_sequence_baseD2Ev, symObjAddr: 0x7E8, symBinAddr: 0x100001B88, symSize: 0x20 }
  - { offsetInCU: 0x2CFFF, offset: 0x2CFFF, size: 0x8, addend: 0x0, symName: __ZSt3minImERKT_S2_S2_, symObjAddr: 0x808, symBinAddr: 0x100001BA8, symSize: 0x38 }
  - { offsetInCU: 0x2D040, offset: 0x2D040, size: 0x8, addend: 0x0, symName: __ZN11__gnu_debug19_Safe_sequence_baseC2Ev, symObjAddr: 0x7B8, symBinAddr: 0x100001B58, symSize: 0x30 }
  - { offsetInCU: 0x2D048, offset: 0x2D048, size: 0x8, addend: 0x0, symName: __ZN11__gnu_debug19_Safe_sequence_baseD2Ev, symObjAddr: 0x7E8, symBinAddr: 0x100001B88, symSize: 0x20 }
  - { offsetInCU: 0x2D046, offset: 0x2D046, size: 0x8, addend: 0x0, symName: __ZN11__gnu_debug19_Safe_iterator_base13_M_invalidateEv, symObjAddr: 0x79C, symBinAddr: 0x100001B3C, symSize: 0x1C }
  - { offsetInCU: 0x2D04E, offset: 0x2D04E, size: 0x8, addend: 0x0, symName: __ZN11__gnu_debug19_Safe_sequence_baseC2Ev, symObjAddr: 0x7B8, symBinAddr: 0x100001B58, symSize: 0x30 }
  - { offsetInCU: 0x2D0C6, offset: 0x2D0C6, size: 0x8, addend: 0x0, symName: __ZN11__gnu_debug19_Safe_iterator_baseD2Ev, symObjAddr: 0x77C, symBinAddr: 0x100001B1C, symSize: 0x20 }
  - { offsetInCU: 0x2D0CE, offset: 0x2D0CE, size: 0x8, addend: 0x0, symName: __ZN11__gnu_debug19_Safe_iterator_base13_M_invalidateEv, symObjAddr: 0x79C, symBinAddr: 0x100001B3C, symSize: 0x1C }
  - { offsetInCU: 0x2D14A, offset: 0x2D14A, size: 0x8, addend: 0x0, symName: __ZN11__gnu_debug19_Safe_iterator_baseC2EPKNS_19_Safe_sequence_baseEb, symObjAddr: 0x72C, symBinAddr: 0x100001ACC, symSize: 0x50 }
  - { offsetInCU: 0x2D152, offset: 0x2D152, size: 0x8, addend: 0x0, symName: __ZN11__gnu_debug19_Safe_iterator_baseD2Ev, symObjAddr: 0x77C, symBinAddr: 0x100001B1C, symSize: 0x20 }
  - { offsetInCU: 0x2D192, offset: 0x2D192, size: 0x8, addend: 0x0, symName: __ZN11__gnu_debug19_Safe_iterator_baseC2Ev, symObjAddr: 0x6F8, symBinAddr: 0x100001A98, symSize: 0x34 }
  - { offsetInCU: 0x2D19A, offset: 0x2D19A, size: 0x8, addend: 0x0, symName: __ZN11__gnu_debug19_Safe_iterator_baseC2EPKNS_19_Safe_sequence_baseEb, symObjAddr: 0x72C, symBinAddr: 0x100001ACC, symSize: 0x50 }
  - { offsetInCU: 0x2D1E0, offset: 0x2D1E0, size: 0x8, addend: 0x0, symName: __ZN9__gnu_cxx13__scoped_lockD1Ev, symObjAddr: 0x6D4, symBinAddr: 0x100001A74, symSize: 0x24 }
  - { offsetInCU: 0x2D1E8, offset: 0x2D1E8, size: 0x8, addend: 0x0, symName: __ZN11__gnu_debug19_Safe_iterator_baseC2Ev, symObjAddr: 0x6F8, symBinAddr: 0x100001A98, symSize: 0x34 }
  - { offsetInCU: 0x2D245, offset: 0x2D245, size: 0x8, addend: 0x0, symName: __ZN9__gnu_cxx13__scoped_lockC1ERNS_7__mutexE, symObjAddr: 0x6A0, symBinAddr: 0x100001A40, symSize: 0x34 }
  - { offsetInCU: 0x2D24D, offset: 0x2D24D, size: 0x8, addend: 0x0, symName: __ZN9__gnu_cxx13__scoped_lockD1Ev, symObjAddr: 0x6D4, symBinAddr: 0x100001A74, symSize: 0x24 }
  - { offsetInCU: 0x2D255, offset: 0x2D255, size: 0x8, addend: 0x0, symName: __ZN9__gnu_cxx7__mutex6unlockEv, symObjAddr: 0x648, symBinAddr: 0x1000019E8, symSize: 0x58 }
  - { offsetInCU: 0x2D25D, offset: 0x2D25D, size: 0x8, addend: 0x0, symName: __ZN9__gnu_cxx13__scoped_lockC1ERNS_7__mutexE, symObjAddr: 0x6A0, symBinAddr: 0x100001A40, symSize: 0x34 }
  - { offsetInCU: 0x2D284, offset: 0x2D284, size: 0x8, addend: 0x0, symName: __ZN9__gnu_cxx7__mutex4lockEv, symObjAddr: 0x5F0, symBinAddr: 0x100001990, symSize: 0x58 }
  - { offsetInCU: 0x2D28C, offset: 0x2D28C, size: 0x8, addend: 0x0, symName: __ZN9__gnu_cxx7__mutex6unlockEv, symObjAddr: 0x648, symBinAddr: 0x1000019E8, symSize: 0x58 }
  - { offsetInCU: 0x2D307, offset: 0x2D307, size: 0x8, addend: 0x0, symName: __ZN9__gnu_cxx32__throw_concurrence_unlock_errorEv, symObjAddr: 0x5B4, symBinAddr: 0x100001954, symSize: 0x3C }
  - { offsetInCU: 0x2D30F, offset: 0x2D30F, size: 0x8, addend: 0x0, symName: __ZN9__gnu_cxx7__mutex4lockEv, symObjAddr: 0x5F0, symBinAddr: 0x100001990, symSize: 0x58 }
  - { offsetInCU: 0x2D32E, offset: 0x2D32E, size: 0x8, addend: 0x0, symName: __ZN9__gnu_cxx26__concurrence_unlock_errorD0Ev, symObjAddr: 0x58C, symBinAddr: 0x10000192C, symSize: 0x28 }
  - { offsetInCU: 0x2D336, offset: 0x2D336, size: 0x8, addend: 0x0, symName: __ZN9__gnu_cxx32__throw_concurrence_unlock_errorEv, symObjAddr: 0x5B4, symBinAddr: 0x100001954, symSize: 0x3C }
  - { offsetInCU: 0x2D35E, offset: 0x2D35E, size: 0x8, addend: 0x0, symName: __ZN9__gnu_cxx26__concurrence_unlock_errorD1Ev, symObjAddr: 0x558, symBinAddr: 0x1000018F8, symSize: 0x34 }
  - { offsetInCU: 0x2D366, offset: 0x2D366, size: 0x8, addend: 0x0, symName: __ZN9__gnu_cxx26__concurrence_unlock_errorD0Ev, symObjAddr: 0x58C, symBinAddr: 0x10000192C, symSize: 0x28 }
  - { offsetInCU: 0x2D3AB, offset: 0x2D3AB, size: 0x8, addend: 0x0, symName: __ZN9__gnu_cxx26__concurrence_unlock_errorC1Ev, symObjAddr: 0x524, symBinAddr: 0x1000018C4, symSize: 0x34 }
  - { offsetInCU: 0x2D3B3, offset: 0x2D3B3, size: 0x8, addend: 0x0, symName: __ZN9__gnu_cxx26__concurrence_unlock_errorD1Ev, symObjAddr: 0x558, symBinAddr: 0x1000018F8, symSize: 0x34 }
  - { offsetInCU: 0x2D3FD, offset: 0x2D3FD, size: 0x8, addend: 0x0, symName: __ZN9__gnu_cxx30__throw_concurrence_lock_errorEv, symObjAddr: 0x4E8, symBinAddr: 0x100001888, symSize: 0x3C }
  - { offsetInCU: 0x2D405, offset: 0x2D405, size: 0x8, addend: 0x0, symName: __ZN9__gnu_cxx26__concurrence_unlock_errorC1Ev, symObjAddr: 0x524, symBinAddr: 0x1000018C4, symSize: 0x34 }
  - { offsetInCU: 0x2D426, offset: 0x2D426, size: 0x8, addend: 0x0, symName: __ZN9__gnu_cxx24__concurrence_lock_errorD0Ev, symObjAddr: 0x4C0, symBinAddr: 0x100001860, symSize: 0x28 }
  - { offsetInCU: 0x2D42E, offset: 0x2D42E, size: 0x8, addend: 0x0, symName: __ZN9__gnu_cxx30__throw_concurrence_lock_errorEv, symObjAddr: 0x4E8, symBinAddr: 0x100001888, symSize: 0x3C }
  - { offsetInCU: 0x2D456, offset: 0x2D456, size: 0x8, addend: 0x0, symName: __ZN9__gnu_cxx24__concurrence_lock_errorD1Ev, symObjAddr: 0x48C, symBinAddr: 0x10000182C, symSize: 0x34 }
  - { offsetInCU: 0x2D45E, offset: 0x2D45E, size: 0x8, addend: 0x0, symName: __ZN9__gnu_cxx24__concurrence_lock_errorD0Ev, symObjAddr: 0x4C0, symBinAddr: 0x100001860, symSize: 0x28 }
  - { offsetInCU: 0x2D4A3, offset: 0x2D4A3, size: 0x8, addend: 0x0, symName: __ZN9__gnu_cxx24__concurrence_lock_errorC1Ev, symObjAddr: 0x458, symBinAddr: 0x1000017F8, symSize: 0x34 }
  - { offsetInCU: 0x2D4AB, offset: 0x2D4AB, size: 0x8, addend: 0x0, symName: __ZN9__gnu_cxx24__concurrence_lock_errorD1Ev, symObjAddr: 0x48C, symBinAddr: 0x10000182C, symSize: 0x34 }
  - { offsetInCU: 0x2D4A7, offset: 0x2D4A7, size: 0x8, addend: 0x0, symName: __ZNK9__gnu_cxx26__concurrence_unlock_error4whatEv, symObjAddr: 0x440, symBinAddr: 0x1000017E0, symSize: 0x18 }
  - { offsetInCU: 0x2D4AF, offset: 0x2D4AF, size: 0x8, addend: 0x0, symName: __ZN9__gnu_cxx24__concurrence_lock_errorC1Ev, symObjAddr: 0x458, symBinAddr: 0x1000017F8, symSize: 0x34 }
  - { offsetInCU: 0x2D4D6, offset: 0x2D4D6, size: 0x8, addend: 0x0, symName: __ZNK9__gnu_cxx24__concurrence_lock_error4whatEv, symObjAddr: 0x428, symBinAddr: 0x1000017C8, symSize: 0x18 }
  - { offsetInCU: 0x2D4DE, offset: 0x2D4DE, size: 0x8, addend: 0x0, symName: __ZNK9__gnu_cxx26__concurrence_unlock_error4whatEv, symObjAddr: 0x440, symBinAddr: 0x1000017E0, symSize: 0x18 }
  - { offsetInCU: 0x2D521, offset: 0x2D521, size: 0x8, addend: 0x0, symName: __ZL22__gthread_mutex_unlockP23_opaque_pthread_mutex_t, symObjAddr: 0x3E8, symBinAddr: 0x100001788, symSize: 0x40 }
  - { offsetInCU: 0x2D529, offset: 0x2D529, size: 0x8, addend: 0x0, symName: __ZNK9__gnu_cxx24__concurrence_lock_error4whatEv, symObjAddr: 0x428, symBinAddr: 0x1000017C8, symSize: 0x18 }
  - { offsetInCU: 0x2D55B, offset: 0x2D55B, size: 0x8, addend: 0x0, symName: __ZL20__gthread_mutex_lockP23_opaque_pthread_mutex_t, symObjAddr: 0x3A8, symBinAddr: 0x100001748, symSize: 0x40 }
  - { offsetInCU: 0x2D563, offset: 0x2D563, size: 0x8, addend: 0x0, symName: __ZL22__gthread_mutex_unlockP23_opaque_pthread_mutex_t, symObjAddr: 0x3E8, symBinAddr: 0x100001788, symSize: 0x40 }
  - { offsetInCU: 0x2D595, offset: 0x2D595, size: 0x8, addend: 0x0, symName: __ZL18__gthread_active_pv, symObjAddr: 0x3A0, symBinAddr: 0x100001740, symSize: 0x8 }
  - { offsetInCU: 0x2D59D, offset: 0x2D59D, size: 0x8, addend: 0x0, symName: __ZL20__gthread_mutex_lockP23_opaque_pthread_mutex_t, symObjAddr: 0x3A8, symBinAddr: 0x100001748, symSize: 0x40 }
  - { offsetInCU: 0x2D5A2, offset: 0x2D5A2, size: 0x8, addend: 0x0, symName: __ZNSt11char_traitsIcE4copyEPcPKcm, symObjAddr: 0x34C, symBinAddr: 0x1000016EC, symSize: 0x54 }
  - { offsetInCU: 0x2D5AA, offset: 0x2D5AA, size: 0x8, addend: 0x0, symName: __ZL18__gthread_active_pv, symObjAddr: 0x3A0, symBinAddr: 0x100001740, symSize: 0x8 }
  - { offsetInCU: 0x2D5FF, offset: 0x2D5FF, size: 0x8, addend: 0x0, symName: __ZNSt11char_traitsIcE6lengthEPKc, symObjAddr: 0x30C, symBinAddr: 0x1000016AC, symSize: 0x40 }
  - { offsetInCU: 0x2D607, offset: 0x2D607, size: 0x8, addend: 0x0, symName: __ZNSt11char_traitsIcE4copyEPcPKcm, symObjAddr: 0x34C, symBinAddr: 0x1000016EC, symSize: 0x54 }
  - { offsetInCU: 0x2D632, offset: 0x2D632, size: 0x8, addend: 0x0, symName: __ZNSt11char_traitsIcE7compareEPKcS2_m, symObjAddr: 0x210, symBinAddr: 0x1000015B0, symSize: 0xFC }
  - { offsetInCU: 0x2D63A, offset: 0x2D63A, size: 0x8, addend: 0x0, symName: __ZNSt11char_traitsIcE6lengthEPKc, symObjAddr: 0x30C, symBinAddr: 0x1000016AC, symSize: 0x40 }
  - { offsetInCU: 0x2D6B7, offset: 0x2D6B7, size: 0x8, addend: 0x0, symName: __ZNSt11char_traitsIcE2ltERKcS2_, symObjAddr: 0x1D8, symBinAddr: 0x100001578, symSize: 0x38 }
  - { offsetInCU: 0x2D6BF, offset: 0x2D6BF, size: 0x8, addend: 0x0, symName: __ZNSt11char_traitsIcE7compareEPKcS2_m, symObjAddr: 0x210, symBinAddr: 0x1000015B0, symSize: 0xFC }
  - { offsetInCU: 0x2D6FF, offset: 0x2D6FF, size: 0x8, addend: 0x0, symName: __ZNSt11char_traitsIcE6assignERcRKc, symObjAddr: 0x1B0, symBinAddr: 0x100001550, symSize: 0x28 }
  - { offsetInCU: 0x2D707, offset: 0x2D707, size: 0x8, addend: 0x0, symName: __ZNSt11char_traitsIcE2ltERKcS2_, symObjAddr: 0x1D8, symBinAddr: 0x100001578, symSize: 0x38 }
  - { offsetInCU: 0x2D755, offset: 0x2D755, size: 0x8, addend: 0x0, symName: __ZdlPvS_, symObjAddr: 0x198, symBinAddr: 0x100001538, symSize: 0x18 }
  - { offsetInCU: 0x2D75D, offset: 0x2D75D, size: 0x8, addend: 0x0, symName: __ZNSt11char_traitsIcE6assignERcRKc, symObjAddr: 0x1B0, symBinAddr: 0x100001550, symSize: 0x28 }
  - { offsetInCU: 0x2D795, offset: 0x2D795, size: 0x8, addend: 0x0, symName: __ZnwmPv, symObjAddr: 0x180, symBinAddr: 0x100001520, symSize: 0x18 }
  - { offsetInCU: 0x2D79D, offset: 0x2D79D, size: 0x8, addend: 0x0, symName: __ZdlPvS_, symObjAddr: 0x198, symBinAddr: 0x100001538, symSize: 0x18 }
  - { offsetInCU: 0x2D7CF, offset: 0x2D7CF, size: 0x8, addend: 0x0, symName: __ZN11__gnu_debug16_Error_formatter5_S_atEPKcjS2_, symObjAddr: 0xEC, symBinAddr: 0x10000148C, symSize: 0x94 }
  - { offsetInCU: 0x2D7D7, offset: 0x2D7D7, size: 0x8, addend: 0x0, symName: __ZnwmPv, symObjAddr: 0x180, symBinAddr: 0x100001520, symSize: 0x18 }
  - { offsetInCU: 0x2D87F, offset: 0x2D87F, size: 0x8, addend: 0x0, symName: __ZZN11__gnu_debug16_Error_formatter5_S_atEPKcjS2_E11__formatter, symObjAddr: 0x5768, symBinAddr: 0x100010000, symSize: 0x0 }
  - { offsetInCU: 0x2D8C9, offset: 0x2D8C9, size: 0x8, addend: 0x0, symName: __ZN11__gnu_debug16_Error_formatterC1EPKcjS2_, symObjAddr: 0x60, symBinAddr: 0x100001400, symSize: 0x8C }
  - { offsetInCU: 0x2D8D1, offset: 0x2D8D1, size: 0x8, addend: 0x0, symName: __ZN11__gnu_debug16_Error_formatter5_S_atEPKcjS2_, symObjAddr: 0xEC, symBinAddr: 0x10000148C, symSize: 0x94 }
  - { offsetInCU: 0x2D93F, offset: 0x2D93F, size: 0x8, addend: 0x0, symName: __ZN11__gnu_debug16_Error_formatter10_ParameterC1Ev, symObjAddr: 0x30, symBinAddr: 0x1000013D0, symSize: 0x30 }
  - { offsetInCU: 0x2D947, offset: 0x2D947, size: 0x8, addend: 0x0, symName: __ZN11__gnu_debug16_Error_formatterC1EPKcjS2_, symObjAddr: 0x60, symBinAddr: 0x100001400, symSize: 0x8C }
  - { offsetInCU: 0x2D969, offset: 0x2D969, size: 0x8, addend: 0x0, symName: __ZNSt9exceptionC2Ev, symObjAddr: 0x8, symBinAddr: 0x1000013A8, symSize: 0x28 }
  - { offsetInCU: 0x2D971, offset: 0x2D971, size: 0x8, addend: 0x0, symName: __ZN11__gnu_debug16_Error_formatter10_ParameterC1Ev, symObjAddr: 0x30, symBinAddr: 0x1000013D0, symSize: 0x30 }
  - { offsetInCU: 0x2D9C2, offset: 0x2D9C2, size: 0x8, addend: 0x0, symName: __ZSt23__is_constant_evaluatedv, symObjAddr: 0x0, symBinAddr: 0x1000013A0, symSize: 0x8 }
  - { offsetInCU: 0x2D9CA, offset: 0x2D9CA, size: 0x8, addend: 0x0, symName: __ZNSt9exceptionC2Ev, symObjAddr: 0x8, symBinAddr: 0x1000013A8, symSize: 0x28 }
...
