---
triple:          'arm64-apple-darwin'
binary-path:     1225D
relocations:
  - { offsetInCU: 0x96, offset: 0x96, size: 0x8, addend: 0x0, symName: __ZSt23__is_constant_evaluatedv, symObjAddr: 0x0, symBinAddr: 0x100003370, symSize: 0x8 }
  - { offsetInCU: 0x9E, offset: 0x9E, size: 0x8, addend: 0x0, symName: __ZSt19piecewise_construct, symObjAddr: 0x8990, symBinAddr: 0x10000D1E0, symSize: 0x0 }
  - { offsetInCU: 0x789, offset: 0x789, size: 0x8, addend: 0x0, symName: __ZSt19piecewise_construct, symObjAddr: 0x8990, symBinAddr: 0x10000D1E0, symSize: 0x0 }
  - { offsetInCU: 0x1DD8F, offset: 0x1DD8F, size: 0x8, addend: 0x0, symName: __ZStL8__ioinit, symObjAddr: 0xDA580, symBinAddr: 0x10001842E, symSize: 0x0 }
  - { offsetInCU: 0x2100B, offset: 0x2100B, size: 0x8, addend: 0x0, symName: __ZL3INF, symObjAddr: 0x8998, symBinAddr: 0x10000D1E8, symSize: 0x0 }
  - { offsetInCU: 0x21028, offset: 0x21028, size: 0x8, addend: 0x0, symName: __ZL6INF_LL, symObjAddr: 0x89A0, symBinAddr: 0x10000D1F0, symSize: 0x0 }
  - { offsetInCU: 0x2103F, offset: 0x2103F, size: 0x8, addend: 0x0, symName: __ZL3mxN, symObjAddr: 0x89A8, symBinAddr: 0x10000D1F8, symSize: 0x0 }
  - { offsetInCU: 0x21059, offset: 0x21059, size: 0x8, addend: 0x0, symName: __ZL3mxK, symObjAddr: 0x89B0, symBinAddr: 0x10000D200, symSize: 0x0 }
  - { offsetInCU: 0x21073, offset: 0x21073, size: 0x8, addend: 0x0, symName: _N, symObjAddr: 0xDA588, symBinAddr: 0x100018430, symSize: 0x0 }
  - { offsetInCU: 0x2108E, offset: 0x2108E, size: 0x8, addend: 0x0, symName: _K, symObjAddr: 0xDA590, symBinAddr: 0x100018438, symSize: 0x0 }
  - { offsetInCU: 0x26174, offset: 0x26174, size: 0x8, addend: 0x0, symName: __Z3pfsB5cxx11, symObjAddr: 0xDA598, symBinAddr: 0x100018440, symSize: 0x0 }
  - { offsetInCU: 0x2DEA6, offset: 0x2DEA6, size: 0x8, addend: 0x0, symName: __ZNSt8__detail30__integer_to_chars_is_unsignedIjEE, symObjAddr: 0x8B57, symBinAddr: 0x10000D3A7, symSize: 0x0 }
  - { offsetInCU: 0x2DEC0, offset: 0x2DEC0, size: 0x8, addend: 0x0, symName: __ZNSt8__detail30__integer_to_chars_is_unsignedImEE, symObjAddr: 0x8B58, symBinAddr: 0x10000D3A8, symSize: 0x0 }
  - { offsetInCU: 0x2DEDA, offset: 0x2DEDA, size: 0x8, addend: 0x0, symName: __ZNSt8__detail30__integer_to_chars_is_unsignedIyEE, symObjAddr: 0x8B59, symBinAddr: 0x10000D3A9, symSize: 0x0 }
  - { offsetInCU: 0x2E0A1, offset: 0x2E0A1, size: 0x8, addend: 0x0, symName: __GLOBAL__sub_I_1225D.cpp, symObjAddr: 0x897C, symBinAddr: 0x10000BCEC, symSize: 0x14 }
  - { offsetInCU: 0x2E0A9, offset: 0x2E0A9, size: 0x8, addend: 0x0, symName: __ZSt19piecewise_construct, symObjAddr: 0x8990, symBinAddr: 0x10000D1E0, symSize: 0x0 }
  - { offsetInCU: 0x2E0CD, offset: 0x2E0CD, size: 0x8, addend: 0x0, symName: __Z41__static_initialization_and_destruction_0v, symObjAddr: 0x8918, symBinAddr: 0x10000BC88, symSize: 0x64 }
  - { offsetInCU: 0x2E0D5, offset: 0x2E0D5, size: 0x8, addend: 0x0, symName: __GLOBAL__sub_I_1225D.cpp, symObjAddr: 0x897C, symBinAddr: 0x10000BCEC, symSize: 0x14 }
  - { offsetInCU: 0x2E170, offset: 0x2E170, size: 0x8, addend: 0x0, symName: __ZNSt7__debug13unordered_mapINSt7__cxx1112basic_stringIcSt11char_traitsIcESaIcEEExSt4hashIS6_ESt8equal_toIS6_ESaISt4pairIKS6_xEEED1Ev, symObjAddr: 0x88EC, symBinAddr: 0x10000BC5C, symSize: 0x2C }
  - { offsetInCU: 0x2E178, offset: 0x2E178, size: 0x8, addend: 0x0, symName: __Z41__static_initialization_and_destruction_0v, symObjAddr: 0x8918, symBinAddr: 0x10000BC88, symSize: 0x64 }
  - { offsetInCU: 0x2E11A, offset: 0x2E11A, size: 0x8, addend: 0x0, symName: __ZNSt10_Head_baseILm0ERKxLb0EE7_M_headERS2_, symObjAddr: 0x88D4, symBinAddr: 0x10000BC44, symSize: 0x18 }
  - { offsetInCU: 0x2E122, offset: 0x2E122, size: 0x8, addend: 0x0, symName: __ZNSt7__debug13unordered_mapINSt7__cxx1112basic_stringIcSt11char_traitsIcESaIcEEExSt4hashIS6_ESt8equal_toIS6_ESaISt4pairIKS6_xEEED1Ev, symObjAddr: 0x88EC, symBinAddr: 0x10000BC5C, symSize: 0x2C }
  - { offsetInCU: 0x2E14D, offset: 0x2E14D, size: 0x8, addend: 0x0, symName: __ZNSt10_Head_baseILm0ERKNSt7__cxx1112basic_stringIcSt11char_traitsIcESaIcEEELb0EE7_M_headERS8_, symObjAddr: 0x88BC, symBinAddr: 0x10000BC2C, symSize: 0x18 }
  - { offsetInCU: 0x2E155, offset: 0x2E155, size: 0x8, addend: 0x0, symName: __ZNSt10_Head_baseILm0ERKxLb0EE7_M_headERS2_, symObjAddr: 0x88D4, symBinAddr: 0x10000BC44, symSize: 0x18 }
  - { offsetInCU: 0x2E180, offset: 0x2E180, size: 0x8, addend: 0x0, symName: __ZNSt11_Tuple_implILm0EJRKxEE7_M_headERS2_, symObjAddr: 0x88A0, symBinAddr: 0x10000BC10, symSize: 0x1C }
  - { offsetInCU: 0x2E188, offset: 0x2E188, size: 0x8, addend: 0x0, symName: __ZNSt10_Head_baseILm0ERKNSt7__cxx1112basic_stringIcSt11char_traitsIcESaIcEEELb0EE7_M_headERS8_, symObjAddr: 0x88BC, symBinAddr: 0x10000BC2C, symSize: 0x18 }
  - { offsetInCU: 0x2E1B4, offset: 0x2E1B4, size: 0x8, addend: 0x0, symName: __ZNSt11_Tuple_implILm0EJRKNSt7__cxx1112basic_stringIcSt11char_traitsIcESaIcEEEEE7_M_headERS8_, symObjAddr: 0x8884, symBinAddr: 0x10000BBF4, symSize: 0x1C }
  - { offsetInCU: 0x2E1BC, offset: 0x2E1BC, size: 0x8, addend: 0x0, symName: __ZNSt11_Tuple_implILm0EJRKxEE7_M_headERS2_, symObjAddr: 0x88A0, symBinAddr: 0x10000BC10, symSize: 0x1C }
  - { offsetInCU: 0x2E255, offset: 0x2E255, size: 0x8, addend: 0x0, symName: __ZSt12__get_helperILm0ERKxJEERT0_RSt11_Tuple_implIXT_EJS2_DpT1_EE, symObjAddr: 0x8868, symBinAddr: 0x10000BBD8, symSize: 0x1C }
  - { offsetInCU: 0x2E25D, offset: 0x2E25D, size: 0x8, addend: 0x0, symName: __ZNSt11_Tuple_implILm0EJRKNSt7__cxx1112basic_stringIcSt11char_traitsIcESaIcEEEEE7_M_headERS8_, symObjAddr: 0x8884, symBinAddr: 0x10000BBF4, symSize: 0x1C }
  - { offsetInCU: 0x2E317, offset: 0x2E317, size: 0x8, addend: 0x0, symName: __ZSt12__get_helperILm0ERKNSt7__cxx1112basic_stringIcSt11char_traitsIcESaIcEEEJEERT0_RSt11_Tuple_implIXT_EJS8_DpT1_EE, symObjAddr: 0x884C, symBinAddr: 0x10000BBBC, symSize: 0x1C }
  - { offsetInCU: 0x2E31F, offset: 0x2E31F, size: 0x8, addend: 0x0, symName: __ZSt12__get_helperILm0ERKxJEERT0_RSt11_Tuple_implIXT_EJS2_DpT1_EE, symObjAddr: 0x8868, symBinAddr: 0x10000BBD8, symSize: 0x1C }
  - { offsetInCU: 0x2E31D, offset: 0x2E31D, size: 0x8, addend: 0x0, symName: __ZSt7forwardIRKxEOT_RNSt16remove_referenceIS2_E4typeE, symObjAddr: 0x8838, symBinAddr: 0x10000BBA8, symSize: 0x14 }
  - { offsetInCU: 0x2E325, offset: 0x2E325, size: 0x8, addend: 0x0, symName: __ZSt12__get_helperILm0ERKNSt7__cxx1112basic_stringIcSt11char_traitsIcESaIcEEEJEERT0_RSt11_Tuple_implIXT_EJS8_DpT1_EE, symObjAddr: 0x884C, symBinAddr: 0x10000BBBC, symSize: 0x1C }
  - { offsetInCU: 0x2E385, offset: 0x2E385, size: 0x8, addend: 0x0, symName: __ZSt3getILm0EJRKxEERNSt13tuple_elementIXT_ESt5tupleIJDpT0_EEE4typeERS6_, symObjAddr: 0x881C, symBinAddr: 0x10000BB8C, symSize: 0x1C }
  - { offsetInCU: 0x2E38D, offset: 0x2E38D, size: 0x8, addend: 0x0, symName: __ZSt7forwardIRKxEOT_RNSt16remove_referenceIS2_E4typeE, symObjAddr: 0x8838, symBinAddr: 0x10000BBA8, symSize: 0x14 }
  - { offsetInCU: 0x2E3C8, offset: 0x2E3C8, size: 0x8, addend: 0x0, symName: __ZSt7forwardIxEOT_RNSt16remove_referenceIS0_E4typeE, symObjAddr: 0x8808, symBinAddr: 0x10000BB78, symSize: 0x14 }
  - { offsetInCU: 0x2E3D0, offset: 0x2E3D0, size: 0x8, addend: 0x0, symName: __ZSt3getILm0EJRKxEERNSt13tuple_elementIXT_ESt5tupleIJDpT0_EEE4typeERS6_, symObjAddr: 0x881C, symBinAddr: 0x10000BB8C, symSize: 0x1C }
  - { offsetInCU: 0x2E3CF, offset: 0x2E3CF, size: 0x8, addend: 0x0, symName: __ZNSt15__new_allocatorIPNSt8__detail15_Hash_node_baseEE8allocateEmPKv, symObjAddr: 0x878C, symBinAddr: 0x10000BAFC, symSize: 0x7C }
  - { offsetInCU: 0x2E3D7, offset: 0x2E3D7, size: 0x8, addend: 0x0, symName: __ZSt7forwardIxEOT_RNSt16remove_referenceIS0_E4typeE, symObjAddr: 0x8808, symBinAddr: 0x10000BB78, symSize: 0x14 }
  - { offsetInCU: 0x2E4FB, offset: 0x2E4FB, size: 0x8, addend: 0x0, symName: __ZSt7forwardIRKNSt7__cxx1112basic_stringIcSt11char_traitsIcESaIcEEEEOT_RNSt16remove_referenceIS8_E4typeE, symObjAddr: 0x8778, symBinAddr: 0x10000BAE8, symSize: 0x14 }
  - { offsetInCU: 0x2E503, offset: 0x2E503, size: 0x8, addend: 0x0, symName: __ZNSt15__new_allocatorIPNSt8__detail15_Hash_node_baseEE8allocateEmPKv, symObjAddr: 0x878C, symBinAddr: 0x10000BAFC, symSize: 0x7C }
  - { offsetInCU: 0x2E592, offset: 0x2E592, size: 0x8, addend: 0x0, symName: __ZSt3getILm0EJRKNSt7__cxx1112basic_stringIcSt11char_traitsIcESaIcEEEEERNSt13tuple_elementIXT_ESt5tupleIJDpT0_EEE4typeERSC_, symObjAddr: 0x875C, symBinAddr: 0x10000BACC, symSize: 0x1C }
  - { offsetInCU: 0x2E59A, offset: 0x2E59A, size: 0x8, addend: 0x0, symName: __ZSt7forwardIRKNSt7__cxx1112basic_stringIcSt11char_traitsIcESaIcEEEEOT_RNSt16remove_referenceIS8_E4typeE, symObjAddr: 0x8778, symBinAddr: 0x10000BAE8, symSize: 0x14 }
  - { offsetInCU: 0x2E5FD, offset: 0x2E5FD, size: 0x8, addend: 0x0, symName: __ZNSt4pairIKxxEC1IJRS0_EJLm0EEJEJEEERSt5tupleIJDpT_EERS4_IJDpT1_EESt12_Index_tupleIJXspT0_EEESD_IJXspT2_EEE, symObjAddr: 0x8714, symBinAddr: 0x10000BA84, symSize: 0x48 }
  - { offsetInCU: 0x2E605, offset: 0x2E605, size: 0x8, addend: 0x0, symName: __ZSt3getILm0EJRKNSt7__cxx1112basic_stringIcSt11char_traitsIcESaIcEEEEERNSt13tuple_elementIXT_ESt5tupleIJDpT0_EEE4typeERSC_, symObjAddr: 0x875C, symBinAddr: 0x10000BACC, symSize: 0x1C }
  - { offsetInCU: 0x2E690, offset: 0x2E690, size: 0x8, addend: 0x0, symName: __ZNSt4pairIKxxEC1IxiLb1EEEOS_IT_T0_E, symObjAddr: 0x86C8, symBinAddr: 0x10000BA38, symSize: 0x4C }
  - { offsetInCU: 0x2E698, offset: 0x2E698, size: 0x8, addend: 0x0, symName: __ZNSt4pairIKxxEC1IJRS0_EJLm0EEJEJEEERSt5tupleIJDpT_EERS4_IJDpT1_EESt12_Index_tupleIJXspT0_EEESD_IJXspT2_EEE, symObjAddr: 0x8714, symBinAddr: 0x10000BA84, symSize: 0x48 }
  - { offsetInCU: 0x2E72E, offset: 0x2E72E, size: 0x8, addend: 0x0, symName: __ZSt12__to_addressIPNSt8__detail15_Hash_node_baseEEPT_S4_, symObjAddr: 0x86B4, symBinAddr: 0x10000BA24, symSize: 0x14 }
  - { offsetInCU: 0x2E736, offset: 0x2E736, size: 0x8, addend: 0x0, symName: __ZNSt4pairIKxxEC1IxiLb1EEEOS_IT_T0_E, symObjAddr: 0x86C8, symBinAddr: 0x10000BA38, symSize: 0x4C }
  - { offsetInCU: 0x2E85D, offset: 0x2E85D, size: 0x8, addend: 0x0, symName: __ZNSt4pairIKNSt7__cxx1112basic_stringIcSt11char_traitsIcESaIcEEExEC1IJRS6_EJLm0EEJEJEEERSt5tupleIJDpT_EERSA_IJDpT1_EESt12_Index_tupleIJXspT0_EEESJ_IJXspT2_EEE, symObjAddr: 0x8660, symBinAddr: 0x10000B9D0, symSize: 0x54 }
  - { offsetInCU: 0x2E865, offset: 0x2E865, size: 0x8, addend: 0x0, symName: __ZSt12__to_addressIPNSt8__detail15_Hash_node_baseEEPT_S4_, symObjAddr: 0x86B4, symBinAddr: 0x10000BA24, symSize: 0x14 }
  - { offsetInCU: 0x2E856, offset: 0x2E856, size: 0x8, addend: 0x0, symName: __ZNK9__gnu_cxx16__aligned_bufferISt4pairIKNSt7__cxx1112basic_stringIcSt11char_traitsIcESaIcEEExEE7_M_addrEv, symObjAddr: 0x864C, symBinAddr: 0x10000B9BC, symSize: 0x14 }
  - { offsetInCU: 0x2E85E, offset: 0x2E85E, size: 0x8, addend: 0x0, symName: __ZNSt4pairIKNSt7__cxx1112basic_stringIcSt11char_traitsIcESaIcEEExEC1IJRS6_EJLm0EEJEJEEERSt5tupleIJDpT_EERSA_IJDpT1_EESt12_Index_tupleIJXspT0_EEESJ_IJXspT2_EEE, symObjAddr: 0x8660, symBinAddr: 0x10000B9D0, symSize: 0x54 }
  - { offsetInCU: 0x2E938, offset: 0x2E938, size: 0x8, addend: 0x0, symName: __ZNSt4pairIKxxEC1IJRS0_EJEEESt21piecewise_construct_tSt5tupleIJDpT_EES5_IJDpT0_EE, symObjAddr: 0x8610, symBinAddr: 0x10000B980, symSize: 0x3C }
  - { offsetInCU: 0x2E940, offset: 0x2E940, size: 0x8, addend: 0x0, symName: __ZNK9__gnu_cxx16__aligned_bufferISt4pairIKNSt7__cxx1112basic_stringIcSt11char_traitsIcESaIcEEExEE7_M_addrEv, symObjAddr: 0x864C, symBinAddr: 0x10000B9BC, symSize: 0x14 }
  - { offsetInCU: 0x2E9A4, offset: 0x2E9A4, size: 0x8, addend: 0x0, symName: __ZNSt11_Tuple_implILm0EJRKxEEC2EOS2_, symObjAddr: 0x85E8, symBinAddr: 0x10000B958, symSize: 0x28 }
  - { offsetInCU: 0x2E9AC, offset: 0x2E9AC, size: 0x8, addend: 0x0, symName: __ZNSt4pairIKxxEC1IJRS0_EJEEESt21piecewise_construct_tSt5tupleIJDpT_EES5_IJDpT0_EE, symObjAddr: 0x8610, symBinAddr: 0x10000B980, symSize: 0x3C }
  - { offsetInCU: 0x2EB1B, offset: 0x2EB1B, size: 0x8, addend: 0x0, symName: __ZSt11__addressofINSt8__detail10_Hash_nodeISt4pairIKNSt7__cxx1112basic_stringIcSt11char_traitsIcESaIcEEExELb1EEEEPT_RSC_, symObjAddr: 0x85D4, symBinAddr: 0x10000B944, symSize: 0x14 }
  - { offsetInCU: 0x2EB23, offset: 0x2EB23, size: 0x8, addend: 0x0, symName: __ZNSt11_Tuple_implILm0EJRKxEEC2EOS2_, symObjAddr: 0x85E8, symBinAddr: 0x10000B958, symSize: 0x28 }
  - { offsetInCU: 0x2EA7A, offset: 0x2EA7A, size: 0x8, addend: 0x0, symName: __ZNSt8__detail16_Hashtable_allocISaINS_10_Hash_nodeISt4pairIKNSt7__cxx1112basic_stringIcSt11char_traitsIcESaIcEEExELb1EEEEE19_M_allocate_bucketsEm, symObjAddr: 0x851C, symBinAddr: 0x10000B88C, symSize: 0xB8 }
  - { offsetInCU: 0x2EA82, offset: 0x2EA82, size: 0x8, addend: 0x0, symName: __ZSt11__addressofINSt8__detail10_Hash_nodeISt4pairIKNSt7__cxx1112basic_stringIcSt11char_traitsIcESaIcEEExELb1EEEEPT_RSC_, symObjAddr: 0x85D4, symBinAddr: 0x10000B944, symSize: 0x14 }
  - { offsetInCU: 0x2ECB6, offset: 0x2ECB6, size: 0x8, addend: 0x0, symName: __ZNSt4pairIKNSt7__cxx1112basic_stringIcSt11char_traitsIcESaIcEEExEC1IJRS6_EJEEESt21piecewise_construct_tSt5tupleIJDpT_EESB_IJDpT0_EE, symObjAddr: 0x84E0, symBinAddr: 0x10000B850, symSize: 0x3C }
  - { offsetInCU: 0x2ECBE, offset: 0x2ECBE, size: 0x8, addend: 0x0, symName: __ZNSt8__detail16_Hashtable_allocISaINS_10_Hash_nodeISt4pairIKNSt7__cxx1112basic_stringIcSt11char_traitsIcESaIcEEExELb1EEEEE19_M_allocate_bucketsEm, symObjAddr: 0x851C, symBinAddr: 0x10000B88C, symSize: 0xB8 }
  - { offsetInCU: 0x2ED22, offset: 0x2ED22, size: 0x8, addend: 0x0, symName: __ZNSt11_Tuple_implILm0EJRKNSt7__cxx1112basic_stringIcSt11char_traitsIcESaIcEEEEEC2EOS8_, symObjAddr: 0x84B8, symBinAddr: 0x10000B828, symSize: 0x28 }
  - { offsetInCU: 0x2ED2A, offset: 0x2ED2A, size: 0x8, addend: 0x0, symName: __ZNSt4pairIKNSt7__cxx1112basic_stringIcSt11char_traitsIcESaIcEEExEC1IJRS6_EJEEESt21piecewise_construct_tSt5tupleIJDpT_EESB_IJDpT0_EE, symObjAddr: 0x84E0, symBinAddr: 0x10000B850, symSize: 0x3C }
  - { offsetInCU: 0x2ED22, offset: 0x2ED22, size: 0x8, addend: 0x0, symName: __ZNK9__gnu_cxx16__aligned_bufferISt4pairIKNSt7__cxx1112basic_stringIcSt11char_traitsIcESaIcEEExEE6_M_ptrEv, symObjAddr: 0x849C, symBinAddr: 0x10000B80C, symSize: 0x1C }
  - { offsetInCU: 0x2ED2A, offset: 0x2ED2A, size: 0x8, addend: 0x0, symName: __ZNSt11_Tuple_implILm0EJRKNSt7__cxx1112basic_stringIcSt11char_traitsIcESaIcEEEEEC2EOS8_, symObjAddr: 0x84B8, symBinAddr: 0x10000B828, symSize: 0x28 }
  - { offsetInCU: 0x2ED58, offset: 0x2ED58, size: 0x8, addend: 0x0, symName: __ZNK9__gnu_cxx16__aligned_membufISt4pairIKxxEE7_M_addrEv, symObjAddr: 0x8488, symBinAddr: 0x10000B7F8, symSize: 0x14 }
  - { offsetInCU: 0x2ED60, offset: 0x2ED60, size: 0x8, addend: 0x0, symName: __ZNK9__gnu_cxx16__aligned_bufferISt4pairIKNSt7__cxx1112basic_stringIcSt11char_traitsIcESaIcEEExEE6_M_ptrEv, symObjAddr: 0x849C, symBinAddr: 0x10000B80C, symSize: 0x1C }
  - { offsetInCU: 0x2EE59, offset: 0x2EE59, size: 0x8, addend: 0x0, symName: __ZNSt5tupleIJRKxEEC1EOS2_, symObjAddr: 0x8460, symBinAddr: 0x10000B7D0, symSize: 0x28 }
  - { offsetInCU: 0x2EE61, offset: 0x2EE61, size: 0x8, addend: 0x0, symName: __ZNK9__gnu_cxx16__aligned_membufISt4pairIKxxEE7_M_addrEv, symObjAddr: 0x8488, symBinAddr: 0x10000B7F8, symSize: 0x14 }
  - { offsetInCU: 0x2EE7C, offset: 0x2EE7C, size: 0x8, addend: 0x0, symName: __ZNSt15__new_allocatorISt13_Rb_tree_nodeISt4pairIKxxEEE8allocateEmPKv, symObjAddr: 0x83D0, symBinAddr: 0x10000B740, symSize: 0x90 }
  - { offsetInCU: 0x2EE84, offset: 0x2EE84, size: 0x8, addend: 0x0, symName: __ZNSt5tupleIJRKxEEC1EOS2_, symObjAddr: 0x8460, symBinAddr: 0x10000B7D0, symSize: 0x28 }
  - { offsetInCU: 0x2EFD1, offset: 0x2EFD1, size: 0x8, addend: 0x0, symName: __ZSt11__addressofIPNSt8__detail15_Hash_node_baseEEPT_RS3_, symObjAddr: 0x83BC, symBinAddr: 0x10000B72C, symSize: 0x14 }
  - { offsetInCU: 0x2EFD9, offset: 0x2EFD9, size: 0x8, addend: 0x0, symName: __ZNSt15__new_allocatorISt13_Rb_tree_nodeISt4pairIKxxEEE8allocateEmPKv, symObjAddr: 0x83D0, symBinAddr: 0x10000B740, symSize: 0x90 }
  - { offsetInCU: 0x2F09A, offset: 0x2F09A, size: 0x8, addend: 0x0, symName: __ZSt9addressofINSt8__detail10_Hash_nodeISt4pairIKNSt7__cxx1112basic_stringIcSt11char_traitsIcESaIcEEExELb1EEEEPT_RSC_, symObjAddr: 0x83A0, symBinAddr: 0x10000B710, symSize: 0x1C }
  - { offsetInCU: 0x2F0A2, offset: 0x2F0A2, size: 0x8, addend: 0x0, symName: __ZSt11__addressofIPNSt8__detail15_Hash_node_baseEEPT_RS3_, symObjAddr: 0x83BC, symBinAddr: 0x10000B72C, symSize: 0x14 }
  - { offsetInCU: 0x2EFFE, offset: 0x2EFFE, size: 0x8, addend: 0x0, symName: __ZNSt10_HashtableINSt7__cxx1112basic_stringIcSt11char_traitsIcESaIcEEESt4pairIKS5_xESaIS8_ENSt8__detail10_Select1stESt8equal_toIS5_ESt4hashIS5_ENSA_18_Mod_range_hashingENSA_20_Default_ranged_hashENSA_20_Prime_rehash_policyENSA_17_Hashtable_traitsILb1ELb0ELb1EEEE19_M_allocate_bucketsEm, symObjAddr: 0x8348, symBinAddr: 0x10000B6B8, symSize: 0x58 }
  - { offsetInCU: 0x2F006, offset: 0x2F006, size: 0x8, addend: 0x0, symName: __ZSt9addressofINSt8__detail10_Hash_nodeISt4pairIKNSt7__cxx1112basic_stringIcSt11char_traitsIcESaIcEEExELb1EEEEPT_RSC_, symObjAddr: 0x83A0, symBinAddr: 0x10000B710, symSize: 0x1C }
  - { offsetInCU: 0x2F044, offset: 0x2F044, size: 0x8, addend: 0x0, symName: __ZNSt15__new_allocatorINSt8__detail10_Hash_nodeISt4pairIKNSt7__cxx1112basic_stringIcSt11char_traitsIcESaIcEEExELb1EEEE10deallocateEPSB_m, symObjAddr: 0x830C, symBinAddr: 0x10000B67C, symSize: 0x3C }
  - { offsetInCU: 0x2F04C, offset: 0x2F04C, size: 0x8, addend: 0x0, symName: __ZNSt10_HashtableINSt7__cxx1112basic_stringIcSt11char_traitsIcESaIcEEESt4pairIKS5_xESaIS8_ENSt8__detail10_Select1stESt8equal_toIS5_ESt4hashIS5_ENSA_18_Mod_range_hashingENSA_20_Default_ranged_hashENSA_20_Prime_rehash_policyENSA_17_Hashtable_traitsILb1ELb0ELb1EEEE19_M_allocate_bucketsEm, symObjAddr: 0x8348, symBinAddr: 0x10000B6B8, symSize: 0x58 }
  - { offsetInCU: 0x2F189, offset: 0x2F189, size: 0x8, addend: 0x0, symName: __ZNSt5tupleIJRKNSt7__cxx1112basic_stringIcSt11char_traitsIcESaIcEEEEEC1EOS8_, symObjAddr: 0x82E4, symBinAddr: 0x10000B654, symSize: 0x28 }
  - { offsetInCU: 0x2F191, offset: 0x2F191, size: 0x8, addend: 0x0, symName: __ZNSt15__new_allocatorINSt8__detail10_Hash_nodeISt4pairIKNSt7__cxx1112basic_stringIcSt11char_traitsIcESaIcEEExELb1EEEE10deallocateEPSB_m, symObjAddr: 0x830C, symBinAddr: 0x10000B67C, symSize: 0x3C }
  - { offsetInCU: 0x2F179, offset: 0x2F179, size: 0x8, addend: 0x0, symName: __ZNSt15__new_allocatorINSt8__detail10_Hash_nodeISt4pairIKNSt7__cxx1112basic_stringIcSt11char_traitsIcESaIcEEExELb1EEEE8allocateEmPKv, symObjAddr: 0x8244, symBinAddr: 0x10000B5B4, symSize: 0xA0 }
  - { offsetInCU: 0x2F181, offset: 0x2F181, size: 0x8, addend: 0x0, symName: __ZNSt5tupleIJRKNSt7__cxx1112basic_stringIcSt11char_traitsIcESaIcEEEEEC1EOS8_, symObjAddr: 0x82E4, symBinAddr: 0x10000B654, symSize: 0x28 }
  - { offsetInCU: 0x2F20C, offset: 0x2F20C, size: 0x8, addend: 0x0, symName: __ZN9__gnu_cxx16__aligned_bufferISt4pairIKNSt7__cxx1112basic_stringIcSt11char_traitsIcESaIcEEExEE7_M_addrEv, symObjAddr: 0x8230, symBinAddr: 0x10000B5A0, symSize: 0x14 }
  - { offsetInCU: 0x2F214, offset: 0x2F214, size: 0x8, addend: 0x0, symName: __ZNSt15__new_allocatorINSt8__detail10_Hash_nodeISt4pairIKNSt7__cxx1112basic_stringIcSt11char_traitsIcESaIcEEExELb1EEEE8allocateEmPKv, symObjAddr: 0x8244, symBinAddr: 0x10000B5B4, symSize: 0xA0 }
  - { offsetInCU: 0x2F240, offset: 0x2F240, size: 0x8, addend: 0x0, symName: __ZNKSt8__detail15_Hash_code_baseINSt7__cxx1112basic_stringIcSt11char_traitsIcESaIcEEESt4pairIKS6_xENS_10_Select1stESt4hashIS6_ENS_18_Mod_range_hashingENS_20_Default_ranged_hashELb1EE15_M_bucket_indexERKNS_16_Hash_node_valueIS9_Lb1EEEm, symObjAddr: 0x8200, symBinAddr: 0x10000B570, symSize: 0x30 }
  - { offsetInCU: 0x2F248, offset: 0x2F248, size: 0x8, addend: 0x0, symName: __ZN9__gnu_cxx16__aligned_bufferISt4pairIKNSt7__cxx1112basic_stringIcSt11char_traitsIcESaIcEEExEE7_M_addrEv, symObjAddr: 0x8230, symBinAddr: 0x10000B5A0, symSize: 0x14 }
  - { offsetInCU: 0x2F29B, offset: 0x2F29B, size: 0x8, addend: 0x0, symName: __ZNSt8__detail15_Hashtable_baseINSt7__cxx1112basic_stringIcSt11char_traitsIcESaIcEEESt4pairIKS6_xENS_10_Select1stESt8equal_toIS6_ESt4hashIS6_ENS_18_Mod_range_hashingENS_20_Default_ranged_hashENS_17_Hashtable_traitsILb1ELb0ELb1EEEE9_S_equalsEmRKNS_21_Hash_node_code_cacheILb1EEE, symObjAddr: 0x81D4, symBinAddr: 0x10000B544, symSize: 0x2C }
  - { offsetInCU: 0x2F2A3, offset: 0x2F2A3, size: 0x8, addend: 0x0, symName: __ZNKSt8__detail15_Hash_code_baseINSt7__cxx1112basic_stringIcSt11char_traitsIcESaIcEEESt4pairIKS6_xENS_10_Select1stESt4hashIS6_ENS_18_Mod_range_hashingENS_20_Default_ranged_hashELb1EE15_M_bucket_indexERKNS_16_Hash_node_valueIS9_Lb1EEEm, symObjAddr: 0x8200, symBinAddr: 0x10000B570, symSize: 0x30 }
  - { offsetInCU: 0x2F374, offset: 0x2F374, size: 0x8, addend: 0x0, symName: __ZSteqIcSt11char_traitsIcESaIcEEbRKNSt7__cxx1112basic_stringIT_T0_T1_EESA_, symObjAddr: 0x8154, symBinAddr: 0x10000B4C4, symSize: 0x80 }
  - { offsetInCU: 0x2F37C, offset: 0x2F37C, size: 0x8, addend: 0x0, symName: __ZNSt8__detail15_Hashtable_baseINSt7__cxx1112basic_stringIcSt11char_traitsIcESaIcEEESt4pairIKS6_xENS_10_Select1stESt8equal_toIS6_ESt4hashIS6_ENS_18_Mod_range_hashingENS_20_Default_ranged_hashENS_17_Hashtable_traitsILb1ELb0ELb1EEEE9_S_equalsEmRKNS_21_Hash_node_code_cacheILb1EEE, symObjAddr: 0x81D4, symBinAddr: 0x10000B544, symSize: 0x2C }
  - { offsetInCU: 0x2F42A, offset: 0x2F42A, size: 0x8, addend: 0x0, symName: __ZSt7forwardIRKSt4pairIKNSt7__cxx1112basic_stringIcSt11char_traitsIcESaIcEEExEEOT_RNSt16remove_referenceISB_E4typeE, symObjAddr: 0x8140, symBinAddr: 0x10000B4B0, symSize: 0x14 }
  - { offsetInCU: 0x2F432, offset: 0x2F432, size: 0x8, addend: 0x0, symName: __ZSteqIcSt11char_traitsIcESaIcEEbRKNSt7__cxx1112basic_stringIT_T0_T1_EESA_, symObjAddr: 0x8154, symBinAddr: 0x10000B4C4, symSize: 0x80 }
  - { offsetInCU: 0x2F3B7, offset: 0x2F3B7, size: 0x8, addend: 0x0, symName: __ZNKSt8__detail21_Hash_node_value_baseISt4pairIKNSt7__cxx1112basic_stringIcSt11char_traitsIcESaIcEEExEE9_M_valptrEv, symObjAddr: 0x8124, symBinAddr: 0x10000B494, symSize: 0x1C }
  - { offsetInCU: 0x2F3BF, offset: 0x2F3BF, size: 0x8, addend: 0x0, symName: __ZSt7forwardIRKSt4pairIKNSt7__cxx1112basic_stringIcSt11char_traitsIcESaIcEEExEEOT_RNSt16remove_referenceISB_E4typeE, symObjAddr: 0x8140, symBinAddr: 0x10000B4B0, symSize: 0x14 }
  - { offsetInCU: 0x2F3E8, offset: 0x2F3E8, size: 0x8, addend: 0x0, symName: __ZNKSt8__detail21_Hashtable_ebo_helperILi0ESt8equal_toINSt7__cxx1112basic_stringIcSt11char_traitsIcESaIcEEEELb1EE7_M_cgetEv, symObjAddr: 0x8110, symBinAddr: 0x10000B480, symSize: 0x14 }
  - { offsetInCU: 0x2F3F0, offset: 0x2F3F0, size: 0x8, addend: 0x0, symName: __ZNKSt8__detail21_Hash_node_value_baseISt4pairIKNSt7__cxx1112basic_stringIcSt11char_traitsIcESaIcEEExEE9_M_valptrEv, symObjAddr: 0x8124, symBinAddr: 0x10000B494, symSize: 0x1C }
  - { offsetInCU: 0x2F419, offset: 0x2F419, size: 0x8, addend: 0x0, symName: __ZNK9__gnu_cxx16__aligned_membufISt4pairIKxxEE6_M_ptrEv, symObjAddr: 0x80F4, symBinAddr: 0x10000B464, symSize: 0x1C }
  - { offsetInCU: 0x2F421, offset: 0x2F421, size: 0x8, addend: 0x0, symName: __ZNKSt8__detail21_Hashtable_ebo_helperILi0ESt8equal_toINSt7__cxx1112basic_stringIcSt11char_traitsIcESaIcEEEELb1EE7_M_cgetEv, symObjAddr: 0x8110, symBinAddr: 0x10000B480, symSize: 0x14 }
  - { offsetInCU: 0x2F5A0, offset: 0x2F5A0, size: 0x8, addend: 0x0, symName: __ZSt7forwardIRPSt13_Rb_tree_nodeISt4pairIKxxEEEOT_RNSt16remove_referenceIS7_E4typeE, symObjAddr: 0x80E0, symBinAddr: 0x10000B450, symSize: 0x14 }
  - { offsetInCU: 0x2F5A8, offset: 0x2F5A8, size: 0x8, addend: 0x0, symName: __ZNK9__gnu_cxx16__aligned_membufISt4pairIKxxEE6_M_ptrEv, symObjAddr: 0x80F4, symBinAddr: 0x10000B464, symSize: 0x1C }
  - { offsetInCU: 0x2F55A, offset: 0x2F55A, size: 0x8, addend: 0x0, symName: __ZNSt8_Rb_treeIxSt4pairIKxxESt10_Select1stIS2_ESt4lessIxESaIS2_EE17_M_construct_nodeIJS0_IxiEEEEvPSt13_Rb_tree_nodeIS2_EDpOT_, symObjAddr: 0x802C, symBinAddr: 0x10000B39C, symSize: 0xB4 }
  - { offsetInCU: 0x2F562, offset: 0x2F562, size: 0x8, addend: 0x0, symName: __ZSt7forwardIRPSt13_Rb_tree_nodeISt4pairIKxxEEEOT_RNSt16remove_referenceIS7_E4typeE, symObjAddr: 0x80E0, symBinAddr: 0x10000B450, symSize: 0x14 }
  - { offsetInCU: 0x2F648, offset: 0x2F648, size: 0x8, addend: 0x0, symName: __ZNSt15__new_allocatorISt13_Rb_tree_nodeISt4pairIKxxEEE10deallocateEPS4_m, symObjAddr: 0x7FF0, symBinAddr: 0x10000B360, symSize: 0x3C }
  - { offsetInCU: 0x2F650, offset: 0x2F650, size: 0x8, addend: 0x0, symName: __ZNSt8_Rb_treeIxSt4pairIKxxESt10_Select1stIS2_ESt4lessIxESaIS2_EE17_M_construct_nodeIJS0_IxiEEEEvPSt13_Rb_tree_nodeIS2_EDpOT_, symObjAddr: 0x802C, symBinAddr: 0x10000B39C, symSize: 0xB4 }
  - { offsetInCU: 0x2F6DA, offset: 0x2F6DA, size: 0x8, addend: 0x0, symName: __ZNSt15__new_allocatorIPNSt8__detail15_Hash_node_baseEE10deallocateEPS2_m, symObjAddr: 0x7FC0, symBinAddr: 0x10000B330, symSize: 0x30 }
  - { offsetInCU: 0x2F6E2, offset: 0x2F6E2, size: 0x8, addend: 0x0, symName: __ZNSt15__new_allocatorISt13_Rb_tree_nodeISt4pairIKxxEEE10deallocateEPS4_m, symObjAddr: 0x7FF0, symBinAddr: 0x10000B360, symSize: 0x3C }
  - { offsetInCU: 0x2F799, offset: 0x2F799, size: 0x8, addend: 0x0, symName: __ZNSt15__new_allocatorIPNSt8__detail15_Hash_node_baseEED2Ev, symObjAddr: 0x7FAC, symBinAddr: 0x10000B31C, symSize: 0x14 }
  - { offsetInCU: 0x2F7A1, offset: 0x2F7A1, size: 0x8, addend: 0x0, symName: __ZNSt15__new_allocatorIPNSt8__detail15_Hash_node_baseEE10deallocateEPS2_m, symObjAddr: 0x7FC0, symBinAddr: 0x10000B330, symSize: 0x30 }
  - { offsetInCU: 0x2F80E, offset: 0x2F80E, size: 0x8, addend: 0x0, symName: __ZSt9addressofIPNSt8__detail15_Hash_node_baseEEPT_RS3_, symObjAddr: 0x7F90, symBinAddr: 0x10000B300, symSize: 0x1C }
  - { offsetInCU: 0x2F816, offset: 0x2F816, size: 0x8, addend: 0x0, symName: __ZNSt15__new_allocatorIPNSt8__detail15_Hash_node_baseEED2Ev, symObjAddr: 0x7FAC, symBinAddr: 0x10000B31C, symSize: 0x14 }
  - { offsetInCU: 0x2F7F4, offset: 0x2F7F4, size: 0x8, addend: 0x0, symName: __ZNSt19__ptr_traits_ptr_toIPNSt8__detail10_Hash_nodeISt4pairIKNSt7__cxx1112basic_stringIcSt11char_traitsIcESaIcEEExELb1EEESB_Lb0EE10pointer_toERSB_, symObjAddr: 0x7F74, symBinAddr: 0x10000B2E4, symSize: 0x1C }
  - { offsetInCU: 0x2F7FC, offset: 0x2F7FC, size: 0x8, addend: 0x0, symName: __ZSt9addressofIPNSt8__detail15_Hash_node_baseEEPT_RS3_, symObjAddr: 0x7F90, symBinAddr: 0x10000B300, symSize: 0x1C }
  - { offsetInCU: 0x2F8D4, offset: 0x2F8D4, size: 0x8, addend: 0x0, symName: __ZNSt4pairIKNSt7__cxx1112basic_stringIcSt11char_traitsIcESaIcEEExED1Ev, symObjAddr: 0x7F54, symBinAddr: 0x10000B2C4, symSize: 0x20 }
  - { offsetInCU: 0x2F8DC, offset: 0x2F8DC, size: 0x8, addend: 0x0, symName: __ZNSt19__ptr_traits_ptr_toIPNSt8__detail10_Hash_nodeISt4pairIKNSt7__cxx1112basic_stringIcSt11char_traitsIcESaIcEEExELb1EEESB_Lb0EE10pointer_toERSB_, symObjAddr: 0x7F74, symBinAddr: 0x10000B2E4, symSize: 0x1C }
  - { offsetInCU: 0x2F8BD, offset: 0x2F8BD, size: 0x8, addend: 0x0, symName: __ZNSt8__detail21_Hashtable_ebo_helperILi0ESaINS_10_Hash_nodeISt4pairIKNSt7__cxx1112basic_stringIcSt11char_traitsIcESaIcEEExELb1EEEELb1EE6_M_getEv, symObjAddr: 0x7F40, symBinAddr: 0x10000B2B0, symSize: 0x14 }
  - { offsetInCU: 0x2F8C5, offset: 0x2F8C5, size: 0x8, addend: 0x0, symName: __ZNSt4pairIKNSt7__cxx1112basic_stringIcSt11char_traitsIcESaIcEEExED1Ev, symObjAddr: 0x7F54, symBinAddr: 0x10000B2C4, symSize: 0x20 }
  - { offsetInCU: 0x2F909, offset: 0x2F909, size: 0x8, addend: 0x0, symName: __ZNKSt4lessIPKcEclES1_S1_, symObjAddr: 0x7EE4, symBinAddr: 0x10000B254, symSize: 0x5C }
  - { offsetInCU: 0x2F911, offset: 0x2F911, size: 0x8, addend: 0x0, symName: __ZNSt8__detail21_Hashtable_ebo_helperILi0ESaINS_10_Hash_nodeISt4pairIKNSt7__cxx1112basic_stringIcSt11char_traitsIcESaIcEEExELb1EEEELb1EE6_M_getEv, symObjAddr: 0x7F40, symBinAddr: 0x10000B2B0, symSize: 0x14 }
  - { offsetInCU: 0x2F99D, offset: 0x2F99D, size: 0x8, addend: 0x0, symName: __ZSt11__addressofIKcEPT_RS1_, symObjAddr: 0x7ED0, symBinAddr: 0x10000B240, symSize: 0x14 }
  - { offsetInCU: 0x2F9A5, offset: 0x2F9A5, size: 0x8, addend: 0x0, symName: __ZNKSt4lessIPKcEclES1_S1_, symObjAddr: 0x7EE4, symBinAddr: 0x10000B254, symSize: 0x5C }
  - { offsetInCU: 0x2F9CB, offset: 0x2F9CB, size: 0x8, addend: 0x0, symName: __ZNSt10_HashtableINSt7__cxx1112basic_stringIcSt11char_traitsIcESaIcEEESt4pairIKS5_xESaIS8_ENSt8__detail10_Select1stESt8equal_toIS5_ESt4hashIS5_ENSA_18_Mod_range_hashingENSA_20_Default_ranged_hashENSA_20_Prime_rehash_policyENSA_17_Hashtable_traitsILb1ELb0ELb1EEEE13_M_rehash_auxEmSt17integral_constantIbLb1EE, symObjAddr: 0x7D64, symBinAddr: 0x10000B0D4, symSize: 0x16C }
  - { offsetInCU: 0x2F9D3, offset: 0x2F9D3, size: 0x8, addend: 0x0, symName: __ZSt11__addressofIKcEPT_RS1_, symObjAddr: 0x7ED0, symBinAddr: 0x10000B240, symSize: 0x14 }
  - { offsetInCU: 0x2FC4B, offset: 0x2FC4B, size: 0x8, addend: 0x0, symName: __ZSt12__to_addressINSt8__detail10_Hash_nodeISt4pairIKNSt7__cxx1112basic_stringIcSt11char_traitsIcESaIcEEExELb1EEEEPT_SD_, symObjAddr: 0x7D50, symBinAddr: 0x10000B0C0, symSize: 0x14 }
  - { offsetInCU: 0x2FC53, offset: 0x2FC53, size: 0x8, addend: 0x0, symName: __ZNSt10_HashtableINSt7__cxx1112basic_stringIcSt11char_traitsIcESaIcEEESt4pairIKS5_xESaIS8_ENSt8__detail10_Select1stESt8equal_toIS5_ESt4hashIS5_ENSA_18_Mod_range_hashingENSA_20_Default_ranged_hashENSA_20_Prime_rehash_policyENSA_17_Hashtable_traitsILb1ELb0ELb1EEEE13_M_rehash_auxEmSt17integral_constantIbLb1EE, symObjAddr: 0x7D64, symBinAddr: 0x10000B0D4, symSize: 0x16C }
  - { offsetInCU: 0x2FC5D, offset: 0x2FC5D, size: 0x8, addend: 0x0, symName: __ZNSt10_Head_baseILm0ERKNSt7__cxx1112basic_stringIcSt11char_traitsIcESaIcEEELb0EEC2ES7_, symObjAddr: 0x7D2C, symBinAddr: 0x10000B09C, symSize: 0x24 }
  - { offsetInCU: 0x2FC65, offset: 0x2FC65, size: 0x8, addend: 0x0, symName: __ZSt12__to_addressINSt8__detail10_Hash_nodeISt4pairIKNSt7__cxx1112basic_stringIcSt11char_traitsIcESaIcEEExELb1EEEEPT_SD_, symObjAddr: 0x7D50, symBinAddr: 0x10000B0C0, symSize: 0x14 }
  - { offsetInCU: 0x2FC42, offset: 0x2FC42, size: 0x8, addend: 0x0, symName: __ZN9__gnu_cxx16__aligned_bufferISt4pairIKNSt7__cxx1112basic_stringIcSt11char_traitsIcESaIcEEExEE6_M_ptrEv, symObjAddr: 0x7D10, symBinAddr: 0x10000B080, symSize: 0x1C }
  - { offsetInCU: 0x2FC4A, offset: 0x2FC4A, size: 0x8, addend: 0x0, symName: __ZNSt10_Head_baseILm0ERKNSt7__cxx1112basic_stringIcSt11char_traitsIcESaIcEEELb0EEC2ES7_, symObjAddr: 0x7D2C, symBinAddr: 0x10000B09C, symSize: 0x24 }
  - { offsetInCU: 0x2FC73, offset: 0x2FC73, size: 0x8, addend: 0x0, symName: __ZNKSt10_HashtableINSt7__cxx1112basic_stringIcSt11char_traitsIcESaIcEEESt4pairIKS5_xESaIS8_ENSt8__detail10_Select1stESt8equal_toIS5_ESt4hashIS5_ENSA_18_Mod_range_hashingENSA_20_Default_ranged_hashENSA_20_Prime_rehash_policyENSA_17_Hashtable_traitsILb1ELb0ELb1EEEE15_M_bucket_indexERKNSA_16_Hash_node_valueIS8_Lb1EEE, symObjAddr: 0x7CE0, symBinAddr: 0x10000B050, symSize: 0x30 }
  - { offsetInCU: 0x2FC7B, offset: 0x2FC7B, size: 0x8, addend: 0x0, symName: __ZN9__gnu_cxx16__aligned_bufferISt4pairIKNSt7__cxx1112basic_stringIcSt11char_traitsIcESaIcEEExEE6_M_ptrEv, symObjAddr: 0x7D10, symBinAddr: 0x10000B080, symSize: 0x1C }
  - { offsetInCU: 0x2FCB9, offset: 0x2FCB9, size: 0x8, addend: 0x0, symName: __ZNKSt8__detail15_Hashtable_baseINSt7__cxx1112basic_stringIcSt11char_traitsIcESaIcEEESt4pairIKS6_xENS_10_Select1stESt8equal_toIS6_ESt4hashIS6_ENS_18_Mod_range_hashingENS_20_Default_ranged_hashENS_17_Hashtable_traitsILb1ELb0ELb1EEEE9_M_equalsERS8_mRKNS_16_Hash_node_valueIS9_Lb1EEE, symObjAddr: 0x7C70, symBinAddr: 0x10000AFE0, symSize: 0x70 }
  - { offsetInCU: 0x2FCC1, offset: 0x2FCC1, size: 0x8, addend: 0x0, symName: __ZNKSt10_HashtableINSt7__cxx1112basic_stringIcSt11char_traitsIcESaIcEEESt4pairIKS5_xESaIS8_ENSt8__detail10_Select1stESt8equal_toIS5_ESt4hashIS5_ENSA_18_Mod_range_hashingENSA_20_Default_ranged_hashENSA_20_Prime_rehash_policyENSA_17_Hashtable_traitsILb1ELb0ELb1EEEE15_M_bucket_indexERKNSA_16_Hash_node_valueIS8_Lb1EEE, symObjAddr: 0x7CE0, symBinAddr: 0x10000B050, symSize: 0x30 }
  - { offsetInCU: 0x2FD29, offset: 0x2FD29, size: 0x8, addend: 0x0, symName: __ZNKSt8__detail21_Hashtable_ebo_helperILi1ESt4hashINSt7__cxx1112basic_stringIcSt11char_traitsIcESaIcEEEELb1EE7_M_cgetEv, symObjAddr: 0x7C5C, symBinAddr: 0x10000AFCC, symSize: 0x14 }
  - { offsetInCU: 0x2FD31, offset: 0x2FD31, size: 0x8, addend: 0x0, symName: __ZNKSt8__detail15_Hashtable_baseINSt7__cxx1112basic_stringIcSt11char_traitsIcESaIcEEESt4pairIKS6_xENS_10_Select1stESt8equal_toIS6_ESt4hashIS6_ENS_18_Mod_range_hashingENS_20_Default_ranged_hashENS_17_Hashtable_traitsILb1ELb0ELb1EEEE9_M_equalsERS8_mRKNS_16_Hash_node_valueIS9_Lb1EEE, symObjAddr: 0x7C70, symBinAddr: 0x10000AFE0, symSize: 0x70 }
  - { offsetInCU: 0x2FD5A, offset: 0x2FD5A, size: 0x8, addend: 0x0, symName: __ZNSt9__cxx199813unordered_mapINSt7__cxx1112basic_stringIcSt11char_traitsIcESaIcEEExSt4hashIS6_ESt8equal_toIS6_ESaISt4pairIKS6_xEEE5beginEv, symObjAddr: 0x7C40, symBinAddr: 0x10000AFB0, symSize: 0x1C }
  - { offsetInCU: 0x2FD62, offset: 0x2FD62, size: 0x8, addend: 0x0, symName: __ZNKSt8__detail21_Hashtable_ebo_helperILi1ESt4hashINSt7__cxx1112basic_stringIcSt11char_traitsIcESaIcEEEELb1EE7_M_cgetEv, symObjAddr: 0x7C5C, symBinAddr: 0x10000AFCC, symSize: 0x14 }
  - { offsetInCU: 0x2FD8B, offset: 0x2FD8B, size: 0x8, addend: 0x0, symName: __ZNSt7__debug13unordered_mapINSt7__cxx1112basic_stringIcSt11char_traitsIcESaIcEEExSt4hashIS6_ESt8equal_toIS6_ESaISt4pairIKS6_xEEE7_M_baseEv, symObjAddr: 0x7C28, symBinAddr: 0x10000AF98, symSize: 0x18 }
  - { offsetInCU: 0x2FD93, offset: 0x2FD93, size: 0x8, addend: 0x0, symName: __ZNSt9__cxx199813unordered_mapINSt7__cxx1112basic_stringIcSt11char_traitsIcESaIcEEExSt4hashIS6_ESt8equal_toIS6_ESaISt4pairIKS6_xEEE5beginEv, symObjAddr: 0x7C40, symBinAddr: 0x10000AFB0, symSize: 0x1C }
  - { offsetInCU: 0x2FDBC, offset: 0x2FDBC, size: 0x8, addend: 0x0, symName: __ZN11__gnu_debug18_BeforeBeginHelperINSt7__debug13unordered_mapINSt7__cxx1112basic_stringIcSt11char_traitsIcESaIcEEExSt4hashIS8_ESt8equal_toIS8_ESaISt4pairIKS8_xEEEEE5_S_IsINSt8__detail14_Node_iteratorISF_Lb0ELb1EEESt20forward_iterator_tagEEbRKNS_14_Safe_iteratorIT_SH_T0_EE, symObjAddr: 0x7C14, symBinAddr: 0x10000AF84, symSize: 0x14 }
  - { offsetInCU: 0x2FDC4, offset: 0x2FDC4, size: 0x8, addend: 0x0, symName: __ZNSt7__debug13unordered_mapINSt7__cxx1112basic_stringIcSt11char_traitsIcESaIcEEExSt4hashIS6_ESt8equal_toIS6_ESaISt4pairIKS6_xEEE7_M_baseEv, symObjAddr: 0x7C28, symBinAddr: 0x10000AF98, symSize: 0x18 }
  - { offsetInCU: 0x2FEB5, offset: 0x2FEB5, size: 0x8, addend: 0x0, symName: __ZNSt8__detail19_Node_iterator_baseISt4pairIKNSt7__cxx1112basic_stringIcSt11char_traitsIcESaIcEEExELb1EEC2EPNS_10_Hash_nodeIS9_Lb1EEE, symObjAddr: 0x7BF0, symBinAddr: 0x10000AF60, symSize: 0x24 }
  - { offsetInCU: 0x2FEBD, offset: 0x2FEBD, size: 0x8, addend: 0x0, symName: __ZN11__gnu_debug18_BeforeBeginHelperINSt7__debug13unordered_mapINSt7__cxx1112basic_stringIcSt11char_traitsIcESaIcEEExSt4hashIS8_ESt8equal_toIS8_ESaISt4pairIKS8_xEEEEE5_S_IsINSt8__detail14_Node_iteratorISF_Lb0ELb1EEESt20forward_iterator_tagEEbRKNS_14_Safe_iteratorIT_SH_T0_EE, symObjAddr: 0x7C14, symBinAddr: 0x10000AF84, symSize: 0x14 }
  - { offsetInCU: 0x2FE6C, offset: 0x2FE6C, size: 0x8, addend: 0x0, symName: __ZNKSt8equal_toINSt7__cxx1112basic_stringIcSt11char_traitsIcESaIcEEEEclERKS5_S8_, symObjAddr: 0x7BC4, symBinAddr: 0x10000AF34, symSize: 0x2C }
  - { offsetInCU: 0x2FE74, offset: 0x2FE74, size: 0x8, addend: 0x0, symName: __ZNSt8__detail19_Node_iterator_baseISt4pairIKNSt7__cxx1112basic_stringIcSt11char_traitsIcESaIcEEExELb1EEC2EPNS_10_Hash_nodeIS9_Lb1EEE, symObjAddr: 0x7BF0, symBinAddr: 0x10000AF60, symSize: 0x24 }
  - { offsetInCU: 0x2FEDA, offset: 0x2FEDA, size: 0x8, addend: 0x0, symName: __ZNKSt8__detail10_Select1stclIRKSt4pairIKNSt7__cxx1112basic_stringIcSt11char_traitsIcESaIcEEExEEEONS0_10__1st_typeIT_E4typeEOSE_, symObjAddr: 0x7BA4, symBinAddr: 0x10000AF14, symSize: 0x20 }
  - { offsetInCU: 0x2FEE2, offset: 0x2FEE2, size: 0x8, addend: 0x0, symName: __ZNKSt8equal_toINSt7__cxx1112basic_stringIcSt11char_traitsIcESaIcEEEEclERKS5_S8_, symObjAddr: 0x7BC4, symBinAddr: 0x10000AF34, symSize: 0x2C }
  - { offsetInCU: 0x2FF2C, offset: 0x2FF2C, size: 0x8, addend: 0x0, symName: __ZNKSt8__detail21_Hash_node_value_baseISt4pairIKNSt7__cxx1112basic_stringIcSt11char_traitsIcESaIcEEExEE4_M_vEv, symObjAddr: 0x7B88, symBinAddr: 0x10000AEF8, symSize: 0x1C }
  - { offsetInCU: 0x2FF34, offset: 0x2FF34, size: 0x8, addend: 0x0, symName: __ZNKSt8__detail10_Select1stclIRKSt4pairIKNSt7__cxx1112basic_stringIcSt11char_traitsIcESaIcEEExEEEONS0_10__1st_typeIT_E4typeEOSE_, symObjAddr: 0x7BA4, symBinAddr: 0x10000AF14, symSize: 0x20 }
  - { offsetInCU: 0x2FF5D, offset: 0x2FF5D, size: 0x8, addend: 0x0, symName: __ZNKSt8__detail15_Hashtable_baseINSt7__cxx1112basic_stringIcSt11char_traitsIcESaIcEEESt4pairIKS6_xENS_10_Select1stESt8equal_toIS6_ESt4hashIS6_ENS_18_Mod_range_hashingENS_20_Default_ranged_hashENS_17_Hashtable_traitsILb1ELb0ELb1EEEE5_M_eqEv, symObjAddr: 0x7B6C, symBinAddr: 0x10000AEDC, symSize: 0x1C }
  - { offsetInCU: 0x2FF65, offset: 0x2FF65, size: 0x8, addend: 0x0, symName: __ZNKSt8__detail21_Hash_node_value_baseISt4pairIKNSt7__cxx1112basic_stringIcSt11char_traitsIcESaIcEEExEE4_M_vEv, symObjAddr: 0x7B88, symBinAddr: 0x10000AEF8, symSize: 0x1C }
  - { offsetInCU: 0x2FF8E, offset: 0x2FF8E, size: 0x8, addend: 0x0, symName: __ZNSt8__detail19_Node_iterator_baseISt4pairIKNSt7__cxx1112basic_stringIcSt11char_traitsIcESaIcEEExELb1EE7_M_incrEv, symObjAddr: 0x7B3C, symBinAddr: 0x10000AEAC, symSize: 0x30 }
  - { offsetInCU: 0x2FF96, offset: 0x2FF96, size: 0x8, addend: 0x0, symName: __ZNKSt8__detail15_Hashtable_baseINSt7__cxx1112basic_stringIcSt11char_traitsIcESaIcEEESt4pairIKS6_xENS_10_Select1stESt8equal_toIS6_ESt4hashIS6_ENS_18_Mod_range_hashingENS_20_Default_ranged_hashENS_17_Hashtable_traitsILb1ELb0ELb1EEEE5_M_eqEv, symObjAddr: 0x7B6C, symBinAddr: 0x10000AEDC, symSize: 0x1C }
  - { offsetInCU: 0x2FFC0, offset: 0x2FFC0, size: 0x8, addend: 0x0, symName: __ZNSt8__detail22_Hashtable_hash_traitsISt4hashINSt7__cxx1112basic_stringIcSt11char_traitsIcESaIcEEEEE22__small_size_thresholdEv, symObjAddr: 0x7B34, symBinAddr: 0x10000AEA4, symSize: 0x8 }
  - { offsetInCU: 0x2FFC8, offset: 0x2FFC8, size: 0x8, addend: 0x0, symName: __ZNSt8__detail19_Node_iterator_baseISt4pairIKNSt7__cxx1112basic_stringIcSt11char_traitsIcESaIcEEExELb1EE7_M_incrEv, symObjAddr: 0x7B3C, symBinAddr: 0x10000AEAC, symSize: 0x30 }
  - { offsetInCU: 0x2FFDC, offset: 0x2FFDC, size: 0x8, addend: 0x0, symName: __ZNKSt10_Select1stISt4pairIKxxEEclERKS2_, symObjAddr: 0x7B1C, symBinAddr: 0x10000AE8C, symSize: 0x18 }
  - { offsetInCU: 0x2FFE4, offset: 0x2FFE4, size: 0x8, addend: 0x0, symName: __ZNSt8__detail22_Hashtable_hash_traitsISt4hashINSt7__cxx1112basic_stringIcSt11char_traitsIcESaIcEEEEE22__small_size_thresholdEv, symObjAddr: 0x7B34, symBinAddr: 0x10000AEA4, symSize: 0x8 }
  - { offsetInCU: 0x30022, offset: 0x30022, size: 0x8, addend: 0x0, symName: __ZNKSt13_Rb_tree_nodeISt4pairIKxxEE9_M_valptrEv, symObjAddr: 0x7AFC, symBinAddr: 0x10000AE6C, symSize: 0x20 }
  - { offsetInCU: 0x3002A, offset: 0x3002A, size: 0x8, addend: 0x0, symName: __ZNKSt10_Select1stISt4pairIKxxEEclERKS2_, symObjAddr: 0x7B1C, symBinAddr: 0x10000AE8C, symSize: 0x18 }
  - { offsetInCU: 0x300C5, offset: 0x300C5, size: 0x8, addend: 0x0, symName: __ZSt7forwardIRPSt18_Rb_tree_node_baseEOT_RNSt16remove_referenceIS3_E4typeE, symObjAddr: 0x7AE8, symBinAddr: 0x10000AE58, symSize: 0x14 }
  - { offsetInCU: 0x300CD, offset: 0x300CD, size: 0x8, addend: 0x0, symName: __ZNKSt13_Rb_tree_nodeISt4pairIKxxEE9_M_valptrEv, symObjAddr: 0x7AFC, symBinAddr: 0x10000AE6C, symSize: 0x20 }
  - { offsetInCU: 0x300A9, offset: 0x300A9, size: 0x8, addend: 0x0, symName: __ZNSt8_Rb_treeIxSt4pairIKxxESt10_Select1stIS2_ESt4lessIxESaIS2_EE17_M_construct_nodeIJRKSt21piecewise_construct_tSt5tupleIJRS1_EESD_IJEEEEEvPSt13_Rb_tree_nodeIS2_EDpOT_, symObjAddr: 0x796C, symBinAddr: 0x10000ACDC, symSize: 0x17C }
  - { offsetInCU: 0x300B1, offset: 0x300B1, size: 0x8, addend: 0x0, symName: __ZSt7forwardIRPSt18_Rb_tree_node_baseEOT_RNSt16remove_referenceIS3_E4typeE, symObjAddr: 0x7AE8, symBinAddr: 0x10000AE58, symSize: 0x14 }
  - { offsetInCU: 0x301FD, offset: 0x301FD, size: 0x8, addend: 0x0, symName: __ZNSt8_Rb_treeIxSt4pairIKxxESt10_Select1stIS2_ESt4lessIxESaIS2_EE11_M_get_nodeEv, symObjAddr: 0x7930, symBinAddr: 0x10000ACA0, symSize: 0x3C }
  - { offsetInCU: 0x30205, offset: 0x30205, size: 0x8, addend: 0x0, symName: __ZNSt8_Rb_treeIxSt4pairIKxxESt10_Select1stIS2_ESt4lessIxESaIS2_EE17_M_construct_nodeIJRKSt21piecewise_construct_tSt5tupleIJRS1_EESD_IJEEEEEvPSt13_Rb_tree_nodeIS2_EDpOT_, symObjAddr: 0x796C, symBinAddr: 0x10000ACDC, symSize: 0x17C }
  - { offsetInCU: 0x30268, offset: 0x30268, size: 0x8, addend: 0x0, symName: __ZN9__gnu_cxx16__aligned_membufISt4pairIKxxEE7_M_addrEv, symObjAddr: 0x791C, symBinAddr: 0x10000AC8C, symSize: 0x14 }
  - { offsetInCU: 0x30270, offset: 0x30270, size: 0x8, addend: 0x0, symName: __ZNSt8_Rb_treeIxSt4pairIKxxESt10_Select1stIS2_ESt4lessIxESaIS2_EE11_M_get_nodeEv, symObjAddr: 0x7930, symBinAddr: 0x10000ACA0, symSize: 0x3C }
  - { offsetInCU: 0x3029C, offset: 0x3029C, size: 0x8, addend: 0x0, symName: __ZN11__gnu_debug14_Safe_iteratorISt17_Rb_tree_iteratorISt4pairIKxxEENSt7__debug3mapIxxSt4lessIxESaIS4_EEESt20forward_iterator_tagE9_M_attachEPNS_19_Safe_sequence_baseE, symObjAddr: 0x78D8, symBinAddr: 0x10000AC48, symSize: 0x44 }
  - { offsetInCU: 0x302A4, offset: 0x302A4, size: 0x8, addend: 0x0, symName: __ZN9__gnu_cxx16__aligned_membufISt4pairIKxxEE7_M_addrEv, symObjAddr: 0x791C, symBinAddr: 0x10000AC8C, symSize: 0x14 }
  - { offsetInCU: 0x30392, offset: 0x30392, size: 0x8, addend: 0x0, symName: __ZNSt4pairIPSt18_Rb_tree_node_baseS1_EC1IRPSt13_Rb_tree_nodeIS_IKxxEERS1_Lb1EEEOT_OT0_, symObjAddr: 0x7890, symBinAddr: 0x10000AC00, symSize: 0x48 }
  - { offsetInCU: 0x3039A, offset: 0x3039A, size: 0x8, addend: 0x0, symName: __ZN11__gnu_debug14_Safe_iteratorISt17_Rb_tree_iteratorISt4pairIKxxEENSt7__debug3mapIxxSt4lessIxESaIS4_EEESt20forward_iterator_tagE9_M_attachEPNS_19_Safe_sequence_baseE, symObjAddr: 0x78D8, symBinAddr: 0x10000AC48, symSize: 0x44 }
  - { offsetInCU: 0x3039F, offset: 0x3039F, size: 0x8, addend: 0x0, symName: __ZNSt8_Rb_treeIxSt4pairIKxxESt10_Select1stIS2_ESt4lessIxESaIS2_EE14_M_create_nodeIJS0_IxiEEEEPSt13_Rb_tree_nodeIS2_EDpOT_, symObjAddr: 0x7850, symBinAddr: 0x10000ABC0, symSize: 0x40 }
  - { offsetInCU: 0x303A7, offset: 0x303A7, size: 0x8, addend: 0x0, symName: __ZNSt4pairIPSt18_Rb_tree_node_baseS1_EC1IRPSt13_Rb_tree_nodeIS_IKxxEERS1_Lb1EEEOT_OT0_, symObjAddr: 0x7890, symBinAddr: 0x10000AC00, symSize: 0x48 }
  - { offsetInCU: 0x30487, offset: 0x30487, size: 0x8, addend: 0x0, symName: __ZNSt8_Rb_treeIxSt4pairIKxxESt10_Select1stIS2_ESt4lessIxESaIS2_EE21_M_get_Node_allocatorEv, symObjAddr: 0x783C, symBinAddr: 0x10000ABAC, symSize: 0x14 }
  - { offsetInCU: 0x3048F, offset: 0x3048F, size: 0x8, addend: 0x0, symName: __ZNSt8_Rb_treeIxSt4pairIKxxESt10_Select1stIS2_ESt4lessIxESaIS2_EE14_M_create_nodeIJS0_IxiEEEEPSt13_Rb_tree_nodeIS2_EDpOT_, symObjAddr: 0x7850, symBinAddr: 0x10000ABC0, symSize: 0x40 }
  - { offsetInCU: 0x30555, offset: 0x30555, size: 0x8, addend: 0x0, symName: __ZNSt19__ptr_traits_ptr_toIPPNSt8__detail15_Hash_node_baseES2_Lb0EE10pointer_toERS2_, symObjAddr: 0x7820, symBinAddr: 0x10000AB90, symSize: 0x1C }
  - { offsetInCU: 0x3055D, offset: 0x3055D, size: 0x8, addend: 0x0, symName: __ZNSt8_Rb_treeIxSt4pairIKxxESt10_Select1stIS2_ESt4lessIxESaIS2_EE21_M_get_Node_allocatorEv, symObjAddr: 0x783C, symBinAddr: 0x10000ABAC, symSize: 0x14 }
  - { offsetInCU: 0x30588, offset: 0x30588, size: 0x8, addend: 0x0, symName: __ZNSt8__detail16_Hashtable_allocISaINS_10_Hash_nodeISt4pairIKNSt7__cxx1112basic_stringIcSt11char_traitsIcESaIcEEExELb1EEEEE22_M_deallocate_node_ptrEPSB_, symObjAddr: 0x77C8, symBinAddr: 0x10000AB38, symSize: 0x58 }
  - { offsetInCU: 0x30590, offset: 0x30590, size: 0x8, addend: 0x0, symName: __ZNSt19__ptr_traits_ptr_toIPPNSt8__detail15_Hash_node_baseES2_Lb0EE10pointer_toERS2_, symObjAddr: 0x7820, symBinAddr: 0x10000AB90, symSize: 0x1C }
  - { offsetInCU: 0x30662, offset: 0x30662, size: 0x8, addend: 0x0, symName: __ZNSt8__detail16_Hashtable_allocISaINS_10_Hash_nodeISt4pairIKNSt7__cxx1112basic_stringIcSt11char_traitsIcESaIcEEExELb1EEEEE17_M_node_allocatorEv, symObjAddr: 0x77AC, symBinAddr: 0x10000AB1C, symSize: 0x1C }
  - { offsetInCU: 0x3066A, offset: 0x3066A, size: 0x8, addend: 0x0, symName: __ZNSt8__detail16_Hashtable_allocISaINS_10_Hash_nodeISt4pairIKNSt7__cxx1112basic_stringIcSt11char_traitsIcESaIcEEExELb1EEEEE22_M_deallocate_node_ptrEPSB_, symObjAddr: 0x77C8, symBinAddr: 0x10000AB38, symSize: 0x58 }
  - { offsetInCU: 0x30693, offset: 0x30693, size: 0x8, addend: 0x0, symName: __ZNSt15__new_allocatorIcE8allocateEmPKv, symObjAddr: 0x7748, symBinAddr: 0x10000AAB8, symSize: 0x64 }
  - { offsetInCU: 0x3069B, offset: 0x3069B, size: 0x8, addend: 0x0, symName: __ZNSt8__detail16_Hashtable_allocISaINS_10_Hash_nodeISt4pairIKNSt7__cxx1112basic_stringIcSt11char_traitsIcESaIcEEExELb1EEEEE17_M_node_allocatorEv, symObjAddr: 0x77AC, symBinAddr: 0x10000AB1C, symSize: 0x1C }
  - { offsetInCU: 0x30726, offset: 0x30726, size: 0x8, addend: 0x0, symName: __ZNSt7__cxx1112basic_stringIcSt11char_traitsIcESaIcEE15_M_replace_coldEPcmPKcmm, symObjAddr: 0x75B0, symBinAddr: 0x10000A920, symSize: 0x198 }
  - { offsetInCU: 0x3072E, offset: 0x3072E, size: 0x8, addend: 0x0, symName: __ZNSt15__new_allocatorIcE8allocateEmPKv, symObjAddr: 0x7748, symBinAddr: 0x10000AAB8, symSize: 0x64 }
  - { offsetInCU: 0x3080F, offset: 0x3080F, size: 0x8, addend: 0x0, symName: __ZNKSt7__cxx1112basic_stringIcSt11char_traitsIcESaIcEE11_M_disjunctEPKc, symObjAddr: 0x7524, symBinAddr: 0x10000A894, symSize: 0x8C }
  - { offsetInCU: 0x30817, offset: 0x30817, size: 0x8, addend: 0x0, symName: __ZNSt7__cxx1112basic_stringIcSt11char_traitsIcESaIcEE15_M_replace_coldEPcmPKcmm, symObjAddr: 0x75B0, symBinAddr: 0x10000A920, symSize: 0x198 }
  - { offsetInCU: 0x30889, offset: 0x30889, size: 0x8, addend: 0x0, symName: __ZSt9addressofIKcEPT_RS1_, symObjAddr: 0x7508, symBinAddr: 0x10000A878, symSize: 0x1C }
  - { offsetInCU: 0x30891, offset: 0x30891, size: 0x8, addend: 0x0, symName: __ZNKSt7__cxx1112basic_stringIcSt11char_traitsIcESaIcEE11_M_disjunctEPKc, symObjAddr: 0x7524, symBinAddr: 0x10000A894, symSize: 0x8C }
  - { offsetInCU: 0x308F1, offset: 0x308F1, size: 0x8, addend: 0x0, symName: __ZSt11__addressofIcEPT_RS0_, symObjAddr: 0x74F4, symBinAddr: 0x10000A864, symSize: 0x14 }
  - { offsetInCU: 0x308F9, offset: 0x308F9, size: 0x8, addend: 0x0, symName: __ZSt9addressofIKcEPT_RS1_, symObjAddr: 0x7508, symBinAddr: 0x10000A878, symSize: 0x1C }
  - { offsetInCU: 0x3090B, offset: 0x3090B, size: 0x8, addend: 0x0, symName: __ZNSt10_HashtableINSt7__cxx1112basic_stringIcSt11char_traitsIcESaIcEEESt4pairIKS5_xESaIS8_ENSt8__detail10_Select1stESt8equal_toIS5_ESt4hashIS5_ENSA_18_Mod_range_hashingENSA_20_Default_ranged_hashENSA_20_Prime_rehash_policyENSA_17_Hashtable_traitsILb1ELb0ELb1EEEE22_M_insert_bucket_beginEmPNSA_10_Hash_nodeIS8_Lb1EEE, symObjAddr: 0x73E8, symBinAddr: 0x10000A758, symSize: 0x10C }
  - { offsetInCU: 0x30913, offset: 0x30913, size: 0x8, addend: 0x0, symName: __ZSt11__addressofIcEPT_RS0_, symObjAddr: 0x74F4, symBinAddr: 0x10000A864, symSize: 0x14 }
  - { offsetInCU: 0x30966, offset: 0x30966, size: 0x8, addend: 0x0, symName: __ZNKSt8__detail15_Hash_code_baseINSt7__cxx1112basic_stringIcSt11char_traitsIcESaIcEEESt4pairIKS6_xENS_10_Select1stESt4hashIS6_ENS_18_Mod_range_hashingENS_20_Default_ranged_hashELb1EE13_M_store_codeERNS_21_Hash_node_code_cacheILb1EEEm, symObjAddr: 0x73C0, symBinAddr: 0x10000A730, symSize: 0x28 }
  - { offsetInCU: 0x3096E, offset: 0x3096E, size: 0x8, addend: 0x0, symName: __ZNSt10_HashtableINSt7__cxx1112basic_stringIcSt11char_traitsIcESaIcEEESt4pairIKS5_xESaIS8_ENSt8__detail10_Select1stESt8equal_toIS5_ESt4hashIS5_ENSA_18_Mod_range_hashingENSA_20_Default_ranged_hashENSA_20_Prime_rehash_policyENSA_17_Hashtable_traitsILb1ELb0ELb1EEEE22_M_insert_bucket_beginEmPNSA_10_Hash_nodeIS8_Lb1EEE, symObjAddr: 0x73E8, symBinAddr: 0x10000A758, symSize: 0x10C }
  - { offsetInCU: 0x309C1, offset: 0x309C1, size: 0x8, addend: 0x0, symName: __ZNSt10_HashtableINSt7__cxx1112basic_stringIcSt11char_traitsIcESaIcEEESt4pairIKS5_xESaIS8_ENSt8__detail10_Select1stESt8equal_toIS5_ESt4hashIS5_ENSA_18_Mod_range_hashingENSA_20_Default_ranged_hashENSA_20_Prime_rehash_policyENSA_17_Hashtable_traitsILb1ELb0ELb1EEEE9_M_rehashEmRKm, symObjAddr: 0x7354, symBinAddr: 0x10000A6C4, symSize: 0x6C }
  - { offsetInCU: 0x309C9, offset: 0x309C9, size: 0x8, addend: 0x0, symName: __ZNKSt8__detail15_Hash_code_baseINSt7__cxx1112basic_stringIcSt11char_traitsIcESaIcEEESt4pairIKS6_xENS_10_Select1stESt4hashIS6_ENS_18_Mod_range_hashingENS_20_Default_ranged_hashELb1EE13_M_store_codeERNS_21_Hash_node_code_cacheILb1EEEm, symObjAddr: 0x73C0, symBinAddr: 0x10000A730, symSize: 0x28 }
  - { offsetInCU: 0x30A1C, offset: 0x30A1C, size: 0x8, addend: 0x0, symName: __ZNSt8__detail16_Hashtable_allocISaINS_10_Hash_nodeISt4pairIKNSt7__cxx1112basic_stringIcSt11char_traitsIcESaIcEEExELb1EEEEE16_M_allocate_nodeIJRKSt21piecewise_construct_tSt5tupleIJRS9_EESI_IJEEEEEPSB_DpOT_, symObjAddr: 0x7170, symBinAddr: 0x10000A4E0, symSize: 0x1E4 }
  - { offsetInCU: 0x30A24, offset: 0x30A24, size: 0x8, addend: 0x0, symName: __ZNSt10_HashtableINSt7__cxx1112basic_stringIcSt11char_traitsIcESaIcEEESt4pairIKS5_xESaIS8_ENSt8__detail10_Select1stESt8equal_toIS5_ESt4hashIS5_ENSA_18_Mod_range_hashingENSA_20_Default_ranged_hashENSA_20_Prime_rehash_policyENSA_17_Hashtable_traitsILb1ELb0ELb1EEEE9_M_rehashEmRKm, symObjAddr: 0x7354, symBinAddr: 0x10000A6C4, symSize: 0x6C }
  - { offsetInCU: 0x30C85, offset: 0x30C85, size: 0x8, addend: 0x0, symName: __ZNSt8__detail10_Hash_nodeISt4pairIKNSt7__cxx1112basic_stringIcSt11char_traitsIcESaIcEEExELb1EEC1Ev, symObjAddr: 0x7150, symBinAddr: 0x10000A4C0, symSize: 0x20 }
  - { offsetInCU: 0x30C8D, offset: 0x30C8D, size: 0x8, addend: 0x0, symName: __ZNSt8__detail16_Hashtable_allocISaINS_10_Hash_nodeISt4pairIKNSt7__cxx1112basic_stringIcSt11char_traitsIcESaIcEEExELb1EEEEE16_M_allocate_nodeIJRKSt21piecewise_construct_tSt5tupleIJRS9_EESI_IJEEEEEPSB_DpOT_, symObjAddr: 0x7170, symBinAddr: 0x10000A4E0, symSize: 0x1E4 }
  - { offsetInCU: 0x30D37, offset: 0x30D37, size: 0x8, addend: 0x0, symName: __ZSt7forwardISt5tupleIJRKNSt7__cxx1112basic_stringIcSt11char_traitsIcESaIcEEEEEEOT_RNSt16remove_referenceISA_E4typeE, symObjAddr: 0x713C, symBinAddr: 0x10000A4AC, symSize: 0x14 }
  - { offsetInCU: 0x30D3F, offset: 0x30D3F, size: 0x8, addend: 0x0, symName: __ZNSt8__detail10_Hash_nodeISt4pairIKNSt7__cxx1112basic_stringIcSt11char_traitsIcESaIcEEExELb1EEC1Ev, symObjAddr: 0x7150, symBinAddr: 0x10000A4C0, symSize: 0x20 }
  - { offsetInCU: 0x30D2B, offset: 0x30D2B, size: 0x8, addend: 0x0, symName: __ZNSt11_Tuple_implILm0EJRKNSt7__cxx1112basic_stringIcSt11char_traitsIcESaIcEEEEEC2ES7_, symObjAddr: 0x7114, symBinAddr: 0x10000A484, symSize: 0x28 }
  - { offsetInCU: 0x30D33, offset: 0x30D33, size: 0x8, addend: 0x0, symName: __ZSt7forwardISt5tupleIJRKNSt7__cxx1112basic_stringIcSt11char_traitsIcESaIcEEEEEEOT_RNSt16remove_referenceISA_E4typeE, symObjAddr: 0x713C, symBinAddr: 0x10000A4AC, symSize: 0x14 }
  - { offsetInCU: 0x30D11, offset: 0x30D11, size: 0x8, addend: 0x0, symName: __ZNSt8__detail21_Hash_node_value_baseISt4pairIKNSt7__cxx1112basic_stringIcSt11char_traitsIcESaIcEEExEE9_M_valptrEv, symObjAddr: 0x70F8, symBinAddr: 0x10000A468, symSize: 0x1C }
  - { offsetInCU: 0x30D19, offset: 0x30D19, size: 0x8, addend: 0x0, symName: __ZNSt11_Tuple_implILm0EJRKNSt7__cxx1112basic_stringIcSt11char_traitsIcESaIcEEEEEC2ES7_, symObjAddr: 0x7114, symBinAddr: 0x10000A484, symSize: 0x28 }
  - { offsetInCU: 0x30D42, offset: 0x30D42, size: 0x8, addend: 0x0, symName: __ZNKSt10_HashtableINSt7__cxx1112basic_stringIcSt11char_traitsIcESaIcEEESt4pairIKS5_xESaIS8_ENSt8__detail10_Select1stESt8equal_toIS5_ESt4hashIS5_ENSA_18_Mod_range_hashingENSA_20_Default_ranged_hashENSA_20_Prime_rehash_policyENSA_17_Hashtable_traitsILb1ELb0ELb1EEEE19_M_find_before_nodeEmRS7_m, symObjAddr: 0x6FF8, symBinAddr: 0x10000A368, symSize: 0x100 }
  - { offsetInCU: 0x30D4A, offset: 0x30D4A, size: 0x8, addend: 0x0, symName: __ZNSt8__detail21_Hash_node_value_baseISt4pairIKNSt7__cxx1112basic_stringIcSt11char_traitsIcESaIcEEExEE9_M_valptrEv, symObjAddr: 0x70F8, symBinAddr: 0x10000A468, symSize: 0x1C }
  - { offsetInCU: 0x30DEF, offset: 0x30DEF, size: 0x8, addend: 0x0, symName: __ZNKSt8__detail15_Hash_code_baseINSt7__cxx1112basic_stringIcSt11char_traitsIcESaIcEEESt4pairIKS6_xENS_10_Select1stESt4hashIS6_ENS_18_Mod_range_hashingENS_20_Default_ranged_hashELb1EE15_M_bucket_indexEmm, symObjAddr: 0x6FCC, symBinAddr: 0x10000A33C, symSize: 0x2C }
  - { offsetInCU: 0x30DF7, offset: 0x30DF7, size: 0x8, addend: 0x0, symName: __ZNKSt10_HashtableINSt7__cxx1112basic_stringIcSt11char_traitsIcESaIcEEESt4pairIKS5_xESaIS8_ENSt8__detail10_Select1stESt8equal_toIS5_ESt4hashIS5_ENSA_18_Mod_range_hashingENSA_20_Default_ranged_hashENSA_20_Prime_rehash_policyENSA_17_Hashtable_traitsILb1ELb0ELb1EEEE19_M_find_before_nodeEmRS7_m, symObjAddr: 0x6FF8, symBinAddr: 0x10000A368, symSize: 0x100 }
  - { offsetInCU: 0x30E4A, offset: 0x30E4A, size: 0x8, addend: 0x0, symName: __ZNKSt15__str_hash_baseIcSaIcENSt7__cxx1112basic_stringIcSt11char_traitsIcES0_EEEclERKS5_, symObjAddr: 0x6F84, symBinAddr: 0x10000A2F4, symSize: 0x48 }
  - { offsetInCU: 0x30E52, offset: 0x30E52, size: 0x8, addend: 0x0, symName: __ZNKSt8__detail15_Hash_code_baseINSt7__cxx1112basic_stringIcSt11char_traitsIcESaIcEEESt4pairIKS6_xENS_10_Select1stESt4hashIS6_ENS_18_Mod_range_hashingENS_20_Default_ranged_hashELb1EE15_M_bucket_indexEmm, symObjAddr: 0x6FCC, symBinAddr: 0x10000A33C, symSize: 0x2C }
  - { offsetInCU: 0x30E90, offset: 0x30E90, size: 0x8, addend: 0x0, symName: __ZNKSt8__detail15_Hash_code_baseINSt7__cxx1112basic_stringIcSt11char_traitsIcESaIcEEESt4pairIKS6_xENS_10_Select1stESt4hashIS6_ENS_18_Mod_range_hashingENS_20_Default_ranged_hashELb1EE7_M_hashEv, symObjAddr: 0x6F68, symBinAddr: 0x10000A2D8, symSize: 0x1C }
  - { offsetInCU: 0x30E98, offset: 0x30E98, size: 0x8, addend: 0x0, symName: __ZNKSt15__str_hash_baseIcSaIcENSt7__cxx1112basic_stringIcSt11char_traitsIcES0_EEEclERKS5_, symObjAddr: 0x6F84, symBinAddr: 0x10000A2F4, symSize: 0x48 }
  - { offsetInCU: 0x30EC1, offset: 0x30EC1, size: 0x8, addend: 0x0, symName: __ZNK11__gnu_debug14_Safe_iteratorINSt8__detail14_Node_iteratorISt4pairIKNSt7__cxx1112basic_stringIcSt11char_traitsIcESaIcEEExELb0ELb1EEENSt7__debug13unordered_mapIS9_xSt4hashIS9_ESt8equal_toIS9_ESaISB_EEESt20forward_iterator_tagE11_M_is_beginEv, symObjAddr: 0x6F18, symBinAddr: 0x10000A288, symSize: 0x50 }
  - { offsetInCU: 0x30EC9, offset: 0x30EC9, size: 0x8, addend: 0x0, symName: __ZNKSt8__detail15_Hash_code_baseINSt7__cxx1112basic_stringIcSt11char_traitsIcESaIcEEESt4pairIKS6_xENS_10_Select1stESt4hashIS6_ENS_18_Mod_range_hashingENS_20_Default_ranged_hashELb1EE7_M_hashEv, symObjAddr: 0x6F68, symBinAddr: 0x10000A2D8, symSize: 0x1C }
  - { offsetInCU: 0x30EF2, offset: 0x30EF2, size: 0x8, addend: 0x0, symName: __ZNK11__gnu_debug14_Safe_iteratorINSt8__detail14_Node_iteratorISt4pairIKNSt7__cxx1112basic_stringIcSt11char_traitsIcESaIcEEExELb0ELb1EEENSt7__debug13unordered_mapIS9_xSt4hashIS9_ESt8equal_toIS9_ESaISB_EEESt20forward_iterator_tagE9_M_is_endEv, symObjAddr: 0x6EC8, symBinAddr: 0x10000A238, symSize: 0x50 }
  - { offsetInCU: 0x30EFA, offset: 0x30EFA, size: 0x8, addend: 0x0, symName: __ZNK11__gnu_debug14_Safe_iteratorINSt8__detail14_Node_iteratorISt4pairIKNSt7__cxx1112basic_stringIcSt11char_traitsIcESaIcEEExELb0ELb1EEENSt7__debug13unordered_mapIS9_xSt4hashIS9_ESt8equal_toIS9_ESaISB_EEESt20forward_iterator_tagE11_M_is_beginEv, symObjAddr: 0x6F18, symBinAddr: 0x10000A288, symSize: 0x50 }
  - { offsetInCU: 0x30F23, offset: 0x30F23, size: 0x8, addend: 0x0, symName: __ZNK11__gnu_debug14_Safe_iteratorINSt8__detail14_Node_iteratorISt4pairIKNSt7__cxx1112basic_stringIcSt11char_traitsIcESaIcEEExELb0ELb1EEENSt7__debug13unordered_mapIS9_xSt4hashIS9_ESt8equal_toIS9_ESaISB_EEESt20forward_iterator_tagE18_M_is_before_beginEv, symObjAddr: 0x6EA8, symBinAddr: 0x10000A218, symSize: 0x20 }
  - { offsetInCU: 0x30F2B, offset: 0x30F2B, size: 0x8, addend: 0x0, symName: __ZNK11__gnu_debug14_Safe_iteratorINSt8__detail14_Node_iteratorISt4pairIKNSt7__cxx1112basic_stringIcSt11char_traitsIcESaIcEEExELb0ELb1EEENSt7__debug13unordered_mapIS9_xSt4hashIS9_ESt8equal_toIS9_ESaISB_EEESt20forward_iterator_tagE9_M_is_endEv, symObjAddr: 0x6EC8, symBinAddr: 0x10000A238, symSize: 0x50 }
  - { offsetInCU: 0x30F54, offset: 0x30F54, size: 0x8, addend: 0x0, symName: __ZNK11__gnu_debug14_Safe_iteratorINSt8__detail14_Node_iteratorISt4pairIKNSt7__cxx1112basic_stringIcSt11char_traitsIcESaIcEEExELb0ELb1EEENSt7__debug13unordered_mapIS9_xSt4hashIS9_ESt8equal_toIS9_ESaISB_EEESt20forward_iterator_tagE15_M_get_sequenceEv, symObjAddr: 0x6E90, symBinAddr: 0x10000A200, symSize: 0x18 }
  - { offsetInCU: 0x30F5C, offset: 0x30F5C, size: 0x8, addend: 0x0, symName: __ZNK11__gnu_debug14_Safe_iteratorINSt8__detail14_Node_iteratorISt4pairIKNSt7__cxx1112basic_stringIcSt11char_traitsIcESaIcEEExELb0ELb1EEENSt7__debug13unordered_mapIS9_xSt4hashIS9_ESt8equal_toIS9_ESaISB_EEESt20forward_iterator_tagE18_M_is_before_beginEv, symObjAddr: 0x6EA8, symBinAddr: 0x10000A218, symSize: 0x20 }
  - { offsetInCU: 0x3118F, offset: 0x3118F, size: 0x8, addend: 0x0, symName: __ZSt11__addressofIKN11__gnu_debug14_Safe_iteratorINSt8__detail14_Node_iteratorISt4pairIKNSt7__cxx1112basic_stringIcSt11char_traitsIcESaIcEEExELb0ELb1EEENSt7__debug13unordered_mapISA_xSt4hashISA_ESt8equal_toISA_ESaISC_EEESt20forward_iterator_tagEEEPT_RSP_, symObjAddr: 0x6E7C, symBinAddr: 0x10000A1EC, symSize: 0x14 }
  - { offsetInCU: 0x31197, offset: 0x31197, size: 0x8, addend: 0x0, symName: __ZNK11__gnu_debug14_Safe_iteratorINSt8__detail14_Node_iteratorISt4pairIKNSt7__cxx1112basic_stringIcSt11char_traitsIcESaIcEEExELb0ELb1EEENSt7__debug13unordered_mapIS9_xSt4hashIS9_ESt8equal_toIS9_ESaISB_EEESt20forward_iterator_tagE15_M_get_sequenceEv, symObjAddr: 0x6E90, symBinAddr: 0x10000A200, symSize: 0x18 }
  - { offsetInCU: 0x31083, offset: 0x31083, size: 0x8, addend: 0x0, symName: __ZNSt8__detail14_Node_iteratorISt4pairIKNSt7__cxx1112basic_stringIcSt11char_traitsIcESaIcEEExELb0ELb1EEC1EPNS_10_Hash_nodeIS9_Lb1EEE, symObjAddr: 0x6E54, symBinAddr: 0x10000A1C4, symSize: 0x28 }
  - { offsetInCU: 0x3108B, offset: 0x3108B, size: 0x8, addend: 0x0, symName: __ZSt11__addressofIKN11__gnu_debug14_Safe_iteratorINSt8__detail14_Node_iteratorISt4pairIKNSt7__cxx1112basic_stringIcSt11char_traitsIcESaIcEEExELb0ELb1EEENSt7__debug13unordered_mapISA_xSt4hashISA_ESt8equal_toISA_ESaISC_EEESt20forward_iterator_tagEEEPT_RSP_, symObjAddr: 0x6E7C, symBinAddr: 0x10000A1EC, symSize: 0x14 }
  - { offsetInCU: 0x3103B, offset: 0x3103B, size: 0x8, addend: 0x0, symName: __ZNKSt8__detail15_Hashtable_baseINSt7__cxx1112basic_stringIcSt11char_traitsIcESaIcEEESt4pairIKS6_xENS_10_Select1stESt8equal_toIS6_ESt4hashIS6_ENS_18_Mod_range_hashingENS_20_Default_ranged_hashENS_17_Hashtable_traitsILb1ELb0ELb1EEEE13_M_key_equalsERS8_RKNS_16_Hash_node_valueIS9_Lb1EEE, symObjAddr: 0x6DFC, symBinAddr: 0x10000A16C, symSize: 0x58 }
  - { offsetInCU: 0x31043, offset: 0x31043, size: 0x8, addend: 0x0, symName: __ZNSt8__detail14_Node_iteratorISt4pairIKNSt7__cxx1112basic_stringIcSt11char_traitsIcESaIcEEExELb0ELb1EEC1EPNS_10_Hash_nodeIS9_Lb1EEE, symObjAddr: 0x6E54, symBinAddr: 0x10000A1C4, symSize: 0x28 }
  - { offsetInCU: 0x31096, offset: 0x31096, size: 0x8, addend: 0x0, symName: __ZNSt8__detail14_Node_iteratorISt4pairIKNSt7__cxx1112basic_stringIcSt11char_traitsIcESaIcEEExELb0ELb1EEppEv, symObjAddr: 0x6DDC, symBinAddr: 0x10000A14C, symSize: 0x20 }
  - { offsetInCU: 0x3109E, offset: 0x3109E, size: 0x8, addend: 0x0, symName: __ZNKSt8__detail15_Hashtable_baseINSt7__cxx1112basic_stringIcSt11char_traitsIcESaIcEEESt4pairIKS6_xENS_10_Select1stESt8equal_toIS6_ESt4hashIS6_ENS_18_Mod_range_hashingENS_20_Default_ranged_hashENS_17_Hashtable_traitsILb1ELb0ELb1EEEE13_M_key_equalsERS8_RKNS_16_Hash_node_valueIS9_Lb1EEE, symObjAddr: 0x6DFC, symBinAddr: 0x10000A16C, symSize: 0x58 }
  - { offsetInCU: 0x310C7, offset: 0x310C7, size: 0x8, addend: 0x0, symName: __ZNSt10_HashtableINSt7__cxx1112basic_stringIcSt11char_traitsIcESaIcEEESt4pairIKS5_xESaIS8_ENSt8__detail10_Select1stESt8equal_toIS5_ESt4hashIS5_ENSA_18_Mod_range_hashingENSA_20_Default_ranged_hashENSA_20_Prime_rehash_policyENSA_17_Hashtable_traitsILb1ELb0ELb1EEEE5beginEv, symObjAddr: 0x6DB0, symBinAddr: 0x10000A120, symSize: 0x2C }
  - { offsetInCU: 0x310CF, offset: 0x310CF, size: 0x8, addend: 0x0, symName: __ZNSt8__detail14_Node_iteratorISt4pairIKNSt7__cxx1112basic_stringIcSt11char_traitsIcESaIcEEExELb0ELb1EEppEv, symObjAddr: 0x6DDC, symBinAddr: 0x10000A14C, symSize: 0x20 }
  - { offsetInCU: 0x310F9, offset: 0x310F9, size: 0x8, addend: 0x0, symName: __ZNSt10_HashtableINSt7__cxx1112basic_stringIcSt11char_traitsIcESaIcEEESt4pairIKS5_xESaIS8_ENSt8__detail10_Select1stESt8equal_toIS5_ESt4hashIS5_ENSA_18_Mod_range_hashingENSA_20_Default_ranged_hashENSA_20_Prime_rehash_policyENSA_17_Hashtable_traitsILb1ELb0ELb1EEEE22__small_size_thresholdEv, symObjAddr: 0x6D9C, symBinAddr: 0x10000A10C, symSize: 0x14 }
  - { offsetInCU: 0x31101, offset: 0x31101, size: 0x8, addend: 0x0, symName: __ZNSt10_HashtableINSt7__cxx1112basic_stringIcSt11char_traitsIcESaIcEEESt4pairIKS5_xESaIS8_ENSt8__detail10_Select1stESt8equal_toIS5_ESt4hashIS5_ENSA_18_Mod_range_hashingENSA_20_Default_ranged_hashENSA_20_Prime_rehash_policyENSA_17_Hashtable_traitsILb1ELb0ELb1EEEE5beginEv, symObjAddr: 0x6DB0, symBinAddr: 0x10000A120, symSize: 0x2C }
  - { offsetInCU: 0x31116, offset: 0x31116, size: 0x8, addend: 0x0, symName: __ZNKSt10_HashtableINSt7__cxx1112basic_stringIcSt11char_traitsIcESaIcEEESt4pairIKS5_xESaIS8_ENSt8__detail10_Select1stESt8equal_toIS5_ESt4hashIS5_ENSA_18_Mod_range_hashingENSA_20_Default_ranged_hashENSA_20_Prime_rehash_policyENSA_17_Hashtable_traitsILb1ELb0ELb1EEEE4sizeEv, symObjAddr: 0x6D84, symBinAddr: 0x10000A0F4, symSize: 0x18 }
  - { offsetInCU: 0x3111E, offset: 0x3111E, size: 0x8, addend: 0x0, symName: __ZNSt10_HashtableINSt7__cxx1112basic_stringIcSt11char_traitsIcESaIcEEESt4pairIKS5_xESaIS8_ENSt8__detail10_Select1stESt8equal_toIS5_ESt4hashIS5_ENSA_18_Mod_range_hashingENSA_20_Default_ranged_hashENSA_20_Prime_rehash_policyENSA_17_Hashtable_traitsILb1ELb0ELb1EEEE22__small_size_thresholdEv, symObjAddr: 0x6D9C, symBinAddr: 0x10000A10C, symSize: 0x14 }
  - { offsetInCU: 0x312AC, offset: 0x312AC, size: 0x8, addend: 0x0, symName: __ZSt11__addressofIKN11__gnu_debug14_Safe_iteratorISt17_Rb_tree_iteratorISt4pairIKxxEENSt7__debug3mapIxxSt4lessIxESaIS5_EEESt20forward_iterator_tagEEEPT_RSG_, symObjAddr: 0x6D70, symBinAddr: 0x10000A0E0, symSize: 0x14 }
  - { offsetInCU: 0x312B4, offset: 0x312B4, size: 0x8, addend: 0x0, symName: __ZNKSt10_HashtableINSt7__cxx1112basic_stringIcSt11char_traitsIcESaIcEEESt4pairIKS5_xESaIS8_ENSt8__detail10_Select1stESt8equal_toIS5_ESt4hashIS5_ENSA_18_Mod_range_hashingENSA_20_Default_ranged_hashENSA_20_Prime_rehash_policyENSA_17_Hashtable_traitsILb1ELb0ELb1EEEE4sizeEv, symObjAddr: 0x6D84, symBinAddr: 0x10000A0F4, symSize: 0x18 }
  - { offsetInCU: 0x31193, offset: 0x31193, size: 0x8, addend: 0x0, symName: __ZN11__gnu_debug18_BeforeBeginHelperINSt7__debug3mapIxxSt4lessIxESaISt4pairIKxxEEEEE5_S_IsISt17_Rb_tree_iteratorIS7_ESt20forward_iterator_tagEEbRKNS_14_Safe_iteratorIT_S9_T0_EE, symObjAddr: 0x6D5C, symBinAddr: 0x10000A0CC, symSize: 0x14 }
  - { offsetInCU: 0x3119B, offset: 0x3119B, size: 0x8, addend: 0x0, symName: __ZSt11__addressofIKN11__gnu_debug14_Safe_iteratorISt17_Rb_tree_iteratorISt4pairIKxxEENSt7__debug3mapIxxSt4lessIxESaIS5_EEESt20forward_iterator_tagEEEPT_RSG_, symObjAddr: 0x6D70, symBinAddr: 0x10000A0E0, symSize: 0x14 }
  - { offsetInCU: 0x311D9, offset: 0x311D9, size: 0x8, addend: 0x0, symName: __ZNSt7__debug3mapIxxSt4lessIxESaISt4pairIKxxEEE7_M_baseEv, symObjAddr: 0x6D44, symBinAddr: 0x10000A0B4, symSize: 0x18 }
  - { offsetInCU: 0x311E1, offset: 0x311E1, size: 0x8, addend: 0x0, symName: __ZN11__gnu_debug18_BeforeBeginHelperINSt7__debug3mapIxxSt4lessIxESaISt4pairIKxxEEEEE5_S_IsISt17_Rb_tree_iteratorIS7_ESt20forward_iterator_tagEEbRKNS_14_Safe_iteratorIT_S9_T0_EE, symObjAddr: 0x6D5C, symBinAddr: 0x10000A0CC, symSize: 0x14 }
  - { offsetInCU: 0x3120A, offset: 0x3120A, size: 0x8, addend: 0x0, symName: __ZNSt8_Rb_treeIxSt4pairIKxxESt10_Select1stIS2_ESt4lessIxESaIS2_EE14_M_insert_nodeEPSt18_Rb_tree_node_baseSA_PSt13_Rb_tree_nodeIS2_E, symObjAddr: 0x6C70, symBinAddr: 0x100009FE0, symSize: 0xD4 }
  - { offsetInCU: 0x31212, offset: 0x31212, size: 0x8, addend: 0x0, symName: __ZNSt7__debug3mapIxxSt4lessIxESaISt4pairIKxxEEE7_M_baseEv, symObjAddr: 0x6D44, symBinAddr: 0x10000A0B4, symSize: 0x18 }
  - { offsetInCU: 0x3128F, offset: 0x3128F, size: 0x8, addend: 0x0, symName: __ZNSt8_Rb_treeIxSt4pairIKxxESt10_Select1stIS2_ESt4lessIxESaIS2_EE6_S_keyEPKSt13_Rb_tree_nodeIS2_E, symObjAddr: 0x6C48, symBinAddr: 0x100009FB8, symSize: 0x28 }
  - { offsetInCU: 0x31297, offset: 0x31297, size: 0x8, addend: 0x0, symName: __ZNSt8_Rb_treeIxSt4pairIKxxESt10_Select1stIS2_ESt4lessIxESaIS2_EE14_M_insert_nodeEPSt18_Rb_tree_node_baseSA_PSt13_Rb_tree_nodeIS2_E, symObjAddr: 0x6C70, symBinAddr: 0x100009FE0, symSize: 0xD4 }
  - { offsetInCU: 0x312C3, offset: 0x312C3, size: 0x8, addend: 0x0, symName: __ZNSt17_Rb_tree_iteratorISt4pairIKxxEEmmEv, symObjAddr: 0x6C18, symBinAddr: 0x100009F88, symSize: 0x30 }
  - { offsetInCU: 0x312CB, offset: 0x312CB, size: 0x8, addend: 0x0, symName: __ZNSt8_Rb_treeIxSt4pairIKxxESt10_Select1stIS2_ESt4lessIxESaIS2_EE6_S_keyEPKSt13_Rb_tree_nodeIS2_E, symObjAddr: 0x6C48, symBinAddr: 0x100009FB8, symSize: 0x28 }
  - { offsetInCU: 0x3138B, offset: 0x3138B, size: 0x8, addend: 0x0, symName: __ZNSt4pairIPSt18_Rb_tree_node_baseS1_EC1IRS1_S4_Lb1EEEOT_OT0_, symObjAddr: 0x6BD0, symBinAddr: 0x100009F40, symSize: 0x48 }
  - { offsetInCU: 0x31393, offset: 0x31393, size: 0x8, addend: 0x0, symName: __ZNSt17_Rb_tree_iteratorISt4pairIKxxEEmmEv, symObjAddr: 0x6C18, symBinAddr: 0x100009F88, symSize: 0x30 }
  - { offsetInCU: 0x313B1, offset: 0x313B1, size: 0x8, addend: 0x0, symName: __ZNSt8_Rb_treeIxSt4pairIKxxESt10_Select1stIS2_ESt4lessIxESaIS2_EE11_M_leftmostEv, symObjAddr: 0x6BB8, symBinAddr: 0x100009F28, symSize: 0x18 }
  - { offsetInCU: 0x313B9, offset: 0x313B9, size: 0x8, addend: 0x0, symName: __ZNSt4pairIPSt18_Rb_tree_node_baseS1_EC1IRS1_S4_Lb1EEEOT_OT0_, symObjAddr: 0x6BD0, symBinAddr: 0x100009F40, symSize: 0x48 }
  - { offsetInCU: 0x3147B, offset: 0x3147B, size: 0x8, addend: 0x0, symName: __ZNSt4pairIPSt18_Rb_tree_node_baseS1_EC1IS1_S1_Lb1EEERKS1_S5_, symObjAddr: 0x6B7C, symBinAddr: 0x100009EEC, symSize: 0x3C }
  - { offsetInCU: 0x31483, offset: 0x31483, size: 0x8, addend: 0x0, symName: __ZNSt8_Rb_treeIxSt4pairIKxxESt10_Select1stIS2_ESt4lessIxESaIS2_EE11_M_leftmostEv, symObjAddr: 0x6BB8, symBinAddr: 0x100009F28, symSize: 0x18 }
  - { offsetInCU: 0x314A3, offset: 0x314A3, size: 0x8, addend: 0x0, symName: __ZNSt8_Rb_treeIxSt4pairIKxxESt10_Select1stIS2_ESt4lessIxESaIS2_EE12_M_rightmostEv, symObjAddr: 0x6B64, symBinAddr: 0x100009ED4, symSize: 0x18 }
  - { offsetInCU: 0x314AB, offset: 0x314AB, size: 0x8, addend: 0x0, symName: __ZNSt4pairIPSt18_Rb_tree_node_baseS1_EC1IS1_S1_Lb1EEERKS1_S5_, symObjAddr: 0x6B7C, symBinAddr: 0x100009EEC, symSize: 0x3C }
  - { offsetInCU: 0x314D4, offset: 0x314D4, size: 0x8, addend: 0x0, symName: __ZNKSt8_Rb_treeIxSt4pairIKxxESt10_Select1stIS2_ESt4lessIxESaIS2_EE4sizeEv, symObjAddr: 0x6B4C, symBinAddr: 0x100009EBC, symSize: 0x18 }
  - { offsetInCU: 0x314DC, offset: 0x314DC, size: 0x8, addend: 0x0, symName: __ZNSt8_Rb_treeIxSt4pairIKxxESt10_Select1stIS2_ESt4lessIxESaIS2_EE12_M_rightmostEv, symObjAddr: 0x6B64, symBinAddr: 0x100009ED4, symSize: 0x18 }
  - { offsetInCU: 0x31505, offset: 0x31505, size: 0x8, addend: 0x0, symName: __ZNKSt23_Rb_tree_const_iteratorISt4pairIKxxEE13_M_const_castEv, symObjAddr: 0x6B24, symBinAddr: 0x100009E94, symSize: 0x28 }
  - { offsetInCU: 0x3150D, offset: 0x3150D, size: 0x8, addend: 0x0, symName: __ZNKSt8_Rb_treeIxSt4pairIKxxESt10_Select1stIS2_ESt4lessIxESaIS2_EE4sizeEv, symObjAddr: 0x6B4C, symBinAddr: 0x100009EBC, symSize: 0x18 }
  - { offsetInCU: 0x31536, offset: 0x31536, size: 0x8, addend: 0x0, symName: __ZNSt8_Rb_treeIxSt4pairIKxxESt10_Select1stIS2_ESt4lessIxESaIS2_EE14_M_create_nodeIJRKSt21piecewise_construct_tSt5tupleIJRS1_EESD_IJEEEEEPSt13_Rb_tree_nodeIS2_EDpOT_, symObjAddr: 0x6AB4, symBinAddr: 0x100009E24, symSize: 0x70 }
  - { offsetInCU: 0x3153E, offset: 0x3153E, size: 0x8, addend: 0x0, symName: __ZNKSt23_Rb_tree_const_iteratorISt4pairIKxxEE13_M_const_castEv, symObjAddr: 0x6B24, symBinAddr: 0x100009E94, symSize: 0x28 }
  - { offsetInCU: 0x3161C, offset: 0x3161C, size: 0x8, addend: 0x0, symName: __ZNSt10_Head_baseILm0ERKxLb0EEC2ES1_, symObjAddr: 0x6A90, symBinAddr: 0x100009E00, symSize: 0x24 }
  - { offsetInCU: 0x31624, offset: 0x31624, size: 0x8, addend: 0x0, symName: __ZNSt8_Rb_treeIxSt4pairIKxxESt10_Select1stIS2_ESt4lessIxESaIS2_EE14_M_create_nodeIJRKSt21piecewise_construct_tSt5tupleIJRS1_EESD_IJEEEEEPSt13_Rb_tree_nodeIS2_EDpOT_, symObjAddr: 0x6AB4, symBinAddr: 0x100009E24, symSize: 0x70 }
  - { offsetInCU: 0x31634, offset: 0x31634, size: 0x8, addend: 0x0, symName: __ZN9__gnu_cxx16__aligned_membufISt4pairIKxxEE6_M_ptrEv, symObjAddr: 0x6A74, symBinAddr: 0x100009DE4, symSize: 0x1C }
  - { offsetInCU: 0x3163C, offset: 0x3163C, size: 0x8, addend: 0x0, symName: __ZNSt10_Head_baseILm0ERKxLb0EEC2ES1_, symObjAddr: 0x6A90, symBinAddr: 0x100009E00, symSize: 0x24 }
  - { offsetInCU: 0x3174A, offset: 0x3174A, size: 0x8, addend: 0x0, symName: __ZN11__gnu_debug14_Safe_iteratorISt17_Rb_tree_iteratorISt4pairIKxxEENSt7__debug3mapIxxSt4lessIxESaIS4_EEESt20forward_iterator_tagEC2ERKSD_, symObjAddr: 0x6904, symBinAddr: 0x100009C74, symSize: 0x170 }
  - { offsetInCU: 0x31752, offset: 0x31752, size: 0x8, addend: 0x0, symName: __ZN9__gnu_cxx16__aligned_membufISt4pairIKxxEE6_M_ptrEv, symObjAddr: 0x6A74, symBinAddr: 0x100009DE4, symSize: 0x1C }
  - { offsetInCU: 0x31710, offset: 0x31710, size: 0x8, addend: 0x0, symName: __ZNSt8_Rb_treeIxSt4pairIKxxESt10_Select1stIS2_ESt4lessIxESaIS2_EE24_M_get_insert_unique_posERS1_, symObjAddr: 0x67A4, symBinAddr: 0x100009B14, symSize: 0x160 }
  - { offsetInCU: 0x31718, offset: 0x31718, size: 0x8, addend: 0x0, symName: __ZN11__gnu_debug14_Safe_iteratorISt17_Rb_tree_iteratorISt4pairIKxxEENSt7__debug3mapIxxSt4lessIxESaIS4_EEESt20forward_iterator_tagEC2ERKSD_, symObjAddr: 0x6904, symBinAddr: 0x100009C74, symSize: 0x170 }
  - { offsetInCU: 0x31860, offset: 0x31860, size: 0x8, addend: 0x0, symName: __ZNSt8_Rb_treeIxSt4pairIKxxESt10_Select1stIS2_ESt4lessIxESaIS2_EE10_Auto_nodeC1IJS0_IxiEEEERS8_DpOT_, symObjAddr: 0x6758, symBinAddr: 0x100009AC8, symSize: 0x4C }
  - { offsetInCU: 0x31868, offset: 0x31868, size: 0x8, addend: 0x0, symName: __ZNSt8_Rb_treeIxSt4pairIKxxESt10_Select1stIS2_ESt4lessIxESaIS2_EE24_M_get_insert_unique_posERS1_, symObjAddr: 0x67A4, symBinAddr: 0x100009B14, symSize: 0x160 }
  - { offsetInCU: 0x31907, offset: 0x31907, size: 0x8, addend: 0x0, symName: __ZSt7forwardIRSt17_Rb_tree_iteratorISt4pairIKxxEEEOT_RNSt16remove_referenceIS6_E4typeE, symObjAddr: 0x6744, symBinAddr: 0x100009AB4, symSize: 0x14 }
  - { offsetInCU: 0x3190F, offset: 0x3190F, size: 0x8, addend: 0x0, symName: __ZNSt8_Rb_treeIxSt4pairIKxxESt10_Select1stIS2_ESt4lessIxESaIS2_EE10_Auto_nodeC1IJS0_IxiEEEERS8_DpOT_, symObjAddr: 0x6758, symBinAddr: 0x100009AC8, symSize: 0x4C }
  - { offsetInCU: 0x318B1, offset: 0x318B1, size: 0x8, addend: 0x0, symName: __ZNSt8_Rb_treeIxSt4pairIKxxESt10_Select1stIS2_ESt4lessIxESaIS2_EE22_M_emplace_hint_uniqueIJS0_IxiEEEESt17_Rb_tree_iteratorIS2_ESt23_Rb_tree_const_iteratorIS2_EDpOT_, symObjAddr: 0x6694, symBinAddr: 0x100009A04, symSize: 0xB0 }
  - { offsetInCU: 0x318B9, offset: 0x318B9, size: 0x8, addend: 0x0, symName: __ZSt7forwardIRSt17_Rb_tree_iteratorISt4pairIKxxEEEOT_RNSt16remove_referenceIS6_E4typeE, symObjAddr: 0x6744, symBinAddr: 0x100009AB4, symSize: 0x14 }
  - { offsetInCU: 0x31945, offset: 0x31945, size: 0x8, addend: 0x0, symName: __ZNK11__gnu_debug14_Safe_iteratorISt17_Rb_tree_iteratorISt4pairIKxxEENSt7__debug3mapIxxSt4lessIxESaIS4_EEESt20forward_iterator_tagE11_M_is_beginEv, symObjAddr: 0x6644, symBinAddr: 0x1000099B4, symSize: 0x50 }
  - { offsetInCU: 0x3194D, offset: 0x3194D, size: 0x8, addend: 0x0, symName: __ZNSt8_Rb_treeIxSt4pairIKxxESt10_Select1stIS2_ESt4lessIxESaIS2_EE22_M_emplace_hint_uniqueIJS0_IxiEEEESt17_Rb_tree_iteratorIS2_ESt23_Rb_tree_const_iteratorIS2_EDpOT_, symObjAddr: 0x6694, symBinAddr: 0x100009A04, symSize: 0xB0 }
  - { offsetInCU: 0x31976, offset: 0x31976, size: 0x8, addend: 0x0, symName: __ZNK11__gnu_debug14_Safe_iteratorISt17_Rb_tree_iteratorISt4pairIKxxEENSt7__debug3mapIxxSt4lessIxESaIS4_EEESt20forward_iterator_tagE15_M_get_sequenceEv, symObjAddr: 0x662C, symBinAddr: 0x10000999C, symSize: 0x18 }
  - { offsetInCU: 0x3197E, offset: 0x3197E, size: 0x8, addend: 0x0, symName: __ZNK11__gnu_debug14_Safe_iteratorISt17_Rb_tree_iteratorISt4pairIKxxEENSt7__debug3mapIxxSt4lessIxESaIS4_EEESt20forward_iterator_tagE11_M_is_beginEv, symObjAddr: 0x6644, symBinAddr: 0x1000099B4, symSize: 0x50 }
  - { offsetInCU: 0x31B18, offset: 0x31B18, size: 0x8, addend: 0x0, symName: __ZSt11__addressofIKN11__gnu_debug14_Safe_iteratorISt17_Rb_tree_iteratorISt4pairIKxxEENSt7__debug3mapIxxSt4lessIxESaIS5_EEESt26bidirectional_iterator_tagEEEPT_RSG_, symObjAddr: 0x6618, symBinAddr: 0x100009988, symSize: 0x14 }
  - { offsetInCU: 0x31B20, offset: 0x31B20, size: 0x8, addend: 0x0, symName: __ZNK11__gnu_debug14_Safe_iteratorISt17_Rb_tree_iteratorISt4pairIKxxEENSt7__debug3mapIxxSt4lessIxESaIS4_EEESt20forward_iterator_tagE15_M_get_sequenceEv, symObjAddr: 0x662C, symBinAddr: 0x10000999C, symSize: 0x18 }
  - { offsetInCU: 0x319F3, offset: 0x319F3, size: 0x8, addend: 0x0, symName: __ZNSt8_Rb_treeIxSt4pairIKxxESt10_Select1stIS2_ESt4lessIxESaIS2_EE6_S_keyEPKSt18_Rb_tree_node_base, symObjAddr: 0x65FC, symBinAddr: 0x10000996C, symSize: 0x1C }
  - { offsetInCU: 0x319FB, offset: 0x319FB, size: 0x8, addend: 0x0, symName: __ZSt11__addressofIKN11__gnu_debug14_Safe_iteratorISt17_Rb_tree_iteratorISt4pairIKxxEENSt7__debug3mapIxxSt4lessIxESaIS5_EEESt26bidirectional_iterator_tagEEEPT_RSG_, symObjAddr: 0x6618, symBinAddr: 0x100009988, symSize: 0x14 }
  - { offsetInCU: 0x31A27, offset: 0x31A27, size: 0x8, addend: 0x0, symName: __ZNSt8_Rb_treeIxSt4pairIKxxESt10_Select1stIS2_ESt4lessIxESaIS2_EE14_M_lower_boundEPSt13_Rb_tree_nodeIS2_EPSt18_Rb_tree_node_baseRS1_, symObjAddr: 0x655C, symBinAddr: 0x1000098CC, symSize: 0xA0 }
  - { offsetInCU: 0x31A2F, offset: 0x31A2F, size: 0x8, addend: 0x0, symName: __ZNSt8_Rb_treeIxSt4pairIKxxESt10_Select1stIS2_ESt4lessIxESaIS2_EE6_S_keyEPKSt18_Rb_tree_node_base, symObjAddr: 0x65FC, symBinAddr: 0x10000996C, symSize: 0x1C }
  - { offsetInCU: 0x31A97, offset: 0x31A97, size: 0x8, addend: 0x0, symName: __ZNSt8_Rb_treeIxSt4pairIKxxESt10_Select1stIS2_ESt4lessIxESaIS2_EE6_M_endEv, symObjAddr: 0x6544, symBinAddr: 0x1000098B4, symSize: 0x18 }
  - { offsetInCU: 0x31A9F, offset: 0x31A9F, size: 0x8, addend: 0x0, symName: __ZNSt8_Rb_treeIxSt4pairIKxxESt10_Select1stIS2_ESt4lessIxESaIS2_EE14_M_lower_boundEPSt13_Rb_tree_nodeIS2_EPSt18_Rb_tree_node_baseRS1_, symObjAddr: 0x655C, symBinAddr: 0x1000098CC, symSize: 0xA0 }
  - { offsetInCU: 0x31AC8, offset: 0x31AC8, size: 0x8, addend: 0x0, symName: __ZNSt8_Rb_treeIxSt4pairIKxxESt10_Select1stIS2_ESt4lessIxESaIS2_EE11_M_put_nodeEPSt13_Rb_tree_nodeIS2_E, symObjAddr: 0x64F8, symBinAddr: 0x100009868, symSize: 0x4C }
  - { offsetInCU: 0x31AD0, offset: 0x31AD0, size: 0x8, addend: 0x0, symName: __ZNSt8_Rb_treeIxSt4pairIKxxESt10_Select1stIS2_ESt4lessIxESaIS2_EE6_M_endEv, symObjAddr: 0x6544, symBinAddr: 0x1000098B4, symSize: 0x18 }
  - { offsetInCU: 0x31B50, offset: 0x31B50, size: 0x8, addend: 0x0, symName: __ZNSt8_Rb_treeIxSt4pairIKxxESt10_Select1stIS2_ESt4lessIxESaIS2_EE15_M_destroy_nodeEPSt13_Rb_tree_nodeIS2_E, symObjAddr: 0x64A0, symBinAddr: 0x100009810, symSize: 0x58 }
  - { offsetInCU: 0x31B58, offset: 0x31B58, size: 0x8, addend: 0x0, symName: __ZNSt8_Rb_treeIxSt4pairIKxxESt10_Select1stIS2_ESt4lessIxESaIS2_EE11_M_put_nodeEPSt13_Rb_tree_nodeIS2_E, symObjAddr: 0x64F8, symBinAddr: 0x100009868, symSize: 0x4C }
  - { offsetInCU: 0x31C00, offset: 0x31C00, size: 0x8, addend: 0x0, symName: __ZNSt8__detail16_Hashtable_allocISaINS_10_Hash_nodeISt4pairIKNSt7__cxx1112basic_stringIcSt11char_traitsIcESaIcEEExELb1EEEEE21_M_deallocate_bucketsEPPNS_15_Hash_node_baseEm, symObjAddr: 0x6428, symBinAddr: 0x100009798, symSize: 0x78 }
  - { offsetInCU: 0x31C08, offset: 0x31C08, size: 0x8, addend: 0x0, symName: __ZNSt8_Rb_treeIxSt4pairIKxxESt10_Select1stIS2_ESt4lessIxESaIS2_EE15_M_destroy_nodeEPSt13_Rb_tree_nodeIS2_E, symObjAddr: 0x64A0, symBinAddr: 0x100009810, symSize: 0x58 }
  - { offsetInCU: 0x31D44, offset: 0x31D44, size: 0x8, addend: 0x0, symName: __ZNKSt10_HashtableINSt7__cxx1112basic_stringIcSt11char_traitsIcESaIcEEESt4pairIKS5_xESaIS8_ENSt8__detail10_Select1stESt8equal_toIS5_ESt4hashIS5_ENSA_18_Mod_range_hashingENSA_20_Default_ranged_hashENSA_20_Prime_rehash_policyENSA_17_Hashtable_traitsILb1ELb0ELb1EEEE21_M_uses_single_bucketEPPNSA_15_Hash_node_baseE, symObjAddr: 0x63EC, symBinAddr: 0x10000975C, symSize: 0x3C }
  - { offsetInCU: 0x31D4C, offset: 0x31D4C, size: 0x8, addend: 0x0, symName: __ZNSt8__detail16_Hashtable_allocISaINS_10_Hash_nodeISt4pairIKNSt7__cxx1112basic_stringIcSt11char_traitsIcESaIcEEExELb1EEEEE21_M_deallocate_bucketsEPPNS_15_Hash_node_baseEm, symObjAddr: 0x6428, symBinAddr: 0x100009798, symSize: 0x78 }
  - { offsetInCU: 0x31D8A, offset: 0x31D8A, size: 0x8, addend: 0x0, symName: __ZNSt8__detail16_Hashtable_allocISaINS_10_Hash_nodeISt4pairIKNSt7__cxx1112basic_stringIcSt11char_traitsIcESaIcEEExELb1EEEEE18_M_deallocate_nodeEPSB_, symObjAddr: 0x637C, symBinAddr: 0x1000096EC, symSize: 0x70 }
  - { offsetInCU: 0x31D92, offset: 0x31D92, size: 0x8, addend: 0x0, symName: __ZNKSt10_HashtableINSt7__cxx1112basic_stringIcSt11char_traitsIcESaIcEEESt4pairIKS5_xESaIS8_ENSt8__detail10_Select1stESt8equal_toIS5_ESt4hashIS5_ENSA_18_Mod_range_hashingENSA_20_Default_ranged_hashENSA_20_Prime_rehash_policyENSA_17_Hashtable_traitsILb1ELb0ELb1EEEE21_M_uses_single_bucketEPPNSA_15_Hash_node_baseE, symObjAddr: 0x63EC, symBinAddr: 0x10000975C, symSize: 0x3C }
  - { offsetInCU: 0x31E3A, offset: 0x31E3A, size: 0x8, addend: 0x0, symName: __ZNKSt8__detail10_Hash_nodeISt4pairIKNSt7__cxx1112basic_stringIcSt11char_traitsIcESaIcEEExELb1EE7_M_nextEv, symObjAddr: 0x6364, symBinAddr: 0x1000096D4, symSize: 0x18 }
  - { offsetInCU: 0x31E42, offset: 0x31E42, size: 0x8, addend: 0x0, symName: __ZNSt8__detail16_Hashtable_allocISaINS_10_Hash_nodeISt4pairIKNSt7__cxx1112basic_stringIcSt11char_traitsIcESaIcEEExELb1EEEEE18_M_deallocate_nodeEPSB_, symObjAddr: 0x637C, symBinAddr: 0x1000096EC, symSize: 0x70 }
  - { offsetInCU: 0x31E70, offset: 0x31E70, size: 0x8, addend: 0x0, symName: __ZNSt7__cxx1112basic_stringIcSt11char_traitsIcESaIcEE9_M_mutateEmmPKcm, symObjAddr: 0x620C, symBinAddr: 0x10000957C, symSize: 0x158 }
  - { offsetInCU: 0x31E78, offset: 0x31E78, size: 0x8, addend: 0x0, symName: __ZNKSt8__detail10_Hash_nodeISt4pairIKNSt7__cxx1112basic_stringIcSt11char_traitsIcESaIcEEExELb1EE7_M_nextEv, symObjAddr: 0x6364, symBinAddr: 0x1000096D4, symSize: 0x18 }
  - { offsetInCU: 0x31F34, offset: 0x31F34, size: 0x8, addend: 0x0, symName: __ZNSt7__cxx1112basic_stringIcSt11char_traitsIcESaIcEE7_S_moveEPcPKcm, symObjAddr: 0x61C0, symBinAddr: 0x100009530, symSize: 0x4C }
  - { offsetInCU: 0x31F3C, offset: 0x31F3C, size: 0x8, addend: 0x0, symName: __ZNSt7__cxx1112basic_stringIcSt11char_traitsIcESaIcEE9_M_mutateEmmPKcm, symObjAddr: 0x620C, symBinAddr: 0x10000957C, symSize: 0x158 }
  - { offsetInCU: 0x31FC2, offset: 0x31FC2, size: 0x8, addend: 0x0, symName: __ZNSt15__new_allocatorIcE10deallocateEPcm, symObjAddr: 0x6198, symBinAddr: 0x100009508, symSize: 0x28 }
  - { offsetInCU: 0x31FCA, offset: 0x31FCA, size: 0x8, addend: 0x0, symName: __ZNSt7__cxx1112basic_stringIcSt11char_traitsIcESaIcEE7_S_moveEPcPKcm, symObjAddr: 0x61C0, symBinAddr: 0x100009530, symSize: 0x4C }
  - { offsetInCU: 0x32070, offset: 0x32070, size: 0x8, addend: 0x0, symName: __ZNSt7__cxx1112basic_stringIcSt11char_traitsIcESaIcEE10_M_replaceEmmPKcm, symObjAddr: 0x6008, symBinAddr: 0x100009378, symSize: 0x190 }
  - { offsetInCU: 0x32078, offset: 0x32078, size: 0x8, addend: 0x0, symName: __ZNSt15__new_allocatorIcE10deallocateEPcm, symObjAddr: 0x6198, symBinAddr: 0x100009508, symSize: 0x28 }
  - { offsetInCU: 0x321DA, offset: 0x321DA, size: 0x8, addend: 0x0, symName: __ZNSt19__ptr_traits_ptr_toIPKcS0_Lb0EE10pointer_toERS0_, symObjAddr: 0x5FEC, symBinAddr: 0x10000935C, symSize: 0x1C }
  - { offsetInCU: 0x321E2, offset: 0x321E2, size: 0x8, addend: 0x0, symName: __ZNSt7__cxx1112basic_stringIcSt11char_traitsIcESaIcEE10_M_replaceEmmPKcm, symObjAddr: 0x6008, symBinAddr: 0x100009378, symSize: 0x190 }
  - { offsetInCU: 0x3220D, offset: 0x3220D, size: 0x8, addend: 0x0, symName: __ZNKSt7__cxx1112basic_stringIcSt11char_traitsIcESaIcEE8max_sizeEv, symObjAddr: 0x5FA8, symBinAddr: 0x100009318, symSize: 0x44 }
  - { offsetInCU: 0x32215, offset: 0x32215, size: 0x8, addend: 0x0, symName: __ZNSt19__ptr_traits_ptr_toIPKcS0_Lb0EE10pointer_toERS0_, symObjAddr: 0x5FEC, symBinAddr: 0x10000935C, symSize: 0x1C }
  - { offsetInCU: 0x32307, offset: 0x32307, size: 0x8, addend: 0x0, symName: __ZSt9addressofIcEPT_RS0_, symObjAddr: 0x5F8C, symBinAddr: 0x1000092FC, symSize: 0x1C }
  - { offsetInCU: 0x3230F, offset: 0x3230F, size: 0x8, addend: 0x0, symName: __ZNKSt7__cxx1112basic_stringIcSt11char_traitsIcESaIcEE8max_sizeEv, symObjAddr: 0x5FA8, symBinAddr: 0x100009318, symSize: 0x44 }
  - { offsetInCU: 0x32326, offset: 0x32326, size: 0x8, addend: 0x0, symName: __ZNKSt8__detail14_Node_iteratorISt4pairIKNSt7__cxx1112basic_stringIcSt11char_traitsIcESaIcEEExELb0ELb1EEptEv, symObjAddr: 0x5F68, symBinAddr: 0x1000092D8, symSize: 0x24 }
  - { offsetInCU: 0x3232E, offset: 0x3232E, size: 0x8, addend: 0x0, symName: __ZSt9addressofIcEPT_RS0_, symObjAddr: 0x5F8C, symBinAddr: 0x1000092FC, symSize: 0x1C }
  - { offsetInCU: 0x32357, offset: 0x32357, size: 0x8, addend: 0x0, symName: __ZNSt10_HashtableINSt7__cxx1112basic_stringIcSt11char_traitsIcESaIcEEESt4pairIKS5_xESaIS8_ENSt8__detail10_Select1stESt8equal_toIS5_ESt4hashIS5_ENSA_18_Mod_range_hashingENSA_20_Default_ranged_hashENSA_20_Prime_rehash_policyENSA_17_Hashtable_traitsILb1ELb0ELb1EEEE21_M_insert_unique_nodeEmmPNSA_10_Hash_nodeIS8_Lb1EEEm, symObjAddr: 0x5E80, symBinAddr: 0x1000091F0, symSize: 0xE8 }
  - { offsetInCU: 0x3235F, offset: 0x3235F, size: 0x8, addend: 0x0, symName: __ZNKSt8__detail14_Node_iteratorISt4pairIKNSt7__cxx1112basic_stringIcSt11char_traitsIcESaIcEEExELb0ELb1EEptEv, symObjAddr: 0x5F68, symBinAddr: 0x1000092D8, symSize: 0x24 }
  - { offsetInCU: 0x3254C, offset: 0x3254C, size: 0x8, addend: 0x0, symName: __ZNSt10_HashtableINSt7__cxx1112basic_stringIcSt11char_traitsIcESaIcEEESt4pairIKS5_xESaIS8_ENSt8__detail10_Select1stESt8equal_toIS5_ESt4hashIS5_ENSA_18_Mod_range_hashingENSA_20_Default_ranged_hashENSA_20_Prime_rehash_policyENSA_17_Hashtable_traitsILb1ELb0ELb1EEEE12_Scoped_nodeD1Ev, symObjAddr: 0x5E3C, symBinAddr: 0x1000091AC, symSize: 0x44 }
  - { offsetInCU: 0x32554, offset: 0x32554, size: 0x8, addend: 0x0, symName: __ZNSt10_HashtableINSt7__cxx1112basic_stringIcSt11char_traitsIcESaIcEEESt4pairIKS5_xESaIS8_ENSt8__detail10_Select1stESt8equal_toIS5_ESt4hashIS5_ENSA_18_Mod_range_hashingENSA_20_Default_ranged_hashENSA_20_Prime_rehash_policyENSA_17_Hashtable_traitsILb1ELb0ELb1EEEE21_M_insert_unique_nodeEmmPNSA_10_Hash_nodeIS8_Lb1EEEm, symObjAddr: 0x5E80, symBinAddr: 0x1000091F0, symSize: 0xE8 }
  - { offsetInCU: 0x3265E, offset: 0x3265E, size: 0x8, addend: 0x0, symName: __ZNSt10_HashtableINSt7__cxx1112basic_stringIcSt11char_traitsIcESaIcEEESt4pairIKS5_xESaIS8_ENSt8__detail10_Select1stESt8equal_toIS5_ESt4hashIS5_ENSA_18_Mod_range_hashingENSA_20_Default_ranged_hashENSA_20_Prime_rehash_policyENSA_17_Hashtable_traitsILb1ELb0ELb1EEEE12_Scoped_nodeC1IJRKSt21piecewise_construct_tSt5tupleIJRS7_EESR_IJEEEEEPNSA_16_Hashtable_allocISaINSA_10_Hash_nodeIS8_Lb1EEEEEEDpOT_, symObjAddr: 0x5DB4, symBinAddr: 0x100009124, symSize: 0x88 }
  - { offsetInCU: 0x32666, offset: 0x32666, size: 0x8, addend: 0x0, symName: __ZNSt10_HashtableINSt7__cxx1112basic_stringIcSt11char_traitsIcESaIcEEESt4pairIKS5_xESaIS8_ENSt8__detail10_Select1stESt8equal_toIS5_ESt4hashIS5_ENSA_18_Mod_range_hashingENSA_20_Default_ranged_hashENSA_20_Prime_rehash_policyENSA_17_Hashtable_traitsILb1ELb0ELb1EEEE12_Scoped_nodeD1Ev, symObjAddr: 0x5E3C, symBinAddr: 0x1000091AC, symSize: 0x44 }
  - { offsetInCU: 0x325F1, offset: 0x325F1, size: 0x8, addend: 0x0, symName: __ZNSt5tupleIJRKNSt7__cxx1112basic_stringIcSt11char_traitsIcESaIcEEEEEC1ILb1ELb1EEES7_, symObjAddr: 0x5D8C, symBinAddr: 0x1000090FC, symSize: 0x28 }
  - { offsetInCU: 0x325F9, offset: 0x325F9, size: 0x8, addend: 0x0, symName: __ZNSt10_HashtableINSt7__cxx1112basic_stringIcSt11char_traitsIcESaIcEEESt4pairIKS5_xESaIS8_ENSt8__detail10_Select1stESt8equal_toIS5_ESt4hashIS5_ENSA_18_Mod_range_hashingENSA_20_Default_ranged_hashENSA_20_Prime_rehash_policyENSA_17_Hashtable_traitsILb1ELb0ELb1EEEE12_Scoped_nodeC1IJRKSt21piecewise_construct_tSt5tupleIJRS7_EESR_IJEEEEEPNSA_16_Hashtable_allocISaINSA_10_Hash_nodeIS8_Lb1EEEEEEDpOT_, symObjAddr: 0x5DB4, symBinAddr: 0x100009124, symSize: 0x88 }
  - { offsetInCU: 0x325E7, offset: 0x325E7, size: 0x8, addend: 0x0, symName: __ZNSt8__detail21_Hash_node_value_baseISt4pairIKNSt7__cxx1112basic_stringIcSt11char_traitsIcESaIcEEExEE4_M_vEv, symObjAddr: 0x5D70, symBinAddr: 0x1000090E0, symSize: 0x1C }
  - { offsetInCU: 0x325EF, offset: 0x325EF, size: 0x8, addend: 0x0, symName: __ZNSt5tupleIJRKNSt7__cxx1112basic_stringIcSt11char_traitsIcESaIcEEEEEC1ILb1ELb1EEES7_, symObjAddr: 0x5D8C, symBinAddr: 0x1000090FC, symSize: 0x28 }
  - { offsetInCU: 0x32618, offset: 0x32618, size: 0x8, addend: 0x0, symName: __ZNKSt10_HashtableINSt7__cxx1112basic_stringIcSt11char_traitsIcESaIcEEESt4pairIKS5_xESaIS8_ENSt8__detail10_Select1stESt8equal_toIS5_ESt4hashIS5_ENSA_18_Mod_range_hashingENSA_20_Default_ranged_hashENSA_20_Prime_rehash_policyENSA_17_Hashtable_traitsILb1ELb0ELb1EEEE12_M_find_nodeEmRS7_m, symObjAddr: 0x5D1C, symBinAddr: 0x10000908C, symSize: 0x54 }
  - { offsetInCU: 0x32620, offset: 0x32620, size: 0x8, addend: 0x0, symName: __ZNSt8__detail21_Hash_node_value_baseISt4pairIKNSt7__cxx1112basic_stringIcSt11char_traitsIcESaIcEEExEE4_M_vEv, symObjAddr: 0x5D70, symBinAddr: 0x1000090E0, symSize: 0x1C }
  - { offsetInCU: 0x3269D, offset: 0x3269D, size: 0x8, addend: 0x0, symName: __ZNKSt10_HashtableINSt7__cxx1112basic_stringIcSt11char_traitsIcESaIcEEESt4pairIKS5_xESaIS8_ENSt8__detail10_Select1stESt8equal_toIS5_ESt4hashIS5_ENSA_18_Mod_range_hashingENSA_20_Default_ranged_hashENSA_20_Prime_rehash_policyENSA_17_Hashtable_traitsILb1ELb0ELb1EEEE15_M_bucket_indexEm, symObjAddr: 0x5CEC, symBinAddr: 0x10000905C, symSize: 0x30 }
  - { offsetInCU: 0x326A5, offset: 0x326A5, size: 0x8, addend: 0x0, symName: __ZNKSt10_HashtableINSt7__cxx1112basic_stringIcSt11char_traitsIcESaIcEEESt4pairIKS5_xESaIS8_ENSt8__detail10_Select1stESt8equal_toIS5_ESt4hashIS5_ENSA_18_Mod_range_hashingENSA_20_Default_ranged_hashENSA_20_Prime_rehash_policyENSA_17_Hashtable_traitsILb1ELb0ELb1EEEE12_M_find_nodeEmRS7_m, symObjAddr: 0x5D1C, symBinAddr: 0x10000908C, symSize: 0x54 }
  - { offsetInCU: 0x326E3, offset: 0x326E3, size: 0x8, addend: 0x0, symName: __ZNKSt8__detail15_Hash_code_baseINSt7__cxx1112basic_stringIcSt11char_traitsIcESaIcEEESt4pairIKS6_xENS_10_Select1stESt4hashIS6_ENS_18_Mod_range_hashingENS_20_Default_ranged_hashELb1EE12_M_hash_codeERS8_, symObjAddr: 0x5CC4, symBinAddr: 0x100009034, symSize: 0x28 }
  - { offsetInCU: 0x326EB, offset: 0x326EB, size: 0x8, addend: 0x0, symName: __ZNKSt10_HashtableINSt7__cxx1112basic_stringIcSt11char_traitsIcESaIcEEESt4pairIKS5_xESaIS8_ENSt8__detail10_Select1stESt8equal_toIS5_ESt4hashIS5_ENSA_18_Mod_range_hashingENSA_20_Default_ranged_hashENSA_20_Prime_rehash_policyENSA_17_Hashtable_traitsILb1ELb0ELb1EEEE15_M_bucket_indexEm, symObjAddr: 0x5CEC, symBinAddr: 0x10000905C, symSize: 0x30 }
  - { offsetInCU: 0x328C4, offset: 0x328C4, size: 0x8, addend: 0x0, symName: __ZN11__gnu_debug16_Error_formatter10_ParameterC1INSt8__detail14_Node_iteratorISt4pairIKNSt7__cxx1112basic_stringIcSt11char_traitsIcESaIcEEExELb0ELb1EEENSt7__debug13unordered_mapISB_xSt4hashISB_ESt8equal_toISB_ESaISD_EEESt20forward_iterator_tagEERKNS_14_Safe_iteratorIT_T0_T1_EEPKcNS0_12_Is_iteratorE, symObjAddr: 0x5B48, symBinAddr: 0x100008EB8, symSize: 0x17C }
  - { offsetInCU: 0x328CC, offset: 0x328CC, size: 0x8, addend: 0x0, symName: __ZNKSt8__detail15_Hash_code_baseINSt7__cxx1112basic_stringIcSt11char_traitsIcESaIcEEESt4pairIKS6_xENS_10_Select1stESt4hashIS6_ENS_18_Mod_range_hashingENS_20_Default_ranged_hashELb1EE12_M_hash_codeERS8_, symObjAddr: 0x5CC4, symBinAddr: 0x100009034, symSize: 0x28 }
  - { offsetInCU: 0x3289E, offset: 0x3289E, size: 0x8, addend: 0x0, symName: __ZNSt8__detail19_Node_iterator_baseISt4pairIKNSt7__cxx1112basic_stringIcSt11char_traitsIcESaIcEEExELb1EEC2Ev, symObjAddr: 0x5B2C, symBinAddr: 0x100008E9C, symSize: 0x1C }
  - { offsetInCU: 0x328A6, offset: 0x328A6, size: 0x8, addend: 0x0, symName: __ZN11__gnu_debug16_Error_formatter10_ParameterC1INSt8__detail14_Node_iteratorISt4pairIKNSt7__cxx1112basic_stringIcSt11char_traitsIcESaIcEEExELb0ELb1EEENSt7__debug13unordered_mapISB_xSt4hashISB_ESt8equal_toISB_ESaISD_EEESt20forward_iterator_tagEERKNS_14_Safe_iteratorIT_T0_T1_EEPKcNS0_12_Is_iteratorE, symObjAddr: 0x5B48, symBinAddr: 0x100008EB8, symSize: 0x17C }
  - { offsetInCU: 0x32861, offset: 0x32861, size: 0x8, addend: 0x0, symName: __ZNSt10_HashtableINSt7__cxx1112basic_stringIcSt11char_traitsIcESaIcEEESt4pairIKS5_xESaIS8_ENSt8__detail10_Select1stESt8equal_toIS5_ESt4hashIS5_ENSA_18_Mod_range_hashingENSA_20_Default_ranged_hashENSA_20_Prime_rehash_policyENSA_17_Hashtable_traitsILb1ELb0ELb1EEEE3endEv, symObjAddr: 0x5B08, symBinAddr: 0x100008E78, symSize: 0x24 }
  - { offsetInCU: 0x32869, offset: 0x32869, size: 0x8, addend: 0x0, symName: __ZNSt8__detail19_Node_iterator_baseISt4pairIKNSt7__cxx1112basic_stringIcSt11char_traitsIcESaIcEEExELb1EEC2Ev, symObjAddr: 0x5B2C, symBinAddr: 0x100008E9C, symSize: 0x1C }
  - { offsetInCU: 0x32893, offset: 0x32893, size: 0x8, addend: 0x0, symName: __ZN11__gnu_debug14_Safe_iteratorINSt8__detail14_Node_iteratorISt4pairIKNSt7__cxx1112basic_stringIcSt11char_traitsIcESaIcEEExELb0ELb1EEENSt7__debug13unordered_mapIS9_xSt4hashIS9_ESt8equal_toIS9_ESaISB_EEESt20forward_iterator_tagE11_S_constantEv, symObjAddr: 0x5B00, symBinAddr: 0x100008E70, symSize: 0x8 }
  - { offsetInCU: 0x3289B, offset: 0x3289B, size: 0x8, addend: 0x0, symName: __ZNSt10_HashtableINSt7__cxx1112basic_stringIcSt11char_traitsIcESaIcEEESt4pairIKS5_xESaIS8_ENSt8__detail10_Select1stESt8equal_toIS5_ESt4hashIS5_ENSA_18_Mod_range_hashingENSA_20_Default_ranged_hashENSA_20_Prime_rehash_policyENSA_17_Hashtable_traitsILb1ELb0ELb1EEEE3endEv, symObjAddr: 0x5B08, symBinAddr: 0x100008E78, symSize: 0x24 }
  - { offsetInCU: 0x328AF, offset: 0x328AF, size: 0x8, addend: 0x0, symName: __ZNSt10_HashtableINSt7__cxx1112basic_stringIcSt11char_traitsIcESaIcEEESt4pairIKS5_xESaIS8_ENSt8__detail10_Select1stESt8equal_toIS5_ESt4hashIS5_ENSA_18_Mod_range_hashingENSA_20_Default_ranged_hashENSA_20_Prime_rehash_policyENSA_17_Hashtable_traitsILb1ELb0ELb1EEEE4findERS7_, symObjAddr: 0x59F8, symBinAddr: 0x100008D68, symSize: 0x108 }
  - { offsetInCU: 0x328B7, offset: 0x328B7, size: 0x8, addend: 0x0, symName: __ZN11__gnu_debug14_Safe_iteratorINSt8__detail14_Node_iteratorISt4pairIKNSt7__cxx1112basic_stringIcSt11char_traitsIcESaIcEEExELb0ELb1EEENSt7__debug13unordered_mapIS9_xSt4hashIS9_ESt8equal_toIS9_ESaISB_EEESt20forward_iterator_tagE11_S_constantEv, symObjAddr: 0x5B00, symBinAddr: 0x100008E70, symSize: 0x8 }
  - { offsetInCU: 0x3294C, offset: 0x3294C, size: 0x8, addend: 0x0, symName: __ZNSt7__cxx1112basic_stringIcSt11char_traitsIcESaIcEE9_M_appendEPKcm, symObjAddr: 0x5930, symBinAddr: 0x100008CA0, symSize: 0xC8 }
  - { offsetInCU: 0x32954, offset: 0x32954, size: 0x8, addend: 0x0, symName: __ZNSt10_HashtableINSt7__cxx1112basic_stringIcSt11char_traitsIcESaIcEEESt4pairIKS5_xESaIS8_ENSt8__detail10_Select1stESt8equal_toIS5_ESt4hashIS5_ENSA_18_Mod_range_hashingENSA_20_Default_ranged_hashENSA_20_Prime_rehash_policyENSA_17_Hashtable_traitsILb1ELb0ELb1EEEE4findERS7_, symObjAddr: 0x59F8, symBinAddr: 0x100008D68, symSize: 0x108 }
  - { offsetInCU: 0x329BB, offset: 0x329BB, size: 0x8, addend: 0x0, symName: __ZNKSt7__cxx1112basic_stringIcSt11char_traitsIcESaIcEE15_M_check_lengthEmmPKc, symObjAddr: 0x58BC, symBinAddr: 0x100008C2C, symSize: 0x74 }
  - { offsetInCU: 0x329C3, offset: 0x329C3, size: 0x8, addend: 0x0, symName: __ZNSt7__cxx1112basic_stringIcSt11char_traitsIcESaIcEE9_M_appendEPKcm, symObjAddr: 0x5930, symBinAddr: 0x100008CA0, symSize: 0xC8 }
  - { offsetInCU: 0x32B64, offset: 0x32B64, size: 0x8, addend: 0x0, symName: __ZN11__gnu_debug16_Error_formatter10_ParameterC1ISt17_Rb_tree_iteratorISt4pairIKxxEENSt7__debug3mapIxxSt4lessIxESaIS6_EEESt20forward_iterator_tagEERKNS_14_Safe_iteratorIT_T0_T1_EEPKcNS0_12_Is_iteratorE, symObjAddr: 0x5740, symBinAddr: 0x100008AB0, symSize: 0x17C }
  - { offsetInCU: 0x32B6C, offset: 0x32B6C, size: 0x8, addend: 0x0, symName: __ZNKSt7__cxx1112basic_stringIcSt11char_traitsIcESaIcEE15_M_check_lengthEmmPKc, symObjAddr: 0x58BC, symBinAddr: 0x100008C2C, symSize: 0x74 }
  - { offsetInCU: 0x32B18, offset: 0x32B18, size: 0x8, addend: 0x0, symName: __ZNK11__gnu_debug14_Safe_iteratorISt17_Rb_tree_iteratorISt4pairIKxxEENSt7__debug3mapIxxSt4lessIxESaIS4_EEESt20forward_iterator_tagE18_M_is_before_beginEv, symObjAddr: 0x5720, symBinAddr: 0x100008A90, symSize: 0x20 }
  - { offsetInCU: 0x32B20, offset: 0x32B20, size: 0x8, addend: 0x0, symName: __ZN11__gnu_debug16_Error_formatter10_ParameterC1ISt17_Rb_tree_iteratorISt4pairIKxxEENSt7__debug3mapIxxSt4lessIxESaIS6_EEESt20forward_iterator_tagEERKNS_14_Safe_iteratorIT_T0_T1_EEPKcNS0_12_Is_iteratorE, symObjAddr: 0x5740, symBinAddr: 0x100008AB0, symSize: 0x17C }
  - { offsetInCU: 0x32B49, offset: 0x32B49, size: 0x8, addend: 0x0, symName: __ZNK11__gnu_debug14_Safe_iteratorISt17_Rb_tree_iteratorISt4pairIKxxEENSt7__debug3mapIxxSt4lessIxESaIS4_EEESt20forward_iterator_tagE9_M_is_endEv, symObjAddr: 0x56D0, symBinAddr: 0x100008A40, symSize: 0x50 }
  - { offsetInCU: 0x32B51, offset: 0x32B51, size: 0x8, addend: 0x0, symName: __ZNK11__gnu_debug14_Safe_iteratorISt17_Rb_tree_iteratorISt4pairIKxxEENSt7__debug3mapIxxSt4lessIxESaIS4_EEESt20forward_iterator_tagE18_M_is_before_beginEv, symObjAddr: 0x5720, symBinAddr: 0x100008A90, symSize: 0x20 }
  - { offsetInCU: 0x32B7A, offset: 0x32B7A, size: 0x8, addend: 0x0, symName: __ZNSt17_Rb_tree_iteratorISt4pairIKxxEEppEv, symObjAddr: 0x56A0, symBinAddr: 0x100008A10, symSize: 0x30 }
  - { offsetInCU: 0x32B82, offset: 0x32B82, size: 0x8, addend: 0x0, symName: __ZNK11__gnu_debug14_Safe_iteratorISt17_Rb_tree_iteratorISt4pairIKxxEENSt7__debug3mapIxxSt4lessIxESaIS4_EEESt20forward_iterator_tagE9_M_is_endEv, symObjAddr: 0x56D0, symBinAddr: 0x100008A40, symSize: 0x50 }
  - { offsetInCU: 0x32BAB, offset: 0x32BAB, size: 0x8, addend: 0x0, symName: __ZN11__gnu_debug14_Safe_iteratorISt17_Rb_tree_iteratorISt4pairIKxxEENSt7__debug3mapIxxSt4lessIxESaIS4_EEESt20forward_iterator_tagE4baseEv, symObjAddr: 0x568C, symBinAddr: 0x1000089FC, symSize: 0x14 }
  - { offsetInCU: 0x32BB3, offset: 0x32BB3, size: 0x8, addend: 0x0, symName: __ZNSt17_Rb_tree_iteratorISt4pairIKxxEEppEv, symObjAddr: 0x56A0, symBinAddr: 0x100008A10, symSize: 0x30 }
  - { offsetInCU: 0x32BDC, offset: 0x32BDC, size: 0x8, addend: 0x0, symName: __ZNK11__gnu_debug14_Safe_iteratorISt17_Rb_tree_iteratorISt4pairIKxxEENSt7__debug3mapIxxSt4lessIxESaIS4_EEESt20forward_iterator_tagE16_M_incrementableEv, symObjAddr: 0x5628, symBinAddr: 0x100008998, symSize: 0x64 }
  - { offsetInCU: 0x32BE4, offset: 0x32BE4, size: 0x8, addend: 0x0, symName: __ZN11__gnu_debug14_Safe_iteratorISt17_Rb_tree_iteratorISt4pairIKxxEENSt7__debug3mapIxxSt4lessIxESaIS4_EEESt20forward_iterator_tagE4baseEv, symObjAddr: 0x568C, symBinAddr: 0x1000089FC, symSize: 0x14 }
  - { offsetInCU: 0x32C0D, offset: 0x32C0D, size: 0x8, addend: 0x0, symName: __ZNSt8_Rb_treeIxSt4pairIKxxESt10_Select1stIS2_ESt4lessIxESaIS2_EE5beginEv, symObjAddr: 0x5600, symBinAddr: 0x100008970, symSize: 0x28 }
  - { offsetInCU: 0x32C15, offset: 0x32C15, size: 0x8, addend: 0x0, symName: __ZNK11__gnu_debug14_Safe_iteratorISt17_Rb_tree_iteratorISt4pairIKxxEENSt7__debug3mapIxxSt4lessIxESaIS4_EEESt20forward_iterator_tagE16_M_incrementableEv, symObjAddr: 0x5628, symBinAddr: 0x100008998, symSize: 0x64 }
  - { offsetInCU: 0x32CAC, offset: 0x32CAC, size: 0x8, addend: 0x0, symName: __ZNSt17_Rb_tree_iteratorISt4pairIKxxEEC1EPSt18_Rb_tree_node_base, symObjAddr: 0x55DC, symBinAddr: 0x10000894C, symSize: 0x24 }
  - { offsetInCU: 0x32CB4, offset: 0x32CB4, size: 0x8, addend: 0x0, symName: __ZNSt8_Rb_treeIxSt4pairIKxxESt10_Select1stIS2_ESt4lessIxESaIS2_EE5beginEv, symObjAddr: 0x5600, symBinAddr: 0x100008970, symSize: 0x28 }
  - { offsetInCU: 0x32CA8, offset: 0x32CA8, size: 0x8, addend: 0x0, symName: __ZNSt8_Rb_treeIxSt4pairIKxxESt10_Select1stIS2_ESt4lessIxESaIS2_EE10_Auto_node9_M_insertES0_IPSt18_Rb_tree_node_baseSB_E, symObjAddr: 0x5590, symBinAddr: 0x100008900, symSize: 0x4C }
  - { offsetInCU: 0x32CB0, offset: 0x32CB0, size: 0x8, addend: 0x0, symName: __ZNSt17_Rb_tree_iteratorISt4pairIKxxEEC1EPSt18_Rb_tree_node_base, symObjAddr: 0x55DC, symBinAddr: 0x10000894C, symSize: 0x24 }
  - { offsetInCU: 0x32D03, offset: 0x32D03, size: 0x8, addend: 0x0, symName: __ZNKSt8_Rb_treeIxSt4pairIKxxESt10_Select1stIS2_ESt4lessIxESaIS2_EE10_Auto_node6_M_keyEv, symObjAddr: 0x5570, symBinAddr: 0x1000088E0, symSize: 0x20 }
  - { offsetInCU: 0x32D0B, offset: 0x32D0B, size: 0x8, addend: 0x0, symName: __ZNSt8_Rb_treeIxSt4pairIKxxESt10_Select1stIS2_ESt4lessIxESaIS2_EE10_Auto_node9_M_insertES0_IPSt18_Rb_tree_node_baseSB_E, symObjAddr: 0x5590, symBinAddr: 0x100008900, symSize: 0x4C }
  - { offsetInCU: 0x32D34, offset: 0x32D34, size: 0x8, addend: 0x0, symName: __ZNSt8_Rb_treeIxSt4pairIKxxESt10_Select1stIS2_ESt4lessIxESaIS2_EE29_M_get_insert_hint_unique_posESt23_Rb_tree_const_iteratorIS2_ERS1_, symObjAddr: 0x5238, symBinAddr: 0x1000085A8, symSize: 0x338 }
  - { offsetInCU: 0x32D3C, offset: 0x32D3C, size: 0x8, addend: 0x0, symName: __ZNKSt8_Rb_treeIxSt4pairIKxxESt10_Select1stIS2_ESt4lessIxESaIS2_EE10_Auto_node6_M_keyEv, symObjAddr: 0x5570, symBinAddr: 0x1000088E0, symSize: 0x20 }
  - { offsetInCU: 0x32E76, offset: 0x32E76, size: 0x8, addend: 0x0, symName: __ZNSt8_Rb_treeIxSt4pairIKxxESt10_Select1stIS2_ESt4lessIxESaIS2_EE10_Auto_nodeD1Ev, symObjAddr: 0x51F4, symBinAddr: 0x100008564, symSize: 0x44 }
  - { offsetInCU: 0x32E7E, offset: 0x32E7E, size: 0x8, addend: 0x0, symName: __ZNSt8_Rb_treeIxSt4pairIKxxESt10_Select1stIS2_ESt4lessIxESaIS2_EE29_M_get_insert_hint_unique_posESt23_Rb_tree_const_iteratorIS2_ERS1_, symObjAddr: 0x5238, symBinAddr: 0x1000085A8, symSize: 0x338 }
  - { offsetInCU: 0x32F54, offset: 0x32F54, size: 0x8, addend: 0x0, symName: __ZNSt8_Rb_treeIxSt4pairIKxxESt10_Select1stIS2_ESt4lessIxESaIS2_EE10_Auto_nodeC1IJRKSt21piecewise_construct_tSt5tupleIJRS1_EESE_IJEEEEERS8_DpOT_, symObjAddr: 0x5178, symBinAddr: 0x1000084E8, symSize: 0x7C }
  - { offsetInCU: 0x32F5C, offset: 0x32F5C, size: 0x8, addend: 0x0, symName: __ZNSt8_Rb_treeIxSt4pairIKxxESt10_Select1stIS2_ESt4lessIxESaIS2_EE10_Auto_nodeD1Ev, symObjAddr: 0x51F4, symBinAddr: 0x100008564, symSize: 0x44 }
  - { offsetInCU: 0x32FAA, offset: 0x32FAA, size: 0x8, addend: 0x0, symName: __ZSt7forwardISt5tupleIJEEEOT_RNSt16remove_referenceIS2_E4typeE, symObjAddr: 0x5164, symBinAddr: 0x1000084D4, symSize: 0x14 }
  - { offsetInCU: 0x32FB2, offset: 0x32FB2, size: 0x8, addend: 0x0, symName: __ZNSt8_Rb_treeIxSt4pairIKxxESt10_Select1stIS2_ESt4lessIxESaIS2_EE10_Auto_nodeC1IJRKSt21piecewise_construct_tSt5tupleIJRS1_EESE_IJEEEEERS8_DpOT_, symObjAddr: 0x5178, symBinAddr: 0x1000084E8, symSize: 0x7C }
  - { offsetInCU: 0x33017, offset: 0x33017, size: 0x8, addend: 0x0, symName: __ZSt7forwardISt5tupleIJRKxEEEOT_RNSt16remove_referenceIS4_E4typeE, symObjAddr: 0x5150, symBinAddr: 0x1000084C0, symSize: 0x14 }
  - { offsetInCU: 0x3301F, offset: 0x3301F, size: 0x8, addend: 0x0, symName: __ZSt7forwardISt5tupleIJEEEOT_RNSt16remove_referenceIS2_E4typeE, symObjAddr: 0x5164, symBinAddr: 0x1000084D4, symSize: 0x14 }
  - { offsetInCU: 0x33079, offset: 0x33079, size: 0x8, addend: 0x0, symName: __ZSt7forwardIRKSt21piecewise_construct_tEOT_RNSt16remove_referenceIS3_E4typeE, symObjAddr: 0x513C, symBinAddr: 0x1000084AC, symSize: 0x14 }
  - { offsetInCU: 0x33081, offset: 0x33081, size: 0x8, addend: 0x0, symName: __ZSt7forwardISt5tupleIJRKxEEEOT_RNSt16remove_referenceIS4_E4typeE, symObjAddr: 0x5150, symBinAddr: 0x1000084C0, symSize: 0x14 }
  - { offsetInCU: 0x330A3, offset: 0x330A3, size: 0x8, addend: 0x0, symName: __ZNSt11_Tuple_implILm0EJRKxEEC2ES1_, symObjAddr: 0x5114, symBinAddr: 0x100008484, symSize: 0x28 }
  - { offsetInCU: 0x330AB, offset: 0x330AB, size: 0x8, addend: 0x0, symName: __ZSt7forwardIRKSt21piecewise_construct_tEOT_RNSt16remove_referenceIS3_E4typeE, symObjAddr: 0x513C, symBinAddr: 0x1000084AC, symSize: 0x14 }
  - { offsetInCU: 0x330BC, offset: 0x330BC, size: 0x8, addend: 0x0, symName: __ZNSt13_Rb_tree_nodeISt4pairIKxxEE9_M_valptrEv, symObjAddr: 0x50F4, symBinAddr: 0x100008464, symSize: 0x20 }
  - { offsetInCU: 0x330C4, offset: 0x330C4, size: 0x8, addend: 0x0, symName: __ZNSt11_Tuple_implILm0EJRKxEEC2ES1_, symObjAddr: 0x5114, symBinAddr: 0x100008484, symSize: 0x28 }
  - { offsetInCU: 0x330ED, offset: 0x330ED, size: 0x8, addend: 0x0, symName: __ZNKSt8_Rb_treeIxSt4pairIKxxESt10_Select1stIS2_ESt4lessIxESaIS2_EE8key_compEv, symObjAddr: 0x50DC, symBinAddr: 0x10000844C, symSize: 0x18 }
  - { offsetInCU: 0x330F5, offset: 0x330F5, size: 0x8, addend: 0x0, symName: __ZNSt13_Rb_tree_nodeISt4pairIKxxEE9_M_valptrEv, symObjAddr: 0x50F4, symBinAddr: 0x100008464, symSize: 0x20 }
  - { offsetInCU: 0x3311E, offset: 0x3311E, size: 0x8, addend: 0x0, symName: __ZNSt8_Rb_treeIxSt4pairIKxxESt10_Select1stIS2_ESt4lessIxESaIS2_EE11lower_boundERS1_, symObjAddr: 0x5094, symBinAddr: 0x100008404, symSize: 0x48 }
  - { offsetInCU: 0x33126, offset: 0x33126, size: 0x8, addend: 0x0, symName: __ZNKSt8_Rb_treeIxSt4pairIKxxESt10_Select1stIS2_ESt4lessIxESaIS2_EE8key_compEv, symObjAddr: 0x50DC, symBinAddr: 0x10000844C, symSize: 0x18 }
  - { offsetInCU: 0x33222, offset: 0x33222, size: 0x8, addend: 0x0, symName: __ZN11__gnu_debug14_Safe_iteratorISt17_Rb_tree_iteratorISt4pairIKxxEENSt7__debug3mapIxxSt4lessIxESaIS4_EEESt26bidirectional_iterator_tagEC1ERKSD_, symObjAddr: 0x506C, symBinAddr: 0x1000083DC, symSize: 0x28 }
  - { offsetInCU: 0x3322A, offset: 0x3322A, size: 0x8, addend: 0x0, symName: __ZNSt8_Rb_treeIxSt4pairIKxxESt10_Select1stIS2_ESt4lessIxESaIS2_EE11lower_boundERS1_, symObjAddr: 0x5094, symBinAddr: 0x100008404, symSize: 0x48 }
  - { offsetInCU: 0x33268, offset: 0x33268, size: 0x8, addend: 0x0, symName: __ZNSt4pairISt17_Rb_tree_iteratorIS_IKxxEEbEC1IRS3_bLb1EEEOT_OT0_, symObjAddr: 0x5020, symBinAddr: 0x100008390, symSize: 0x4C }
  - { offsetInCU: 0x33270, offset: 0x33270, size: 0x8, addend: 0x0, symName: __ZN11__gnu_debug14_Safe_iteratorISt17_Rb_tree_iteratorISt4pairIKxxEENSt7__debug3mapIxxSt4lessIxESaIS4_EEESt26bidirectional_iterator_tagEC1ERKSD_, symObjAddr: 0x506C, symBinAddr: 0x1000083DC, symSize: 0x28 }
  - { offsetInCU: 0x3328B, offset: 0x3328B, size: 0x8, addend: 0x0, symName: __ZNSt9__cxx19983mapIxxSt4lessIxESaISt4pairIKxxEEE12emplace_hintIJS3_IxiEEEESt17_Rb_tree_iteratorIS5_ESt23_Rb_tree_const_iteratorIS5_EDpOT_, symObjAddr: 0x4FE0, symBinAddr: 0x100008350, symSize: 0x40 }
  - { offsetInCU: 0x33293, offset: 0x33293, size: 0x8, addend: 0x0, symName: __ZNSt4pairISt17_Rb_tree_iteratorIS_IKxxEEbEC1IRS3_bLb1EEEOT_OT0_, symObjAddr: 0x5020, symBinAddr: 0x100008390, symSize: 0x4C }
  - { offsetInCU: 0x33433, offset: 0x33433, size: 0x8, addend: 0x0, symName: __ZN11__gnu_debug16_Error_formatter10_ParameterC1ISt17_Rb_tree_iteratorISt4pairIKxxEENSt7__debug3mapIxxSt4lessIxESaIS6_EEESt26bidirectional_iterator_tagEERKNS_14_Safe_iteratorIT_T0_T1_EEPKcNS0_12_Is_iteratorE, symObjAddr: 0x4E64, symBinAddr: 0x1000081D4, symSize: 0x17C }
  - { offsetInCU: 0x3343B, offset: 0x3343B, size: 0x8, addend: 0x0, symName: __ZNSt9__cxx19983mapIxxSt4lessIxESaISt4pairIKxxEEE12emplace_hintIJS3_IxiEEEESt17_Rb_tree_iteratorIS5_ESt23_Rb_tree_const_iteratorIS5_EDpOT_, symObjAddr: 0x4FE0, symBinAddr: 0x100008350, symSize: 0x40 }
  - { offsetInCU: 0x333E2, offset: 0x333E2, size: 0x8, addend: 0x0, symName: __ZN11__gnu_debug14_Safe_iteratorISt17_Rb_tree_iteratorISt4pairIKxxEENSt7__debug3mapIxxSt4lessIxESaIS4_EEESt20forward_iterator_tagE11_S_constantEv, symObjAddr: 0x4E5C, symBinAddr: 0x1000081CC, symSize: 0x8 }
  - { offsetInCU: 0x333EA, offset: 0x333EA, size: 0x8, addend: 0x0, symName: __ZN11__gnu_debug16_Error_formatter10_ParameterC1ISt17_Rb_tree_iteratorISt4pairIKxxEENSt7__debug3mapIxxSt4lessIxESaIS6_EEESt26bidirectional_iterator_tagEERKNS_14_Safe_iteratorIT_T0_T1_EEPKcNS0_12_Is_iteratorE, symObjAddr: 0x4E64, symBinAddr: 0x1000081D4, symSize: 0x17C }
  - { offsetInCU: 0x33444, offset: 0x33444, size: 0x8, addend: 0x0, symName: __ZNSt17_Rb_tree_iteratorISt4pairIKxxEEC1Ev, symObjAddr: 0x4E40, symBinAddr: 0x1000081B0, symSize: 0x1C }
  - { offsetInCU: 0x3344C, offset: 0x3344C, size: 0x8, addend: 0x0, symName: __ZN11__gnu_debug14_Safe_iteratorISt17_Rb_tree_iteratorISt4pairIKxxEENSt7__debug3mapIxxSt4lessIxESaIS4_EEESt20forward_iterator_tagE11_S_constantEv, symObjAddr: 0x4E5C, symBinAddr: 0x1000081CC, symSize: 0x8 }
  - { offsetInCU: 0x33449, offset: 0x33449, size: 0x8, addend: 0x0, symName: __ZNSt8_Rb_treeIxSt4pairIKxxESt10_Select1stIS2_ESt4lessIxESaIS2_EE3endEv, symObjAddr: 0x4E18, symBinAddr: 0x100008188, symSize: 0x28 }
  - { offsetInCU: 0x33451, offset: 0x33451, size: 0x8, addend: 0x0, symName: __ZNSt17_Rb_tree_iteratorISt4pairIKxxEEC1Ev, symObjAddr: 0x4E40, symBinAddr: 0x1000081B0, symSize: 0x1C }
  - { offsetInCU: 0x3355B, offset: 0x3355B, size: 0x8, addend: 0x0, symName: __ZN11__gnu_debug14_Safe_iteratorISt17_Rb_tree_iteratorISt4pairIKxxEENSt7__debug3mapIxxSt4lessIxESaIS4_EEESt20forward_iterator_tagEC2ES5_PKNS_19_Safe_sequence_baseE, symObjAddr: 0x4DC4, symBinAddr: 0x100008134, symSize: 0x54 }
  - { offsetInCU: 0x33563, offset: 0x33563, size: 0x8, addend: 0x0, symName: __ZNSt8_Rb_treeIxSt4pairIKxxESt10_Select1stIS2_ESt4lessIxESaIS2_EE3endEv, symObjAddr: 0x4E18, symBinAddr: 0x100008188, symSize: 0x28 }
  - { offsetInCU: 0x33501, offset: 0x33501, size: 0x8, addend: 0x0, symName: __ZNSt8_Rb_treeIxSt4pairIKxxESt10_Select1stIS2_ESt4lessIxESaIS2_EE4findERS1_, symObjAddr: 0x4D14, symBinAddr: 0x100008084, symSize: 0xB0 }
  - { offsetInCU: 0x33509, offset: 0x33509, size: 0x8, addend: 0x0, symName: __ZN11__gnu_debug14_Safe_iteratorISt17_Rb_tree_iteratorISt4pairIKxxEENSt7__debug3mapIxxSt4lessIxESaIS4_EEESt20forward_iterator_tagEC2ES5_PKNS_19_Safe_sequence_baseE, symObjAddr: 0x4DC4, symBinAddr: 0x100008134, symSize: 0x54 }
  - { offsetInCU: 0x3355C, offset: 0x3355C, size: 0x8, addend: 0x0, symName: __ZNKSt8_Rb_treeIxSt4pairIKxxESt10_Select1stIS2_ESt4lessIxESaIS2_EE9_M_mbeginEv, symObjAddr: 0x4CFC, symBinAddr: 0x10000806C, symSize: 0x18 }
  - { offsetInCU: 0x33564, offset: 0x33564, size: 0x8, addend: 0x0, symName: __ZNSt8_Rb_treeIxSt4pairIKxxESt10_Select1stIS2_ESt4lessIxESaIS2_EE4findERS1_, symObjAddr: 0x4D14, symBinAddr: 0x100008084, symSize: 0xB0 }
  - { offsetInCU: 0x3358D, offset: 0x3358D, size: 0x8, addend: 0x0, symName: __ZNSt8_Rb_treeIxSt4pairIKxxESt10_Select1stIS2_ESt4lessIxESaIS2_EE12_M_drop_nodeEPSt13_Rb_tree_nodeIS2_E, symObjAddr: 0x4CC8, symBinAddr: 0x100008038, symSize: 0x34 }
  - { offsetInCU: 0x33595, offset: 0x33595, size: 0x8, addend: 0x0, symName: __ZNKSt8_Rb_treeIxSt4pairIKxxESt10_Select1stIS2_ESt4lessIxESaIS2_EE9_M_mbeginEv, symObjAddr: 0x4CFC, symBinAddr: 0x10000806C, symSize: 0x18 }
  - { offsetInCU: 0x335D3, offset: 0x335D3, size: 0x8, addend: 0x0, symName: __ZNSt8_Rb_treeIxSt4pairIKxxESt10_Select1stIS2_ESt4lessIxESaIS2_EE7_S_leftEPSt18_Rb_tree_node_base, symObjAddr: 0x4CB0, symBinAddr: 0x100008020, symSize: 0x18 }
  - { offsetInCU: 0x335DB, offset: 0x335DB, size: 0x8, addend: 0x0, symName: __ZNSt8_Rb_treeIxSt4pairIKxxESt10_Select1stIS2_ESt4lessIxESaIS2_EE12_M_drop_nodeEPSt13_Rb_tree_nodeIS2_E, symObjAddr: 0x4CC8, symBinAddr: 0x100008038, symSize: 0x34 }
  - { offsetInCU: 0x33607, offset: 0x33607, size: 0x8, addend: 0x0, symName: __ZNSt8_Rb_treeIxSt4pairIKxxESt10_Select1stIS2_ESt4lessIxESaIS2_EE8_S_rightEPSt18_Rb_tree_node_base, symObjAddr: 0x4C98, symBinAddr: 0x100008008, symSize: 0x18 }
  - { offsetInCU: 0x3360F, offset: 0x3360F, size: 0x8, addend: 0x0, symName: __ZNSt8_Rb_treeIxSt4pairIKxxESt10_Select1stIS2_ESt4lessIxESaIS2_EE7_S_leftEPSt18_Rb_tree_node_base, symObjAddr: 0x4CB0, symBinAddr: 0x100008020, symSize: 0x18 }
  - { offsetInCU: 0x33656, offset: 0x33656, size: 0x8, addend: 0x0, symName: __ZNSt10_HashtableINSt7__cxx1112basic_stringIcSt11char_traitsIcESaIcEEESt4pairIKS5_xESaIS8_ENSt8__detail10_Select1stESt8equal_toIS5_ESt4hashIS5_ENSA_18_Mod_range_hashingENSA_20_Default_ranged_hashENSA_20_Prime_rehash_policyENSA_17_Hashtable_traitsILb1ELb0ELb1EEEE21_M_deallocate_bucketsEPPNSA_15_Hash_node_baseEm, symObjAddr: 0x4C48, symBinAddr: 0x100007FB8, symSize: 0x50 }
  - { offsetInCU: 0x3365E, offset: 0x3365E, size: 0x8, addend: 0x0, symName: __ZNSt8_Rb_treeIxSt4pairIKxxESt10_Select1stIS2_ESt4lessIxESaIS2_EE8_S_rightEPSt18_Rb_tree_node_base, symObjAddr: 0x4C98, symBinAddr: 0x100008008, symSize: 0x18 }
  - { offsetInCU: 0x336B1, offset: 0x336B1, size: 0x8, addend: 0x0, symName: __ZNSt8__detail16_Hashtable_allocISaINS_10_Hash_nodeISt4pairIKNSt7__cxx1112basic_stringIcSt11char_traitsIcESaIcEEExELb1EEEEE19_M_deallocate_nodesEPSB_, symObjAddr: 0x4BF8, symBinAddr: 0x100007F68, symSize: 0x50 }
  - { offsetInCU: 0x336B9, offset: 0x336B9, size: 0x8, addend: 0x0, symName: __ZNSt10_HashtableINSt7__cxx1112basic_stringIcSt11char_traitsIcESaIcEEESt4pairIKS5_xESaIS8_ENSt8__detail10_Select1stESt8equal_toIS5_ESt4hashIS5_ENSA_18_Mod_range_hashingENSA_20_Default_ranged_hashENSA_20_Prime_rehash_policyENSA_17_Hashtable_traitsILb1ELb0ELb1EEEE21_M_deallocate_bucketsEPPNSA_15_Hash_node_baseEm, symObjAddr: 0x4C48, symBinAddr: 0x100007FB8, symSize: 0x50 }
  - { offsetInCU: 0x3371F, offset: 0x3371F, size: 0x8, addend: 0x0, symName: __ZNKSt10_HashtableINSt7__cxx1112basic_stringIcSt11char_traitsIcESaIcEEESt4pairIKS5_xESaIS8_ENSt8__detail10_Select1stESt8equal_toIS5_ESt4hashIS5_ENSA_18_Mod_range_hashingENSA_20_Default_ranged_hashENSA_20_Prime_rehash_policyENSA_17_Hashtable_traitsILb1ELb0ELb1EEEE8_M_beginEv, symObjAddr: 0x4BE0, symBinAddr: 0x100007F50, symSize: 0x18 }
  - { offsetInCU: 0x33727, offset: 0x33727, size: 0x8, addend: 0x0, symName: __ZNSt8__detail16_Hashtable_allocISaINS_10_Hash_nodeISt4pairIKNSt7__cxx1112basic_stringIcSt11char_traitsIcESaIcEEExELb1EEEEE19_M_deallocate_nodesEPSB_, symObjAddr: 0x4BF8, symBinAddr: 0x100007F68, symSize: 0x50 }
  - { offsetInCU: 0x3376B, offset: 0x3376B, size: 0x8, addend: 0x0, symName: __ZNKSt7__cxx1112basic_stringIcSt11char_traitsIcESaIcEE8_M_limitEmm, symObjAddr: 0x4B74, symBinAddr: 0x100007EE4, symSize: 0x6C }
  - { offsetInCU: 0x33773, offset: 0x33773, size: 0x8, addend: 0x0, symName: __ZNKSt10_HashtableINSt7__cxx1112basic_stringIcSt11char_traitsIcESaIcEEESt4pairIKS5_xESaIS8_ENSt8__detail10_Select1stESt8equal_toIS5_ESt4hashIS5_ENSA_18_Mod_range_hashingENSA_20_Default_ranged_hashENSA_20_Prime_rehash_policyENSA_17_Hashtable_traitsILb1ELb0ELb1EEEE8_M_beginEv, symObjAddr: 0x4BE0, symBinAddr: 0x100007F50, symSize: 0x18 }
  - { offsetInCU: 0x337DB, offset: 0x337DB, size: 0x8, addend: 0x0, symName: __ZNSt7__cxx1112basic_stringIcSt11char_traitsIcESaIcEE11_S_allocateERS3_m, symObjAddr: 0x4B30, symBinAddr: 0x100007EA0, symSize: 0x44 }
  - { offsetInCU: 0x337E3, offset: 0x337E3, size: 0x8, addend: 0x0, symName: __ZNKSt7__cxx1112basic_stringIcSt11char_traitsIcESaIcEE8_M_limitEmm, symObjAddr: 0x4B74, symBinAddr: 0x100007EE4, symSize: 0x6C }
  - { offsetInCU: 0x338AC, offset: 0x338AC, size: 0x8, addend: 0x0, symName: __ZNSt7__cxx1112basic_stringIcSt11char_traitsIcESaIcEE13_S_copy_charsEPcS5_S5_, symObjAddr: 0x4AF4, symBinAddr: 0x100007E64, symSize: 0x3C }
  - { offsetInCU: 0x338B4, offset: 0x338B4, size: 0x8, addend: 0x0, symName: __ZNSt7__cxx1112basic_stringIcSt11char_traitsIcESaIcEE11_S_allocateERS3_m, symObjAddr: 0x4B30, symBinAddr: 0x100007EA0, symSize: 0x44 }
  - { offsetInCU: 0x3396F, offset: 0x3396F, size: 0x8, addend: 0x0, symName: __ZNSt7__cxx1112basic_stringIcSt11char_traitsIcESaIcEE7replaceEmmPKcm, symObjAddr: 0x4A88, symBinAddr: 0x100007DF8, symSize: 0x6C }
  - { offsetInCU: 0x33977, offset: 0x33977, size: 0x8, addend: 0x0, symName: __ZNSt7__cxx1112basic_stringIcSt11char_traitsIcESaIcEE13_S_copy_charsEPcS5_S5_, symObjAddr: 0x4AF4, symBinAddr: 0x100007E64, symSize: 0x3C }
  - { offsetInCU: 0x339F4, offset: 0x339F4, size: 0x8, addend: 0x0, symName: __ZNSt7__cxx1112basic_stringIcSt11char_traitsIcESaIcEE6appendEPKcm, symObjAddr: 0x4A44, symBinAddr: 0x100007DB4, symSize: 0x44 }
  - { offsetInCU: 0x339FC, offset: 0x339FC, size: 0x8, addend: 0x0, symName: __ZNSt7__cxx1112basic_stringIcSt11char_traitsIcESaIcEE7replaceEmmPKcm, symObjAddr: 0x4A88, symBinAddr: 0x100007DF8, symSize: 0x6C }
  - { offsetInCU: 0x33A4F, offset: 0x33A4F, size: 0x8, addend: 0x0, symName: __ZNSt7__cxx1112basic_stringIcSt11char_traitsIcESaIcEE13_S_copy_charsEPcPKcS7_, symObjAddr: 0x4A08, symBinAddr: 0x100007D78, symSize: 0x3C }
  - { offsetInCU: 0x33A57, offset: 0x33A57, size: 0x8, addend: 0x0, symName: __ZNSt7__cxx1112basic_stringIcSt11char_traitsIcESaIcEE6appendEPKcm, symObjAddr: 0x4A44, symBinAddr: 0x100007DB4, symSize: 0x44 }
  - { offsetInCU: 0x33B22, offset: 0x33B22, size: 0x8, addend: 0x0, symName: __ZNKSt7__cxx1112basic_stringIcSt11char_traitsIcESaIcEE13_M_local_dataEv, symObjAddr: 0x49E8, symBinAddr: 0x100007D58, symSize: 0x20 }
  - { offsetInCU: 0x33B2A, offset: 0x33B2A, size: 0x8, addend: 0x0, symName: __ZNSt7__cxx1112basic_stringIcSt11char_traitsIcESaIcEE13_S_copy_charsEPcPKcS7_, symObjAddr: 0x4A08, symBinAddr: 0x100007D78, symSize: 0x3C }
  - { offsetInCU: 0x33B53, offset: 0x33B53, size: 0x8, addend: 0x0, symName: __ZNSt7__cxx1112basic_stringIcSt11char_traitsIcESaIcEE9_S_assignEPcmc, symObjAddr: 0x4994, symBinAddr: 0x100007D04, symSize: 0x54 }
  - { offsetInCU: 0x33B5B, offset: 0x33B5B, size: 0x8, addend: 0x0, symName: __ZNKSt7__cxx1112basic_stringIcSt11char_traitsIcESaIcEE13_M_local_dataEv, symObjAddr: 0x49E8, symBinAddr: 0x100007D58, symSize: 0x20 }
  - { offsetInCU: 0x33BB5, offset: 0x33BB5, size: 0x8, addend: 0x0, symName: __ZNSt7__cxx1112basic_stringIcSt11char_traitsIcESaIcEE9_M_createERmm, symObjAddr: 0x48A0, symBinAddr: 0x100007C10, symSize: 0xF4 }
  - { offsetInCU: 0x33BBD, offset: 0x33BBD, size: 0x8, addend: 0x0, symName: __ZNSt7__cxx1112basic_stringIcSt11char_traitsIcESaIcEE9_S_assignEPcmc, symObjAddr: 0x4994, symBinAddr: 0x100007D04, symSize: 0x54 }
  - { offsetInCU: 0x33C39, offset: 0x33C39, size: 0x8, addend: 0x0, symName: __ZNSt19__ptr_traits_ptr_toIPccLb0EE10pointer_toERc, symObjAddr: 0x4884, symBinAddr: 0x100007BF4, symSize: 0x1C }
  - { offsetInCU: 0x33C41, offset: 0x33C41, size: 0x8, addend: 0x0, symName: __ZNSt7__cxx1112basic_stringIcSt11char_traitsIcESaIcEE9_M_createERmm, symObjAddr: 0x48A0, symBinAddr: 0x100007C10, symSize: 0xF4 }
  - { offsetInCU: 0x33CEA, offset: 0x33CEA, size: 0x8, addend: 0x0, symName: __ZNSt8__detaileqERKNS_19_Node_iterator_baseISt4pairIKNSt7__cxx1112basic_stringIcSt11char_traitsIcESaIcEEExELb1EEESC_, symObjAddr: 0x4854, symBinAddr: 0x100007BC4, symSize: 0x30 }
  - { offsetInCU: 0x33CF2, offset: 0x33CF2, size: 0x8, addend: 0x0, symName: __ZNSt19__ptr_traits_ptr_toIPccLb0EE10pointer_toERc, symObjAddr: 0x4884, symBinAddr: 0x100007BF4, symSize: 0x1C }
  - { offsetInCU: 0x33CCC, offset: 0x33CCC, size: 0x8, addend: 0x0, symName: __ZNSt8__detail9_Map_baseINSt7__cxx1112basic_stringIcSt11char_traitsIcESaIcEEESt4pairIKS6_xESaIS9_ENS_10_Select1stESt8equal_toIS6_ESt4hashIS6_ENS_18_Mod_range_hashingENS_20_Default_ranged_hashENS_20_Prime_rehash_policyENS_17_Hashtable_traitsILb1ELb0ELb1EEELb1EEixERS8_, symObjAddr: 0x474C, symBinAddr: 0x100007ABC, symSize: 0x108 }
  - { offsetInCU: 0x33CD4, offset: 0x33CD4, size: 0x8, addend: 0x0, symName: __ZNSt8__detaileqERKNS_19_Node_iterator_baseISt4pairIKNSt7__cxx1112basic_stringIcSt11char_traitsIcESaIcEEExELb1EEESC_, symObjAddr: 0x4854, symBinAddr: 0x100007BC4, symSize: 0x30 }
  - { offsetInCU: 0x33E2E, offset: 0x33E2E, size: 0x8, addend: 0x0, symName: __ZNSt8__detailneERKNS_19_Node_iterator_baseISt4pairIKNSt7__cxx1112basic_stringIcSt11char_traitsIcESaIcEEExELb1EEESC_, symObjAddr: 0x471C, symBinAddr: 0x100007A8C, symSize: 0x30 }
  - { offsetInCU: 0x33E36, offset: 0x33E36, size: 0x8, addend: 0x0, symName: __ZNSt8__detail9_Map_baseINSt7__cxx1112basic_stringIcSt11char_traitsIcESaIcEEESt4pairIKS6_xESaIS9_ENS_10_Select1stESt8equal_toIS6_ESt4hashIS6_ENS_18_Mod_range_hashingENS_20_Default_ranged_hashENS_20_Prime_rehash_policyENS_17_Hashtable_traitsILb1ELb0ELb1EEELb1EEixERS8_, symObjAddr: 0x474C, symBinAddr: 0x100007ABC, symSize: 0x108 }
  - { offsetInCU: 0x33E06, offset: 0x33E06, size: 0x8, addend: 0x0, symName: __ZNK11__gnu_debug14_Safe_iteratorINSt8__detail14_Node_iteratorISt4pairIKNSt7__cxx1112basic_stringIcSt11char_traitsIcESaIcEEExELb0ELb1EEENSt7__debug13unordered_mapIS9_xSt4hashIS9_ESt8equal_toIS9_ESaISB_EEESt20forward_iterator_tagE4baseEv, symObjAddr: 0x4708, symBinAddr: 0x100007A78, symSize: 0x14 }
  - { offsetInCU: 0x33E0E, offset: 0x33E0E, size: 0x8, addend: 0x0, symName: __ZNSt8__detailneERKNS_19_Node_iterator_baseISt4pairIKNSt7__cxx1112basic_stringIcSt11char_traitsIcESaIcEEExELb1EEESC_, symObjAddr: 0x471C, symBinAddr: 0x100007A8C, symSize: 0x30 }
  - { offsetInCU: 0x33E37, offset: 0x33E37, size: 0x8, addend: 0x0, symName: __ZN11__gnu_debug16_Error_formatter11_M_iteratorINS_14_Safe_iteratorINSt8__detail14_Node_iteratorISt4pairIKNSt7__cxx1112basic_stringIcSt11char_traitsIcESaIcEEExELb0ELb1EEENSt7__debug13unordered_mapISB_xSt4hashISB_ESt8equal_toISB_ESaISD_EEESt20forward_iterator_tagEEEERS0_RKT_PKc, symObjAddr: 0x4674, symBinAddr: 0x1000079E4, symSize: 0x94 }
  - { offsetInCU: 0x33E3F, offset: 0x33E3F, size: 0x8, addend: 0x0, symName: __ZNK11__gnu_debug14_Safe_iteratorINSt8__detail14_Node_iteratorISt4pairIKNSt7__cxx1112basic_stringIcSt11char_traitsIcESaIcEEExELb0ELb1EEENSt7__debug13unordered_mapIS9_xSt4hashIS9_ESt8equal_toIS9_ESaISB_EEESt20forward_iterator_tagE4baseEv, symObjAddr: 0x4708, symBinAddr: 0x100007A78, symSize: 0x14 }
  - { offsetInCU: 0x33EA2, offset: 0x33EA2, size: 0x8, addend: 0x0, symName: __ZNK11__gnu_debug14_Safe_iteratorINSt8__detail14_Node_iteratorISt4pairIKNSt7__cxx1112basic_stringIcSt11char_traitsIcESaIcEEExELb0ELb1EEENSt7__debug13unordered_mapIS9_xSt4hashIS9_ESt8equal_toIS9_ESaISB_EEESt20forward_iterator_tagE20_M_value_initializedEv, symObjAddr: 0x4604, symBinAddr: 0x100007974, symSize: 0x70 }
  - { offsetInCU: 0x33EAA, offset: 0x33EAA, size: 0x8, addend: 0x0, symName: __ZN11__gnu_debug16_Error_formatter11_M_iteratorINS_14_Safe_iteratorINSt8__detail14_Node_iteratorISt4pairIKNSt7__cxx1112basic_stringIcSt11char_traitsIcESaIcEEExELb0ELb1EEENSt7__debug13unordered_mapISB_xSt4hashISB_ESt8equal_toISB_ESaISD_EEESt20forward_iterator_tagEEEERS0_RKT_PKc, symObjAddr: 0x4674, symBinAddr: 0x1000079E4, symSize: 0x94 }
  - { offsetInCU: 0x33F5A, offset: 0x33F5A, size: 0x8, addend: 0x0, symName: __ZNSt8__detail14_Node_iteratorISt4pairIKNSt7__cxx1112basic_stringIcSt11char_traitsIcESaIcEEExELb0ELb1EEC1Ev, symObjAddr: 0x45E4, symBinAddr: 0x100007954, symSize: 0x20 }
  - { offsetInCU: 0x33F62, offset: 0x33F62, size: 0x8, addend: 0x0, symName: __ZNK11__gnu_debug14_Safe_iteratorINSt8__detail14_Node_iteratorISt4pairIKNSt7__cxx1112basic_stringIcSt11char_traitsIcESaIcEEExELb0ELb1EEENSt7__debug13unordered_mapIS9_xSt4hashIS9_ESt8equal_toIS9_ESaISB_EEESt20forward_iterator_tagE20_M_value_initializedEv, symObjAddr: 0x4604, symBinAddr: 0x100007974, symSize: 0x70 }
  - { offsetInCU: 0x33F1E, offset: 0x33F1E, size: 0x8, addend: 0x0, symName: __ZNSt9__cxx199813unordered_mapINSt7__cxx1112basic_stringIcSt11char_traitsIcESaIcEEExSt4hashIS6_ESt8equal_toIS6_ESaISt4pairIKS6_xEEE3endEv, symObjAddr: 0x45C8, symBinAddr: 0x100007938, symSize: 0x1C }
  - { offsetInCU: 0x33F26, offset: 0x33F26, size: 0x8, addend: 0x0, symName: __ZNSt8__detail14_Node_iteratorISt4pairIKNSt7__cxx1112basic_stringIcSt11char_traitsIcESaIcEEExELb0ELb1EEC1Ev, symObjAddr: 0x45E4, symBinAddr: 0x100007954, symSize: 0x20 }
  - { offsetInCU: 0x34092, offset: 0x34092, size: 0x8, addend: 0x0, symName: __ZN11__gnu_debug14_Safe_iteratorINSt8__detail14_Node_iteratorISt4pairIKNSt7__cxx1112basic_stringIcSt11char_traitsIcESaIcEEExELb0ELb1EEENSt7__debug13unordered_mapIS9_xSt4hashIS9_ESt8equal_toIS9_ESaISB_EEESt20forward_iterator_tagEC1ESC_PKNS_19_Safe_sequence_baseE, symObjAddr: 0x4574, symBinAddr: 0x1000078E4, symSize: 0x54 }
  - { offsetInCU: 0x3409A, offset: 0x3409A, size: 0x8, addend: 0x0, symName: __ZNSt9__cxx199813unordered_mapINSt7__cxx1112basic_stringIcSt11char_traitsIcESaIcEEExSt4hashIS6_ESt8equal_toIS6_ESaISt4pairIKS6_xEEE3endEv, symObjAddr: 0x45C8, symBinAddr: 0x100007938, symSize: 0x1C }
  - { offsetInCU: 0x33FD6, offset: 0x33FD6, size: 0x8, addend: 0x0, symName: __ZNSt9__cxx199813unordered_mapINSt7__cxx1112basic_stringIcSt11char_traitsIcESaIcEEExSt4hashIS6_ESt8equal_toIS6_ESaISt4pairIKS6_xEEE4findERSC_, symObjAddr: 0x4550, symBinAddr: 0x1000078C0, symSize: 0x24 }
  - { offsetInCU: 0x33FDE, offset: 0x33FDE, size: 0x8, addend: 0x0, symName: __ZN11__gnu_debug14_Safe_iteratorINSt8__detail14_Node_iteratorISt4pairIKNSt7__cxx1112basic_stringIcSt11char_traitsIcESaIcEEExELb0ELb1EEENSt7__debug13unordered_mapIS9_xSt4hashIS9_ESt8equal_toIS9_ESaISB_EEESt20forward_iterator_tagEC1ESC_PKNS_19_Safe_sequence_baseE, symObjAddr: 0x4574, symBinAddr: 0x1000078E4, symSize: 0x54 }
  - { offsetInCU: 0x3401C, offset: 0x3401C, size: 0x8, addend: 0x0, symName: __ZNSt7__cxx1112basic_stringIcSt11char_traitsIcESaIcEE6appendEPKc, symObjAddr: 0x4504, symBinAddr: 0x100007874, symSize: 0x4C }
  - { offsetInCU: 0x34024, offset: 0x34024, size: 0x8, addend: 0x0, symName: __ZNSt9__cxx199813unordered_mapINSt7__cxx1112basic_stringIcSt11char_traitsIcESaIcEEExSt4hashIS6_ESt8equal_toIS6_ESaISt4pairIKS6_xEEE4findERSC_, symObjAddr: 0x4550, symBinAddr: 0x1000078C0, symSize: 0x24 }
  - { offsetInCU: 0x34077, offset: 0x34077, size: 0x8, addend: 0x0, symName: __ZN11__gnu_debug16_Error_formatter11_M_iteratorINS_14_Safe_iteratorISt17_Rb_tree_iteratorISt4pairIKxxEENSt7__debug3mapIxxSt4lessIxESaIS6_EEESt20forward_iterator_tagEEEERS0_RKT_PKc, symObjAddr: 0x4470, symBinAddr: 0x1000077E0, symSize: 0x94 }
  - { offsetInCU: 0x3407F, offset: 0x3407F, size: 0x8, addend: 0x0, symName: __ZNSt7__cxx1112basic_stringIcSt11char_traitsIcESaIcEE6appendEPKc, symObjAddr: 0x4504, symBinAddr: 0x100007874, symSize: 0x4C }
  - { offsetInCU: 0x340E2, offset: 0x340E2, size: 0x8, addend: 0x0, symName: __ZNK11__gnu_debug14_Safe_iteratorISt17_Rb_tree_iteratorISt4pairIKxxEENSt7__debug3mapIxxSt4lessIxESaIS4_EEESt20forward_iterator_tagE18_M_dereferenceableEv, symObjAddr: 0x43EC, symBinAddr: 0x10000775C, symSize: 0x84 }
  - { offsetInCU: 0x340EA, offset: 0x340EA, size: 0x8, addend: 0x0, symName: __ZN11__gnu_debug16_Error_formatter11_M_iteratorINS_14_Safe_iteratorISt17_Rb_tree_iteratorISt4pairIKxxEENSt7__debug3mapIxxSt4lessIxESaIS6_EEESt20forward_iterator_tagEEEERS0_RKT_PKc, symObjAddr: 0x4470, symBinAddr: 0x1000077E0, symSize: 0x94 }
  - { offsetInCU: 0x34113, offset: 0x34113, size: 0x8, addend: 0x0, symName: __ZN11__gnu_debug14_Safe_iteratorISt17_Rb_tree_iteratorISt4pairIKxxEENSt7__debug3mapIxxSt4lessIxESaIS4_EEESt20forward_iterator_tagEppEv, symObjAddr: 0x42E8, symBinAddr: 0x100007658, symSize: 0x104 }
  - { offsetInCU: 0x3411B, offset: 0x3411B, size: 0x8, addend: 0x0, symName: __ZNK11__gnu_debug14_Safe_iteratorISt17_Rb_tree_iteratorISt4pairIKxxEENSt7__debug3mapIxxSt4lessIxESaIS4_EEESt20forward_iterator_tagE18_M_dereferenceableEv, symObjAddr: 0x43EC, symBinAddr: 0x10000775C, symSize: 0x84 }
  - { offsetInCU: 0x341C9, offset: 0x341C9, size: 0x8, addend: 0x0, symName: __ZStneRKSt17_Rb_tree_iteratorISt4pairIKxxEES5_, symObjAddr: 0x42B8, symBinAddr: 0x100007628, symSize: 0x30 }
  - { offsetInCU: 0x341D1, offset: 0x341D1, size: 0x8, addend: 0x0, symName: __ZN11__gnu_debug14_Safe_iteratorISt17_Rb_tree_iteratorISt4pairIKxxEENSt7__debug3mapIxxSt4lessIxESaIS4_EEESt20forward_iterator_tagEppEv, symObjAddr: 0x42E8, symBinAddr: 0x100007658, symSize: 0x104 }
  - { offsetInCU: 0x341F1, offset: 0x341F1, size: 0x8, addend: 0x0, symName: __ZNSt9__cxx19983mapIxxSt4lessIxESaISt4pairIKxxEEE5beginEv, symObjAddr: 0x429C, symBinAddr: 0x10000760C, symSize: 0x1C }
  - { offsetInCU: 0x341F9, offset: 0x341F9, size: 0x8, addend: 0x0, symName: __ZStneRKSt17_Rb_tree_iteratorISt4pairIKxxEES5_, symObjAddr: 0x42B8, symBinAddr: 0x100007628, symSize: 0x30 }
  - { offsetInCU: 0x34222, offset: 0x34222, size: 0x8, addend: 0x0, symName: __ZNSt8_Rb_treeIxSt4pairIKxxESt10_Select1stIS2_ESt4lessIxESaIS2_EE22_M_emplace_hint_uniqueIJRKSt21piecewise_construct_tSt5tupleIJRS1_EESD_IJEEEEESt17_Rb_tree_iteratorIS2_ESt23_Rb_tree_const_iteratorIS2_EDpOT_, symObjAddr: 0x41C4, symBinAddr: 0x100007534, symSize: 0xD8 }
  - { offsetInCU: 0x3422A, offset: 0x3422A, size: 0x8, addend: 0x0, symName: __ZNSt9__cxx19983mapIxxSt4lessIxESaISt4pairIKxxEEE5beginEv, symObjAddr: 0x429C, symBinAddr: 0x10000760C, symSize: 0x1C }
  - { offsetInCU: 0x3435D, offset: 0x3435D, size: 0x8, addend: 0x0, symName: __ZNSt23_Rb_tree_const_iteratorISt4pairIKxxEEC1ERKSt17_Rb_tree_iteratorIS2_E, symObjAddr: 0x419C, symBinAddr: 0x10000750C, symSize: 0x28 }
  - { offsetInCU: 0x34365, offset: 0x34365, size: 0x8, addend: 0x0, symName: __ZNSt8_Rb_treeIxSt4pairIKxxESt10_Select1stIS2_ESt4lessIxESaIS2_EE22_M_emplace_hint_uniqueIJRKSt21piecewise_construct_tSt5tupleIJRS1_EESD_IJEEEEESt17_Rb_tree_iteratorIS2_ESt23_Rb_tree_const_iteratorIS2_EDpOT_, symObjAddr: 0x41C4, symBinAddr: 0x100007534, symSize: 0xD8 }
  - { offsetInCU: 0x343AD, offset: 0x343AD, size: 0x8, addend: 0x0, symName: __ZNSt5tupleIJRKxEEC1ILb1ELb1EEES1_, symObjAddr: 0x4174, symBinAddr: 0x1000074E4, symSize: 0x28 }
  - { offsetInCU: 0x343B5, offset: 0x343B5, size: 0x8, addend: 0x0, symName: __ZNSt23_Rb_tree_const_iteratorISt4pairIKxxEEC1ERKSt17_Rb_tree_iteratorIS2_E, symObjAddr: 0x419C, symBinAddr: 0x10000750C, symSize: 0x28 }
  - { offsetInCU: 0x343D6, offset: 0x343D6, size: 0x8, addend: 0x0, symName: __ZNKSt4lessIxEclERKxS2_, symObjAddr: 0x4140, symBinAddr: 0x1000074B0, symSize: 0x34 }
  - { offsetInCU: 0x343DE, offset: 0x343DE, size: 0x8, addend: 0x0, symName: __ZNSt5tupleIJRKxEEC1ILb1ELb1EEES1_, symObjAddr: 0x4174, symBinAddr: 0x1000074E4, symSize: 0x28 }
  - { offsetInCU: 0x34431, offset: 0x34431, size: 0x8, addend: 0x0, symName: __ZNKSt17_Rb_tree_iteratorISt4pairIKxxEEdeEv, symObjAddr: 0x4120, symBinAddr: 0x100007490, symSize: 0x20 }
  - { offsetInCU: 0x34439, offset: 0x34439, size: 0x8, addend: 0x0, symName: __ZNKSt4lessIxEclERKxS2_, symObjAddr: 0x4140, symBinAddr: 0x1000074B0, symSize: 0x34 }
  - { offsetInCU: 0x34462, offset: 0x34462, size: 0x8, addend: 0x0, symName: __ZNKSt9__cxx19983mapIxxSt4lessIxESaISt4pairIKxxEEE8key_compEv, symObjAddr: 0x40F4, symBinAddr: 0x100007464, symSize: 0x2C }
  - { offsetInCU: 0x3446A, offset: 0x3446A, size: 0x8, addend: 0x0, symName: __ZNKSt17_Rb_tree_iteratorISt4pairIKxxEEdeEv, symObjAddr: 0x4120, symBinAddr: 0x100007490, symSize: 0x20 }
  - { offsetInCU: 0x34493, offset: 0x34493, size: 0x8, addend: 0x0, symName: __ZNSt9__cxx19983mapIxxSt4lessIxESaISt4pairIKxxEEE11lower_boundERS4_, symObjAddr: 0x40D0, symBinAddr: 0x100007440, symSize: 0x24 }
  - { offsetInCU: 0x3449B, offset: 0x3449B, size: 0x8, addend: 0x0, symName: __ZNKSt9__cxx19983mapIxxSt4lessIxESaISt4pairIKxxEEE8key_compEv, symObjAddr: 0x40F4, symBinAddr: 0x100007464, symSize: 0x2C }
  - { offsetInCU: 0x345D9, offset: 0x345D9, size: 0x8, addend: 0x0, symName: __ZNSt4pairIN11__gnu_debug14_Safe_iteratorISt17_Rb_tree_iteratorIS_IKxxEENSt7__debug3mapIxxSt4lessIxESaIS4_EEESt26bidirectional_iterator_tagEEbEC1ISD_bLb1EEERKSD_RKb, symObjAddr: 0x4094, symBinAddr: 0x100007404, symSize: 0x3C }
  - { offsetInCU: 0x345E1, offset: 0x345E1, size: 0x8, addend: 0x0, symName: __ZNSt9__cxx19983mapIxxSt4lessIxESaISt4pairIKxxEEE11lower_boundERS4_, symObjAddr: 0x40D0, symBinAddr: 0x100007440, symSize: 0x24 }
  - { offsetInCU: 0x345AA, offset: 0x345AA, size: 0x8, addend: 0x0, symName: __ZNSt9__cxx19983mapIxxSt4lessIxESaISt4pairIKxxEEE6insertIS3_IxiEEENSt9enable_ifIXsrSt16is_constructibleIS5_JT_EE5valueES3_ISt17_Rb_tree_iteratorIS5_EbEE4typeEOSC_, symObjAddr: 0x3F90, symBinAddr: 0x100007300, symSize: 0x104 }
  - { offsetInCU: 0x345B2, offset: 0x345B2, size: 0x8, addend: 0x0, symName: __ZNSt4pairIN11__gnu_debug14_Safe_iteratorISt17_Rb_tree_iteratorIS_IKxxEENSt7__debug3mapIxxSt4lessIxESaIS4_EEESt26bidirectional_iterator_tagEEbEC1ISD_bLb1EEERKSD_RKb, symObjAddr: 0x4094, symBinAddr: 0x100007404, symSize: 0x3C }
  - { offsetInCU: 0x346A7, offset: 0x346A7, size: 0x8, addend: 0x0, symName: __ZSt7forwardISt4pairIxiEEOT_RNSt16remove_referenceIS2_E4typeE, symObjAddr: 0x3F7C, symBinAddr: 0x1000072EC, symSize: 0x14 }
  - { offsetInCU: 0x346AF, offset: 0x346AF, size: 0x8, addend: 0x0, symName: __ZNSt9__cxx19983mapIxxSt4lessIxESaISt4pairIKxxEEE6insertIS3_IxiEEENSt9enable_ifIXsrSt16is_constructibleIS5_JT_EE5valueES3_ISt17_Rb_tree_iteratorIS5_EbEE4typeEOSC_, symObjAddr: 0x3F90, symBinAddr: 0x100007300, symSize: 0x104 }
  - { offsetInCU: 0x3470E, offset: 0x3470E, size: 0x8, addend: 0x0, symName: __ZNSt4pairIxiEC1IRxiLb1EEEOT_OT0_, symObjAddr: 0x3F34, symBinAddr: 0x1000072A4, symSize: 0x48 }
  - { offsetInCU: 0x34716, offset: 0x34716, size: 0x8, addend: 0x0, symName: __ZSt7forwardISt4pairIxiEEOT_RNSt16remove_referenceIS2_E4typeE, symObjAddr: 0x3F7C, symBinAddr: 0x1000072EC, symSize: 0x14 }
  - { offsetInCU: 0x347A1, offset: 0x347A1, size: 0x8, addend: 0x0, symName: __ZSt7forwardIRxEOT_RNSt16remove_referenceIS1_E4typeE, symObjAddr: 0x3F20, symBinAddr: 0x100007290, symSize: 0x14 }
  - { offsetInCU: 0x347A9, offset: 0x347A9, size: 0x8, addend: 0x0, symName: __ZNSt4pairIxiEC1IRxiLb1EEEOT_OT0_, symObjAddr: 0x3F34, symBinAddr: 0x1000072A4, symSize: 0x48 }
  - { offsetInCU: 0x347DE, offset: 0x347DE, size: 0x8, addend: 0x0, symName: __ZSteqRKSt17_Rb_tree_iteratorISt4pairIKxxEES5_, symObjAddr: 0x3EF0, symBinAddr: 0x100007260, symSize: 0x30 }
  - { offsetInCU: 0x347E6, offset: 0x347E6, size: 0x8, addend: 0x0, symName: __ZSt7forwardIRxEOT_RNSt16remove_referenceIS1_E4typeE, symObjAddr: 0x3F20, symBinAddr: 0x100007290, symSize: 0x14 }
  - { offsetInCU: 0x347FC, offset: 0x347FC, size: 0x8, addend: 0x0, symName: __ZNK11__gnu_debug14_Safe_iteratorISt17_Rb_tree_iteratorISt4pairIKxxEENSt7__debug3mapIxxSt4lessIxESaIS4_EEESt20forward_iterator_tagE4baseEv, symObjAddr: 0x3EDC, symBinAddr: 0x10000724C, symSize: 0x14 }
  - { offsetInCU: 0x34804, offset: 0x34804, size: 0x8, addend: 0x0, symName: __ZSteqRKSt17_Rb_tree_iteratorISt4pairIKxxEES5_, symObjAddr: 0x3EF0, symBinAddr: 0x100007260, symSize: 0x30 }
  - { offsetInCU: 0x3482D, offset: 0x3482D, size: 0x8, addend: 0x0, symName: __ZN11__gnu_debug16_Error_formatter11_M_iteratorINS_14_Safe_iteratorISt17_Rb_tree_iteratorISt4pairIKxxEENSt7__debug3mapIxxSt4lessIxESaIS6_EEESt26bidirectional_iterator_tagEEEERS0_RKT_PKc, symObjAddr: 0x3E48, symBinAddr: 0x1000071B8, symSize: 0x94 }
  - { offsetInCU: 0x34835, offset: 0x34835, size: 0x8, addend: 0x0, symName: __ZNK11__gnu_debug14_Safe_iteratorISt17_Rb_tree_iteratorISt4pairIKxxEENSt7__debug3mapIxxSt4lessIxESaIS4_EEESt20forward_iterator_tagE4baseEv, symObjAddr: 0x3EDC, symBinAddr: 0x10000724C, symSize: 0x14 }
  - { offsetInCU: 0x34898, offset: 0x34898, size: 0x8, addend: 0x0, symName: __ZNK11__gnu_debug14_Safe_iteratorISt17_Rb_tree_iteratorISt4pairIKxxEENSt7__debug3mapIxxSt4lessIxESaIS4_EEESt20forward_iterator_tagE20_M_value_initializedEv, symObjAddr: 0x3DDC, symBinAddr: 0x10000714C, symSize: 0x6C }
  - { offsetInCU: 0x348A0, offset: 0x348A0, size: 0x8, addend: 0x0, symName: __ZN11__gnu_debug16_Error_formatter11_M_iteratorINS_14_Safe_iteratorISt17_Rb_tree_iteratorISt4pairIKxxEENSt7__debug3mapIxxSt4lessIxESaIS6_EEESt26bidirectional_iterator_tagEEEERS0_RKT_PKc, symObjAddr: 0x3E48, symBinAddr: 0x1000071B8, symSize: 0x94 }
  - { offsetInCU: 0x348C9, offset: 0x348C9, size: 0x8, addend: 0x0, symName: __ZNSt9__cxx19983mapIxxSt4lessIxESaISt4pairIKxxEEE3endEv, symObjAddr: 0x3DC0, symBinAddr: 0x100007130, symSize: 0x1C }
  - { offsetInCU: 0x348D1, offset: 0x348D1, size: 0x8, addend: 0x0, symName: __ZNK11__gnu_debug14_Safe_iteratorISt17_Rb_tree_iteratorISt4pairIKxxEENSt7__debug3mapIxxSt4lessIxESaIS4_EEESt20forward_iterator_tagE20_M_value_initializedEv, symObjAddr: 0x3DDC, symBinAddr: 0x10000714C, symSize: 0x6C }
  - { offsetInCU: 0x349E3, offset: 0x349E3, size: 0x8, addend: 0x0, symName: __ZN11__gnu_debug14_Safe_iteratorISt17_Rb_tree_iteratorISt4pairIKxxEENSt7__debug3mapIxxSt4lessIxESaIS4_EEESt26bidirectional_iterator_tagEC1ES5_PKNS_19_Safe_sequence_baseE, symObjAddr: 0x3D90, symBinAddr: 0x100007100, symSize: 0x30 }
  - { offsetInCU: 0x349EB, offset: 0x349EB, size: 0x8, addend: 0x0, symName: __ZNSt9__cxx19983mapIxxSt4lessIxESaISt4pairIKxxEEE3endEv, symObjAddr: 0x3DC0, symBinAddr: 0x100007130, symSize: 0x1C }
  - { offsetInCU: 0x34983, offset: 0x34983, size: 0x8, addend: 0x0, symName: __ZNSt9__cxx19983mapIxxSt4lessIxESaISt4pairIKxxEEE4findERS4_, symObjAddr: 0x3D6C, symBinAddr: 0x1000070DC, symSize: 0x24 }
  - { offsetInCU: 0x3498B, offset: 0x3498B, size: 0x8, addend: 0x0, symName: __ZN11__gnu_debug14_Safe_iteratorISt17_Rb_tree_iteratorISt4pairIKxxEENSt7__debug3mapIxxSt4lessIxESaIS4_EEESt26bidirectional_iterator_tagEC1ES5_PKNS_19_Safe_sequence_baseE, symObjAddr: 0x3D90, symBinAddr: 0x100007100, symSize: 0x30 }
  - { offsetInCU: 0x349C9, offset: 0x349C9, size: 0x8, addend: 0x0, symName: __ZNSt8_Rb_treeIxSt4pairIKxxESt10_Select1stIS2_ESt4lessIxESaIS2_EE8_M_beginEv, symObjAddr: 0x3D50, symBinAddr: 0x1000070C0, symSize: 0x1C }
  - { offsetInCU: 0x349D1, offset: 0x349D1, size: 0x8, addend: 0x0, symName: __ZNSt9__cxx19983mapIxxSt4lessIxESaISt4pairIKxxEEE4findERS4_, symObjAddr: 0x3D6C, symBinAddr: 0x1000070DC, symSize: 0x24 }
  - { offsetInCU: 0x349FA, offset: 0x349FA, size: 0x8, addend: 0x0, symName: __ZNSt8_Rb_treeIxSt4pairIKxxESt10_Select1stIS2_ESt4lessIxESaIS2_EE8_M_eraseEPSt13_Rb_tree_nodeIS2_E, symObjAddr: 0x3CEC, symBinAddr: 0x10000705C, symSize: 0x64 }
  - { offsetInCU: 0x34A02, offset: 0x34A02, size: 0x8, addend: 0x0, symName: __ZNSt8_Rb_treeIxSt4pairIKxxESt10_Select1stIS2_ESt4lessIxESaIS2_EE8_M_beginEv, symObjAddr: 0x3D50, symBinAddr: 0x1000070C0, symSize: 0x1C }
  - { offsetInCU: 0x34ACE, offset: 0x34ACE, size: 0x8, addend: 0x0, symName: __ZNSt15__new_allocatorISt13_Rb_tree_nodeISt4pairIKxxEEED2Ev, symObjAddr: 0x3CD8, symBinAddr: 0x100007048, symSize: 0x14 }
  - { offsetInCU: 0x34AD6, offset: 0x34AD6, size: 0x8, addend: 0x0, symName: __ZNSt8_Rb_treeIxSt4pairIKxxESt10_Select1stIS2_ESt4lessIxESaIS2_EE8_M_eraseEPSt13_Rb_tree_nodeIS2_E, symObjAddr: 0x3CEC, symBinAddr: 0x10000705C, symSize: 0x64 }
  - { offsetInCU: 0x34B09, offset: 0x34B09, size: 0x8, addend: 0x0, symName: __ZNSt20_Rb_tree_key_compareISt4lessIxEEC2Ev, symObjAddr: 0x3CC4, symBinAddr: 0x100007034, symSize: 0x14 }
  - { offsetInCU: 0x34B11, offset: 0x34B11, size: 0x8, addend: 0x0, symName: __ZNSt15__new_allocatorISt13_Rb_tree_nodeISt4pairIKxxEEED2Ev, symObjAddr: 0x3CD8, symBinAddr: 0x100007048, symSize: 0x14 }
  - { offsetInCU: 0x34B28, offset: 0x34B28, size: 0x8, addend: 0x0, symName: __ZNSt10_HashtableINSt7__cxx1112basic_stringIcSt11char_traitsIcESaIcEEESt4pairIKS5_xESaIS8_ENSt8__detail10_Select1stESt8equal_toIS5_ESt4hashIS5_ENSA_18_Mod_range_hashingENSA_20_Default_ranged_hashENSA_20_Prime_rehash_policyENSA_17_Hashtable_traitsILb1ELb0ELb1EEEE21_M_deallocate_bucketsEv, symObjAddr: 0x3C90, symBinAddr: 0x100007000, symSize: 0x34 }
  - { offsetInCU: 0x34B30, offset: 0x34B30, size: 0x8, addend: 0x0, symName: __ZNSt20_Rb_tree_key_compareISt4lessIxEEC2Ev, symObjAddr: 0x3CC4, symBinAddr: 0x100007034, symSize: 0x14 }
  - { offsetInCU: 0x34B59, offset: 0x34B59, size: 0x8, addend: 0x0, symName: __ZNSt10_HashtableINSt7__cxx1112basic_stringIcSt11char_traitsIcESaIcEEESt4pairIKS5_xESaIS8_ENSt8__detail10_Select1stESt8equal_toIS5_ESt4hashIS5_ENSA_18_Mod_range_hashingENSA_20_Default_ranged_hashENSA_20_Prime_rehash_policyENSA_17_Hashtable_traitsILb1ELb0ELb1EEEE5clearEv, symObjAddr: 0x3C2C, symBinAddr: 0x100006F9C, symSize: 0x64 }
  - { offsetInCU: 0x34B61, offset: 0x34B61, size: 0x8, addend: 0x0, symName: __ZNSt10_HashtableINSt7__cxx1112basic_stringIcSt11char_traitsIcESaIcEEESt4pairIKS5_xESaIS8_ENSt8__detail10_Select1stESt8equal_toIS5_ESt4hashIS5_ENSA_18_Mod_range_hashingENSA_20_Default_ranged_hashENSA_20_Prime_rehash_policyENSA_17_Hashtable_traitsILb1ELb0ELb1EEEE21_M_deallocate_bucketsEv, symObjAddr: 0x3C90, symBinAddr: 0x100007000, symSize: 0x34 }
  - { offsetInCU: 0x34C2F, offset: 0x34C2F, size: 0x8, addend: 0x0, symName: __ZNSt15__new_allocatorINSt8__detail10_Hash_nodeISt4pairIKNSt7__cxx1112basic_stringIcSt11char_traitsIcESaIcEEExELb1EEEED2Ev, symObjAddr: 0x3C18, symBinAddr: 0x100006F88, symSize: 0x14 }
  - { offsetInCU: 0x34C37, offset: 0x34C37, size: 0x8, addend: 0x0, symName: __ZNSt10_HashtableINSt7__cxx1112basic_stringIcSt11char_traitsIcESaIcEEESt4pairIKS5_xESaIS8_ENSt8__detail10_Select1stESt8equal_toIS5_ESt4hashIS5_ENSA_18_Mod_range_hashingENSA_20_Default_ranged_hashENSA_20_Prime_rehash_policyENSA_17_Hashtable_traitsILb1ELb0ELb1EEEE5clearEv, symObjAddr: 0x3C2C, symBinAddr: 0x100006F9C, symSize: 0x64 }
  - { offsetInCU: 0x34BFF, offset: 0x34BFF, size: 0x8, addend: 0x0, symName: __ZNKSt7__cxx1112basic_stringIcSt11char_traitsIcESaIcEE8_M_checkEmPKc, symObjAddr: 0x3BA0, symBinAddr: 0x100006F10, symSize: 0x78 }
  - { offsetInCU: 0x34C07, offset: 0x34C07, size: 0x8, addend: 0x0, symName: __ZNSt15__new_allocatorINSt8__detail10_Hash_nodeISt4pairIKNSt7__cxx1112basic_stringIcSt11char_traitsIcESaIcEEExELb1EEEED2Ev, symObjAddr: 0x3C18, symBinAddr: 0x100006F88, symSize: 0x14 }
  - { offsetInCU: 0x34C5F, offset: 0x34C5F, size: 0x8, addend: 0x0, symName: __ZNSt7__cxx1112basic_stringIcSt11char_traitsIcESaIcEE7reserveEm, symObjAddr: 0x3AF8, symBinAddr: 0x100006E68, symSize: 0xA8 }
  - { offsetInCU: 0x34C67, offset: 0x34C67, size: 0x8, addend: 0x0, symName: __ZNKSt7__cxx1112basic_stringIcSt11char_traitsIcESaIcEE8_M_checkEmPKc, symObjAddr: 0x3BA0, symBinAddr: 0x100006F10, symSize: 0x78 }
  - { offsetInCU: 0x34D39, offset: 0x34D39, size: 0x8, addend: 0x0, symName: __ZNSt7__cxx1112basic_stringIcSt11char_traitsIcESaIcEEC1ERKS3_, symObjAddr: 0x3A98, symBinAddr: 0x100006E08, symSize: 0x60 }
  - { offsetInCU: 0x34D41, offset: 0x34D41, size: 0x8, addend: 0x0, symName: __ZNSt7__cxx1112basic_stringIcSt11char_traitsIcESaIcEE7reserveEm, symObjAddr: 0x3AF8, symBinAddr: 0x100006E68, symSize: 0xA8 }
  - { offsetInCU: 0x34D60, offset: 0x34D60, size: 0x8, addend: 0x0, symName: __ZNKSt7__cxx1112basic_stringIcSt11char_traitsIcESaIcEE4dataEv, symObjAddr: 0x3A7C, symBinAddr: 0x100006DEC, symSize: 0x1C }
  - { offsetInCU: 0x34D68, offset: 0x34D68, size: 0x8, addend: 0x0, symName: __ZNSt7__cxx1112basic_stringIcSt11char_traitsIcESaIcEEC1ERKS3_, symObjAddr: 0x3A98, symBinAddr: 0x100006E08, symSize: 0x60 }
  - { offsetInCU: 0x34D91, offset: 0x34D91, size: 0x8, addend: 0x0, symName: __ZNSt7__cxx1112basic_stringIcSt11char_traitsIcESaIcEE7_S_copyEPcPKcm, symObjAddr: 0x3A30, symBinAddr: 0x100006DA0, symSize: 0x4C }
  - { offsetInCU: 0x34D99, offset: 0x34D99, size: 0x8, addend: 0x0, symName: __ZNKSt7__cxx1112basic_stringIcSt11char_traitsIcESaIcEE4dataEv, symObjAddr: 0x3A7C, symBinAddr: 0x100006DEC, symSize: 0x1C }
  - { offsetInCU: 0x34DEF, offset: 0x34DEF, size: 0x8, addend: 0x0, symName: __ZNSt7__cxx1112basic_stringIcSt11char_traitsIcESaIcEE10_M_destroyEm, symObjAddr: 0x39CC, symBinAddr: 0x100006D3C, symSize: 0x64 }
  - { offsetInCU: 0x34DF7, offset: 0x34DF7, size: 0x8, addend: 0x0, symName: __ZNSt7__cxx1112basic_stringIcSt11char_traitsIcESaIcEE7_S_copyEPcPKcm, symObjAddr: 0x3A30, symBinAddr: 0x100006DA0, symSize: 0x4C }
  - { offsetInCU: 0x34E77, offset: 0x34E77, size: 0x8, addend: 0x0, symName: __ZNSt7__cxx1112basic_stringIcSt11char_traitsIcESaIcEE12_M_constructIPcEEvT_S7_St20forward_iterator_tag, symObjAddr: 0x38E4, symBinAddr: 0x100006C54, symSize: 0xE8 }
  - { offsetInCU: 0x34E7F, offset: 0x34E7F, size: 0x8, addend: 0x0, symName: __ZNSt7__cxx1112basic_stringIcSt11char_traitsIcESaIcEE10_M_destroyEm, symObjAddr: 0x39CC, symBinAddr: 0x100006D3C, symSize: 0x64 }
  - { offsetInCU: 0x35038, offset: 0x35038, size: 0x8, addend: 0x0, symName: __ZZNSt7__cxx1112basic_stringIcSt11char_traitsIcESaIcEE12_M_constructIPcEEvT_S7_St20forward_iterator_tagEN6_GuardC1EPS4_, symObjAddr: 0x388C, symBinAddr: 0x100006BFC, symSize: 0x24 }
  - { offsetInCU: 0x35040, offset: 0x35040, size: 0x8, addend: 0x0, symName: __ZZNSt7__cxx1112basic_stringIcSt11char_traitsIcESaIcEE12_M_constructIPcEEvT_S7_St20forward_iterator_tagEN6_GuardD1Ev, symObjAddr: 0x38B0, symBinAddr: 0x100006C20, symSize: 0x34 }
  - { offsetInCU: 0x35073, offset: 0x35073, size: 0x8, addend: 0x0, symName: __ZZNSt7__cxx1112basic_stringIcSt11char_traitsIcESaIcEE12_M_constructIPcEEvT_S7_St20forward_iterator_tagEN6_GuardD1Ev, symObjAddr: 0x38B0, symBinAddr: 0x100006C20, symSize: 0x34 }
  - { offsetInCU: 0x3507B, offset: 0x3507B, size: 0x8, addend: 0x0, symName: __ZNSt7__cxx1112basic_stringIcSt11char_traitsIcESaIcEE12_M_constructIPcEEvT_S7_St20forward_iterator_tag, symObjAddr: 0x38E4, symBinAddr: 0x100006C54, symSize: 0xE8 }
  - { offsetInCU: 0x35123, offset: 0x35123, size: 0x8, addend: 0x0, symName: __ZNKSt7__cxx1112basic_stringIcSt11char_traitsIcESaIcEE16_M_get_allocatorEv, symObjAddr: 0x3878, symBinAddr: 0x100006BE8, symSize: 0x14 }
  - { offsetInCU: 0x3512B, offset: 0x3512B, size: 0x8, addend: 0x0, symName: __ZZNSt7__cxx1112basic_stringIcSt11char_traitsIcESaIcEE12_M_constructIPcEEvT_S7_St20forward_iterator_tagEN6_GuardC1EPS4_, symObjAddr: 0x388C, symBinAddr: 0x100006BFC, symSize: 0x24 }
  - { offsetInCU: 0x3516F, offset: 0x3516F, size: 0x8, addend: 0x0, symName: __ZNSt7__cxx1112basic_stringIcSt11char_traitsIcESaIcEE6appendERKS4_, symObjAddr: 0x3834, symBinAddr: 0x100006BA4, symSize: 0x44 }
  - { offsetInCU: 0x35177, offset: 0x35177, size: 0x8, addend: 0x0, symName: __ZNKSt7__cxx1112basic_stringIcSt11char_traitsIcESaIcEE16_M_get_allocatorEv, symObjAddr: 0x3878, symBinAddr: 0x100006BE8, symSize: 0x14 }
  - { offsetInCU: 0x351B5, offset: 0x351B5, size: 0x8, addend: 0x0, symName: __ZNSt7__cxx1112basic_stringIcSt11char_traitsIcESaIcEE6insertEmRKS4_, symObjAddr: 0x37E4, symBinAddr: 0x100006B54, symSize: 0x50 }
  - { offsetInCU: 0x351BD, offset: 0x351BD, size: 0x8, addend: 0x0, symName: __ZNSt7__cxx1112basic_stringIcSt11char_traitsIcESaIcEE6appendERKS4_, symObjAddr: 0x3834, symBinAddr: 0x100006BA4, symSize: 0x44 }
  - { offsetInCU: 0x35210, offset: 0x35210, size: 0x8, addend: 0x0, symName: __ZNKSt7__cxx1112basic_stringIcSt11char_traitsIcESaIcEE8capacityEv, symObjAddr: 0x37A8, symBinAddr: 0x100006B18, symSize: 0x3C }
  - { offsetInCU: 0x35218, offset: 0x35218, size: 0x8, addend: 0x0, symName: __ZNSt7__cxx1112basic_stringIcSt11char_traitsIcESaIcEE6insertEmRKS4_, symObjAddr: 0x37E4, symBinAddr: 0x100006B54, symSize: 0x50 }
  - { offsetInCU: 0x35300, offset: 0x35300, size: 0x8, addend: 0x0, symName: __ZSt12__str_concatINSt7__cxx1112basic_stringIcSt11char_traitsIcESaIcEEEET_PKNS6_10value_typeENS6_9size_typeES9_SA_RKNS6_14allocator_typeE, symObjAddr: 0x36C8, symBinAddr: 0x100006A38, symSize: 0xE0 }
  - { offsetInCU: 0x35308, offset: 0x35308, size: 0x8, addend: 0x0, symName: __ZNKSt7__cxx1112basic_stringIcSt11char_traitsIcESaIcEE8capacityEv, symObjAddr: 0x37A8, symBinAddr: 0x100006B18, symSize: 0x3C }
  - { offsetInCU: 0x353E6, offset: 0x353E6, size: 0x8, addend: 0x0, symName: __ZNKSt7__cxx1112basic_stringIcSt11char_traitsIcESaIcEE13get_allocatorEv, symObjAddr: 0x3678, symBinAddr: 0x1000069E8, symSize: 0x50 }
  - { offsetInCU: 0x353EE, offset: 0x353EE, size: 0x8, addend: 0x0, symName: __ZSt12__str_concatINSt7__cxx1112basic_stringIcSt11char_traitsIcESaIcEEEET_PKNS6_10value_typeENS6_9size_typeES9_SA_RKNS6_14allocator_typeE, symObjAddr: 0x36C8, symBinAddr: 0x100006A38, symSize: 0xE0 }
  - { offsetInCU: 0x354C6, offset: 0x354C6, size: 0x8, addend: 0x0, symName: __ZSt7forwardIiEOT_RNSt16remove_referenceIS0_E4typeE, symObjAddr: 0x3664, symBinAddr: 0x1000069D4, symSize: 0x14 }
  - { offsetInCU: 0x354CE, offset: 0x354CE, size: 0x8, addend: 0x0, symName: __ZNKSt7__cxx1112basic_stringIcSt11char_traitsIcESaIcEE13get_allocatorEv, symObjAddr: 0x3678, symBinAddr: 0x1000069E8, symSize: 0x50 }
  - { offsetInCU: 0x3551D, offset: 0x3551D, size: 0x8, addend: 0x0, symName: __ZSt7forwardIbEOT_RNSt16remove_referenceIS0_E4typeE, symObjAddr: 0x3650, symBinAddr: 0x1000069C0, symSize: 0x14 }
  - { offsetInCU: 0x35525, offset: 0x35525, size: 0x8, addend: 0x0, symName: __ZSt7forwardIiEOT_RNSt16remove_referenceIS0_E4typeE, symObjAddr: 0x3664, symBinAddr: 0x1000069D4, symSize: 0x14 }
  - { offsetInCU: 0x3552D, offset: 0x3552D, size: 0x8, addend: 0x0, symName: __ZNSt7__cxx1112basic_stringIcSt11char_traitsIcESaIcEE12_M_constructIPKcEEvT_S8_St20forward_iterator_tag, symObjAddr: 0x3568, symBinAddr: 0x1000068D8, symSize: 0xE8 }
  - { offsetInCU: 0x35535, offset: 0x35535, size: 0x8, addend: 0x0, symName: __ZSt7forwardIbEOT_RNSt16remove_referenceIS0_E4typeE, symObjAddr: 0x3650, symBinAddr: 0x1000069C0, symSize: 0x14 }
  - { offsetInCU: 0x356EF, offset: 0x356EF, size: 0x8, addend: 0x0, symName: __ZZNSt7__cxx1112basic_stringIcSt11char_traitsIcESaIcEE12_M_constructIPKcEEvT_S8_St20forward_iterator_tagEN6_GuardC1EPS4_, symObjAddr: 0x3510, symBinAddr: 0x100006880, symSize: 0x24 }
  - { offsetInCU: 0x356F7, offset: 0x356F7, size: 0x8, addend: 0x0, symName: __ZZNSt7__cxx1112basic_stringIcSt11char_traitsIcESaIcEE12_M_constructIPKcEEvT_S8_St20forward_iterator_tagEN6_GuardD1Ev, symObjAddr: 0x3534, symBinAddr: 0x1000068A4, symSize: 0x34 }
  - { offsetInCU: 0x3572A, offset: 0x3572A, size: 0x8, addend: 0x0, symName: __ZZNSt7__cxx1112basic_stringIcSt11char_traitsIcESaIcEE12_M_constructIPKcEEvT_S8_St20forward_iterator_tagEN6_GuardD1Ev, symObjAddr: 0x3534, symBinAddr: 0x1000068A4, symSize: 0x34 }
  - { offsetInCU: 0x35732, offset: 0x35732, size: 0x8, addend: 0x0, symName: __ZNSt7__cxx1112basic_stringIcSt11char_traitsIcESaIcEE12_M_constructIPKcEEvT_S8_St20forward_iterator_tag, symObjAddr: 0x3568, symBinAddr: 0x1000068D8, symSize: 0xE8 }
  - { offsetInCU: 0x357BC, offset: 0x357BC, size: 0x8, addend: 0x0, symName: __ZNSt7__cxx1112basic_stringIcSt11char_traitsIcESaIcEE13_M_set_lengthEm, symObjAddr: 0x34C8, symBinAddr: 0x100006838, symSize: 0x48 }
  - { offsetInCU: 0x357C4, offset: 0x357C4, size: 0x8, addend: 0x0, symName: __ZZNSt7__cxx1112basic_stringIcSt11char_traitsIcESaIcEE12_M_constructIPKcEEvT_S8_St20forward_iterator_tagEN6_GuardC1EPS4_, symObjAddr: 0x3510, symBinAddr: 0x100006880, symSize: 0x24 }
  - { offsetInCU: 0x35801, offset: 0x35801, size: 0x8, addend: 0x0, symName: __ZNSt7__cxx1112basic_stringIcSt11char_traitsIcESaIcEE9_M_lengthEm, symObjAddr: 0x34A4, symBinAddr: 0x100006814, symSize: 0x24 }
  - { offsetInCU: 0x35809, offset: 0x35809, size: 0x8, addend: 0x0, symName: __ZNSt7__cxx1112basic_stringIcSt11char_traitsIcESaIcEE13_M_set_lengthEm, symObjAddr: 0x34C8, symBinAddr: 0x100006838, symSize: 0x48 }
  - { offsetInCU: 0x35846, offset: 0x35846, size: 0x8, addend: 0x0, symName: __ZNSt7__cxx1112basic_stringIcSt11char_traitsIcESaIcEE11_M_capacityEm, symObjAddr: 0x3480, symBinAddr: 0x1000067F0, symSize: 0x24 }
  - { offsetInCU: 0x3584E, offset: 0x3584E, size: 0x8, addend: 0x0, symName: __ZNSt7__cxx1112basic_stringIcSt11char_traitsIcESaIcEE9_M_lengthEm, symObjAddr: 0x34A4, symBinAddr: 0x100006814, symSize: 0x24 }
  - { offsetInCU: 0x3588B, offset: 0x3588B, size: 0x8, addend: 0x0, symName: __ZNSt7__cxx1112basic_stringIcSt11char_traitsIcESaIcEE7_M_dataEPc, symObjAddr: 0x345C, symBinAddr: 0x1000067CC, symSize: 0x24 }
  - { offsetInCU: 0x35893, offset: 0x35893, size: 0x8, addend: 0x0, symName: __ZNSt7__cxx1112basic_stringIcSt11char_traitsIcESaIcEE11_M_capacityEm, symObjAddr: 0x3480, symBinAddr: 0x1000067F0, symSize: 0x24 }
  - { offsetInCU: 0x358D0, offset: 0x358D0, size: 0x8, addend: 0x0, symName: __ZNKSt7__cxx1112basic_stringIcSt11char_traitsIcESaIcEE6lengthEv, symObjAddr: 0x3444, symBinAddr: 0x1000067B4, symSize: 0x18 }
  - { offsetInCU: 0x358D8, offset: 0x358D8, size: 0x8, addend: 0x0, symName: __ZNSt7__cxx1112basic_stringIcSt11char_traitsIcESaIcEE7_M_dataEPc, symObjAddr: 0x345C, symBinAddr: 0x1000067CC, symSize: 0x24 }
  - { offsetInCU: 0x35901, offset: 0x35901, size: 0x8, addend: 0x0, symName: __ZNKSt7__cxx1112basic_stringIcSt11char_traitsIcESaIcEE11_M_is_localEv, symObjAddr: 0x33E4, symBinAddr: 0x100006754, symSize: 0x60 }
  - { offsetInCU: 0x35909, offset: 0x35909, size: 0x8, addend: 0x0, symName: __ZNKSt7__cxx1112basic_stringIcSt11char_traitsIcESaIcEE6lengthEv, symObjAddr: 0x3444, symBinAddr: 0x1000067B4, symSize: 0x18 }
  - { offsetInCU: 0x359BC, offset: 0x359BC, size: 0x8, addend: 0x0, symName: __ZNSt7__cxx1112basic_stringIcSt11char_traitsIcESaIcEE12_Alloc_hiderC1EPcOS3_, symObjAddr: 0x3388, symBinAddr: 0x1000066F8, symSize: 0x5C }
  - { offsetInCU: 0x359C4, offset: 0x359C4, size: 0x8, addend: 0x0, symName: __ZNKSt7__cxx1112basic_stringIcSt11char_traitsIcESaIcEE11_M_is_localEv, symObjAddr: 0x33E4, symBinAddr: 0x100006754, symSize: 0x60 }
  - { offsetInCU: 0x35A79, offset: 0x35A79, size: 0x8, addend: 0x0, symName: __ZSt4moveIRSaIcEEONSt16remove_referenceIT_E4typeEOS3_, symObjAddr: 0x3374, symBinAddr: 0x1000066E4, symSize: 0x14 }
  - { offsetInCU: 0x35A81, offset: 0x35A81, size: 0x8, addend: 0x0, symName: __ZNSt7__cxx1112basic_stringIcSt11char_traitsIcESaIcEE12_Alloc_hiderC1EPcOS3_, symObjAddr: 0x3388, symBinAddr: 0x1000066F8, symSize: 0x5C }
  - { offsetInCU: 0x35A79, offset: 0x35A79, size: 0x8, addend: 0x0, symName: __ZNSt7__cxx1112basic_stringIcSt11char_traitsIcESaIcEE16_M_get_allocatorEv, symObjAddr: 0x3360, symBinAddr: 0x1000066D0, symSize: 0x14 }
  - { offsetInCU: 0x35A81, offset: 0x35A81, size: 0x8, addend: 0x0, symName: __ZSt4moveIRSaIcEEONSt16remove_referenceIT_E4typeEOS3_, symObjAddr: 0x3374, symBinAddr: 0x1000066E4, symSize: 0x14 }
  - { offsetInCU: 0x35AAA, offset: 0x35AAA, size: 0x8, addend: 0x0, symName: __ZNSt7__cxx1112basic_stringIcSt11char_traitsIcESaIcEE10_M_disposeEv, symObjAddr: 0x3314, symBinAddr: 0x100006684, symSize: 0x4C }
  - { offsetInCU: 0x35AB2, offset: 0x35AB2, size: 0x8, addend: 0x0, symName: __ZNSt7__cxx1112basic_stringIcSt11char_traitsIcESaIcEE16_M_get_allocatorEv, symObjAddr: 0x3360, symBinAddr: 0x1000066D0, symSize: 0x14 }
  - { offsetInCU: 0x35ADF, offset: 0x35ADF, size: 0x8, addend: 0x0, symName: __ZNSt7__cxx1112basic_stringIcSt11char_traitsIcESaIcEE12_M_constructEmc, symObjAddr: 0x3264, symBinAddr: 0x1000065D4, symSize: 0xB0 }
  - { offsetInCU: 0x35AE7, offset: 0x35AE7, size: 0x8, addend: 0x0, symName: __ZNSt7__cxx1112basic_stringIcSt11char_traitsIcESaIcEE10_M_disposeEv, symObjAddr: 0x3314, symBinAddr: 0x100006684, symSize: 0x4C }
  - { offsetInCU: 0x35BEA, offset: 0x35BEA, size: 0x8, addend: 0x0, symName: __ZNSt7__cxx1112basic_stringIcSt11char_traitsIcESaIcEE12_Alloc_hiderC1EPcRKS3_, symObjAddr: 0x3214, symBinAddr: 0x100006584, symSize: 0x50 }
  - { offsetInCU: 0x35BF2, offset: 0x35BF2, size: 0x8, addend: 0x0, symName: __ZNSt7__cxx1112basic_stringIcSt11char_traitsIcESaIcEE12_M_constructEmc, symObjAddr: 0x3264, symBinAddr: 0x1000065D4, symSize: 0xB0 }
  - { offsetInCU: 0x35C50, offset: 0x35C50, size: 0x8, addend: 0x0, symName: __ZNSt7__cxx1112basic_stringIcSt11char_traitsIcESaIcEE13_M_local_dataEv, symObjAddr: 0x31F4, symBinAddr: 0x100006564, symSize: 0x20 }
  - { offsetInCU: 0x35C58, offset: 0x35C58, size: 0x8, addend: 0x0, symName: __ZNSt7__cxx1112basic_stringIcSt11char_traitsIcESaIcEE12_Alloc_hiderC1EPcRKS3_, symObjAddr: 0x3214, symBinAddr: 0x100006584, symSize: 0x50 }
  - { offsetInCU: 0x35CC9, offset: 0x35CC9, size: 0x8, addend: 0x0, symName: __ZNSt15__new_allocatorIcED2Ev, symObjAddr: 0x31E0, symBinAddr: 0x100006550, symSize: 0x14 }
  - { offsetInCU: 0x35CD1, offset: 0x35CD1, size: 0x8, addend: 0x0, symName: __ZNSt7__cxx1112basic_stringIcSt11char_traitsIcESaIcEE13_M_local_dataEv, symObjAddr: 0x31F4, symBinAddr: 0x100006564, symSize: 0x20 }
  - { offsetInCU: 0x35CF6, offset: 0x35CF6, size: 0x8, addend: 0x0, symName: __ZNKSt7__cxx1112basic_stringIcSt11char_traitsIcESaIcEE7_M_dataEv, symObjAddr: 0x31C8, symBinAddr: 0x100006538, symSize: 0x18 }
  - { offsetInCU: 0x35CFE, offset: 0x35CFE, size: 0x8, addend: 0x0, symName: __ZNSt15__new_allocatorIcED2Ev, symObjAddr: 0x31E0, symBinAddr: 0x100006550, symSize: 0x14 }
  - { offsetInCU: 0x35D27, offset: 0x35D27, size: 0x8, addend: 0x0, symName: __ZN9__gnu_cxx11char_traitsIcE2eqERKcS3_, symObjAddr: 0x3198, symBinAddr: 0x100006508, symSize: 0x30 }
  - { offsetInCU: 0x35D2F, offset: 0x35D2F, size: 0x8, addend: 0x0, symName: __ZNKSt7__cxx1112basic_stringIcSt11char_traitsIcESaIcEE7_M_dataEv, symObjAddr: 0x31C8, symBinAddr: 0x100006538, symSize: 0x18 }
  - { offsetInCU: 0x35E68, offset: 0x35E68, size: 0x8, addend: 0x0, symName: __ZN11__gnu_debugeqERKNS_14_Safe_iteratorINSt8__detail14_Node_iteratorISt4pairIKNSt7__cxx1112basic_stringIcSt11char_traitsIcESaIcEEExELb0ELb1EEENSt7__debug13unordered_mapIS9_xSt4hashIS9_ESt8equal_toIS9_ESaISB_EEESt20forward_iterator_tagEESO_, symObjAddr: 0x2EAC, symBinAddr: 0x10000621C, symSize: 0x2EC }
  - { offsetInCU: 0x35E70, offset: 0x35E70, size: 0x8, addend: 0x0, symName: __ZN9__gnu_cxx11char_traitsIcE2eqERKcS3_, symObjAddr: 0x3198, symBinAddr: 0x100006508, symSize: 0x30 }
  - { offsetInCU: 0x35E06, offset: 0x35E06, size: 0x8, addend: 0x0, symName: __ZNSt9__cxx199813unordered_mapINSt7__cxx1112basic_stringIcSt11char_traitsIcESaIcEEExSt4hashIS6_ESt8equal_toIS6_ESaISt4pairIKS6_xEEEixERSC_, symObjAddr: 0x2E88, symBinAddr: 0x1000061F8, symSize: 0x24 }
  - { offsetInCU: 0x35E0E, offset: 0x35E0E, size: 0x8, addend: 0x0, symName: __ZN11__gnu_debugeqERKNS_14_Safe_iteratorINSt8__detail14_Node_iteratorISt4pairIKNSt7__cxx1112basic_stringIcSt11char_traitsIcESaIcEEExELb0ELb1EEENSt7__debug13unordered_mapIS9_xSt4hashIS9_ESt8equal_toIS9_ESaISB_EEESt20forward_iterator_tagEESO_, symObjAddr: 0x2EAC, symBinAddr: 0x10000621C, symSize: 0x2EC }
  - { offsetInCU: 0x35F46, offset: 0x35F46, size: 0x8, addend: 0x0, symName: __ZN11__gnu_debugneERKNS_14_Safe_iteratorINSt8__detail14_Node_iteratorISt4pairIKNSt7__cxx1112basic_stringIcSt11char_traitsIcESaIcEEExELb0ELb1EEENSt7__debug13unordered_mapIS9_xSt4hashIS9_ESt8equal_toIS9_ESaISB_EEESt20forward_iterator_tagEESO_, symObjAddr: 0x2B9C, symBinAddr: 0x100005F0C, symSize: 0x2EC }
  - { offsetInCU: 0x35F4E, offset: 0x35F4E, size: 0x8, addend: 0x0, symName: __ZNSt9__cxx199813unordered_mapINSt7__cxx1112basic_stringIcSt11char_traitsIcESaIcEEExSt4hashIS6_ESt8equal_toIS6_ESaISt4pairIKS6_xEEEixERSC_, symObjAddr: 0x2E88, symBinAddr: 0x1000061F8, symSize: 0x24 }
  - { offsetInCU: 0x35EBB, offset: 0x35EBB, size: 0x8, addend: 0x0, symName: __ZNSt7__debug13unordered_mapINSt7__cxx1112basic_stringIcSt11char_traitsIcESaIcEEExSt4hashIS6_ESt8equal_toIS6_ESaISt4pairIKS6_xEEE3endEv, symObjAddr: 0x2B58, symBinAddr: 0x100005EC8, symSize: 0x44 }
  - { offsetInCU: 0x35EC3, offset: 0x35EC3, size: 0x8, addend: 0x0, symName: __ZN11__gnu_debugneERKNS_14_Safe_iteratorINSt8__detail14_Node_iteratorISt4pairIKNSt7__cxx1112basic_stringIcSt11char_traitsIcESaIcEEExELb0ELb1EEENSt7__debug13unordered_mapIS9_xSt4hashIS9_ESt8equal_toIS9_ESaISB_EEESt20forward_iterator_tagEESO_, symObjAddr: 0x2B9C, symBinAddr: 0x100005F0C, symSize: 0x2EC }
  - { offsetInCU: 0x35EEC, offset: 0x35EEC, size: 0x8, addend: 0x0, symName: __ZNSt7__debug13unordered_mapINSt7__cxx1112basic_stringIcSt11char_traitsIcESaIcEEExSt4hashIS6_ESt8equal_toIS6_ESaISt4pairIKS6_xEEE4findERSC_, symObjAddr: 0x2B0C, symBinAddr: 0x100005E7C, symSize: 0x4C }
  - { offsetInCU: 0x35EF4, offset: 0x35EF4, size: 0x8, addend: 0x0, symName: __ZNSt7__debug13unordered_mapINSt7__cxx1112basic_stringIcSt11char_traitsIcESaIcEEExSt4hashIS6_ESt8equal_toIS6_ESaISt4pairIKS6_xEEE3endEv, symObjAddr: 0x2B58, symBinAddr: 0x100005EC8, symSize: 0x44 }
  - { offsetInCU: 0x35F32, offset: 0x35F32, size: 0x8, addend: 0x0, symName: __ZNSt7__cxx1112basic_stringIcSt11char_traitsIcESaIcEEpLERKS4_, symObjAddr: 0x2AE8, symBinAddr: 0x100005E58, symSize: 0x24 }
  - { offsetInCU: 0x35F3A, offset: 0x35F3A, size: 0x8, addend: 0x0, symName: __ZNSt7__debug13unordered_mapINSt7__cxx1112basic_stringIcSt11char_traitsIcESaIcEEExSt4hashIS6_ESt8equal_toIS6_ESaISt4pairIKS6_xEEE4findERSC_, symObjAddr: 0x2B0C, symBinAddr: 0x100005E7C, symSize: 0x4C }
  - { offsetInCU: 0x35FCF, offset: 0x35FCF, size: 0x8, addend: 0x0, symName: __ZStplIcSt11char_traitsIcESaIcEENSt7__cxx1112basic_stringIT_T0_T1_EEOS8_PKS5_, symObjAddr: 0x2AA4, symBinAddr: 0x100005E14, symSize: 0x44 }
  - { offsetInCU: 0x35FD7, offset: 0x35FD7, size: 0x8, addend: 0x0, symName: __ZNSt7__cxx1112basic_stringIcSt11char_traitsIcESaIcEEpLERKS4_, symObjAddr: 0x2AE8, symBinAddr: 0x100005E58, symSize: 0x24 }
  - { offsetInCU: 0x35FF5, offset: 0x35FF5, size: 0x8, addend: 0x0, symName: __ZNK11__gnu_debug14_Safe_iteratorISt17_Rb_tree_iteratorISt4pairIKxxEENSt7__debug3mapIxxSt4lessIxESaIS4_EEESt20forward_iterator_tagEdeEv, symObjAddr: 0x29D0, symBinAddr: 0x100005D40, symSize: 0xD4 }
  - { offsetInCU: 0x35FFD, offset: 0x35FFD, size: 0x8, addend: 0x0, symName: __ZStplIcSt11char_traitsIcESaIcEENSt7__cxx1112basic_stringIT_T0_T1_EEOS8_PKS5_, symObjAddr: 0x2AA4, symBinAddr: 0x100005E14, symSize: 0x44 }
  - { offsetInCU: 0x3605E, offset: 0x3605E, size: 0x8, addend: 0x0, symName: __ZN11__gnu_debug14_Safe_iteratorISt17_Rb_tree_iteratorISt4pairIKxxEENSt7__debug3mapIxxSt4lessIxESaIS4_EEESt26bidirectional_iterator_tagEppEv, symObjAddr: 0x29B0, symBinAddr: 0x100005D20, symSize: 0x20 }
  - { offsetInCU: 0x36066, offset: 0x36066, size: 0x8, addend: 0x0, symName: __ZNK11__gnu_debug14_Safe_iteratorISt17_Rb_tree_iteratorISt4pairIKxxEENSt7__debug3mapIxxSt4lessIxESaIS4_EEESt20forward_iterator_tagEdeEv, symObjAddr: 0x29D0, symBinAddr: 0x100005D40, symSize: 0xD4 }
  - { offsetInCU: 0x3612D, offset: 0x3612D, size: 0x8, addend: 0x0, symName: __ZN11__gnu_debugneERKNS_14_Safe_iteratorISt17_Rb_tree_iteratorISt4pairIKxxEENSt7__debug3mapIxxSt4lessIxESaIS4_EEESt26bidirectional_iterator_tagEESF_, symObjAddr: 0x26C4, symBinAddr: 0x100005A34, symSize: 0x2EC }
  - { offsetInCU: 0x36135, offset: 0x36135, size: 0x8, addend: 0x0, symName: __ZN11__gnu_debug14_Safe_iteratorISt17_Rb_tree_iteratorISt4pairIKxxEENSt7__debug3mapIxxSt4lessIxESaIS4_EEESt26bidirectional_iterator_tagEppEv, symObjAddr: 0x29B0, symBinAddr: 0x100005D20, symSize: 0x20 }
  - { offsetInCU: 0x36127, offset: 0x36127, size: 0x8, addend: 0x0, symName: __ZNSt7__debug3mapIxxSt4lessIxESaISt4pairIKxxEEE5beginEv, symObjAddr: 0x2680, symBinAddr: 0x1000059F0, symSize: 0x44 }
  - { offsetInCU: 0x3612F, offset: 0x3612F, size: 0x8, addend: 0x0, symName: __ZN11__gnu_debugneERKNS_14_Safe_iteratorISt17_Rb_tree_iteratorISt4pairIKxxEENSt7__debug3mapIxxSt4lessIxESaIS4_EEESt26bidirectional_iterator_tagEESF_, symObjAddr: 0x26C4, symBinAddr: 0x100005A34, symSize: 0x2EC }
  - { offsetInCU: 0x36158, offset: 0x36158, size: 0x8, addend: 0x0, symName: __ZNSt9__cxx19983mapIxxSt4lessIxESaISt4pairIKxxEEEixERS4_, symObjAddr: 0x258C, symBinAddr: 0x1000058FC, symSize: 0xF4 }
  - { offsetInCU: 0x36160, offset: 0x36160, size: 0x8, addend: 0x0, symName: __ZNSt7__debug3mapIxxSt4lessIxESaISt4pairIKxxEEE5beginEv, symObjAddr: 0x2680, symBinAddr: 0x1000059F0, symSize: 0x44 }
  - { offsetInCU: 0x361B3, offset: 0x361B3, size: 0x8, addend: 0x0, symName: __ZNSt7__debug3mapIxxSt4lessIxESaISt4pairIKxxEEE6insertIS3_IxiEvEES3_IN11__gnu_debug14_Safe_iteratorISt17_Rb_tree_iteratorIS5_ES7_St26bidirectional_iterator_tagEEbEOT_, symObjAddr: 0x250C, symBinAddr: 0x10000587C, symSize: 0x80 }
  - { offsetInCU: 0x361BB, offset: 0x361BB, size: 0x8, addend: 0x0, symName: __ZNSt9__cxx19983mapIxxSt4lessIxESaISt4pairIKxxEEEixERS4_, symObjAddr: 0x258C, symBinAddr: 0x1000058FC, symSize: 0xF4 }
  - { offsetInCU: 0x362BE, offset: 0x362BE, size: 0x8, addend: 0x0, symName: __ZSt9make_pairIRxiESt4pairINSt25__strip_reference_wrapperINSt5decayIT_E4typeEE6__typeENS2_INS3_IT0_E4typeEE6__typeEEOS4_OS9_, symObjAddr: 0x24C0, symBinAddr: 0x100005830, symSize: 0x4C }
  - { offsetInCU: 0x362C6, offset: 0x362C6, size: 0x8, addend: 0x0, symName: __ZNSt7__debug3mapIxxSt4lessIxESaISt4pairIKxxEEE6insertIS3_IxiEvEES3_IN11__gnu_debug14_Safe_iteratorISt17_Rb_tree_iteratorIS5_ES7_St26bidirectional_iterator_tagEEbEOT_, symObjAddr: 0x250C, symBinAddr: 0x10000587C, symSize: 0x80 }
  - { offsetInCU: 0x3632B, offset: 0x3632B, size: 0x8, addend: 0x0, symName: __ZN11__gnu_debugeqERKNS_14_Safe_iteratorISt17_Rb_tree_iteratorISt4pairIKxxEENSt7__debug3mapIxxSt4lessIxESaIS4_EEESt26bidirectional_iterator_tagEESF_, symObjAddr: 0x21D4, symBinAddr: 0x100005544, symSize: 0x2EC }
  - { offsetInCU: 0x36333, offset: 0x36333, size: 0x8, addend: 0x0, symName: __ZSt9make_pairIRxiESt4pairINSt25__strip_reference_wrapperINSt5decayIT_E4typeEE6__typeENS2_INS3_IT0_E4typeEE6__typeEEOS4_OS9_, symObjAddr: 0x24C0, symBinAddr: 0x100005830, symSize: 0x4C }
  - { offsetInCU: 0x362FC, offset: 0x362FC, size: 0x8, addend: 0x0, symName: __ZNSt7__debug3mapIxxSt4lessIxESaISt4pairIKxxEEE3endEv, symObjAddr: 0x2190, symBinAddr: 0x100005500, symSize: 0x44 }
  - { offsetInCU: 0x36304, offset: 0x36304, size: 0x8, addend: 0x0, symName: __ZN11__gnu_debugeqERKNS_14_Safe_iteratorISt17_Rb_tree_iteratorISt4pairIKxxEENSt7__debug3mapIxxSt4lessIxESaIS4_EEESt26bidirectional_iterator_tagEESF_, symObjAddr: 0x21D4, symBinAddr: 0x100005544, symSize: 0x2EC }
  - { offsetInCU: 0x3632D, offset: 0x3632D, size: 0x8, addend: 0x0, symName: __ZNSt7__debug3mapIxxSt4lessIxESaISt4pairIKxxEEE4findERS4_, symObjAddr: 0x2144, symBinAddr: 0x1000054B4, symSize: 0x4C }
  - { offsetInCU: 0x36335, offset: 0x36335, size: 0x8, addend: 0x0, symName: __ZNSt7__debug3mapIxxSt4lessIxESaISt4pairIKxxEEE3endEv, symObjAddr: 0x2190, symBinAddr: 0x100005500, symSize: 0x44 }
  - { offsetInCU: 0x363E3, offset: 0x363E3, size: 0x8, addend: 0x0, symName: __ZNSt8_Rb_treeIxSt4pairIKxxESt10_Select1stIS2_ESt4lessIxESaIS2_EED1Ev, symObjAddr: 0x2110, symBinAddr: 0x100005480, symSize: 0x34 }
  - { offsetInCU: 0x363EB, offset: 0x363EB, size: 0x8, addend: 0x0, symName: __ZNSt7__debug3mapIxxSt4lessIxESaISt4pairIKxxEEE4findERS4_, symObjAddr: 0x2144, symBinAddr: 0x1000054B4, symSize: 0x4C }
  - { offsetInCU: 0x36470, offset: 0x36470, size: 0x8, addend: 0x0, symName: __ZNSt8_Rb_treeIxSt4pairIKxxESt10_Select1stIS2_ESt4lessIxESaIS2_EE13_Rb_tree_implIS6_Lb1EEC1Ev, symObjAddr: 0x20CC, symBinAddr: 0x10000543C, symSize: 0x44 }
  - { offsetInCU: 0x36478, offset: 0x36478, size: 0x8, addend: 0x0, symName: __ZNSt8_Rb_treeIxSt4pairIKxxESt10_Select1stIS2_ESt4lessIxESaIS2_EED1Ev, symObjAddr: 0x2110, symBinAddr: 0x100005480, symSize: 0x34 }
  - { offsetInCU: 0x365C7, offset: 0x365C7, size: 0x8, addend: 0x0, symName: __ZNSt10_HashtableINSt7__cxx1112basic_stringIcSt11char_traitsIcESaIcEEESt4pairIKS5_xESaIS8_ENSt8__detail10_Select1stESt8equal_toIS5_ESt4hashIS5_ENSA_18_Mod_range_hashingENSA_20_Default_ranged_hashENSA_20_Prime_rehash_policyENSA_17_Hashtable_traitsILb1ELb0ELb1EEEED1Ev, symObjAddr: 0x209C, symBinAddr: 0x10000540C, symSize: 0x30 }
  - { offsetInCU: 0x365CF, offset: 0x365CF, size: 0x8, addend: 0x0, symName: __ZNSt8_Rb_treeIxSt4pairIKxxESt10_Select1stIS2_ESt4lessIxESaIS2_EE13_Rb_tree_implIS6_Lb1EEC1Ev, symObjAddr: 0x20CC, symBinAddr: 0x10000543C, symSize: 0x44 }
  - { offsetInCU: 0x365BE, offset: 0x365BE, size: 0x8, addend: 0x0, symName: __ZNSt8__detail21_Hashtable_ebo_helperILi0ESaINS_10_Hash_nodeISt4pairIKNSt7__cxx1112basic_stringIcSt11char_traitsIcESaIcEEExELb1EEEELb1EEC2Ev, symObjAddr: 0x2070, symBinAddr: 0x1000053E0, symSize: 0x2C }
  - { offsetInCU: 0x365C6, offset: 0x365C6, size: 0x8, addend: 0x0, symName: __ZNSt10_HashtableINSt7__cxx1112basic_stringIcSt11char_traitsIcESaIcEEESt4pairIKS5_xESaIS8_ENSt8__detail10_Select1stESt8equal_toIS5_ESt4hashIS5_ENSA_18_Mod_range_hashingENSA_20_Default_ranged_hashENSA_20_Prime_rehash_policyENSA_17_Hashtable_traitsILb1ELb0ELb1EEEED1Ev, symObjAddr: 0x209C, symBinAddr: 0x10000540C, symSize: 0x30 }
  - { offsetInCU: 0x36641, offset: 0x36641, size: 0x8, addend: 0x0, symName: __ZNSt8__detail21_Hashtable_ebo_helperILi0ESt8equal_toINSt7__cxx1112basic_stringIcSt11char_traitsIcESaIcEEEELb1EEC2Ev, symObjAddr: 0x205C, symBinAddr: 0x1000053CC, symSize: 0x14 }
  - { offsetInCU: 0x36649, offset: 0x36649, size: 0x8, addend: 0x0, symName: __ZNSt8__detail21_Hashtable_ebo_helperILi0ESaINS_10_Hash_nodeISt4pairIKNSt7__cxx1112basic_stringIcSt11char_traitsIcESaIcEEExELb1EEEELb1EEC2Ev, symObjAddr: 0x2070, symBinAddr: 0x1000053E0, symSize: 0x2C }
  - { offsetInCU: 0x36688, offset: 0x36688, size: 0x8, addend: 0x0, symName: __ZNSt8__detail21_Hashtable_ebo_helperILi1ESt4hashINSt7__cxx1112basic_stringIcSt11char_traitsIcESaIcEEEELb1EEC2Ev, symObjAddr: 0x2048, symBinAddr: 0x1000053B8, symSize: 0x14 }
  - { offsetInCU: 0x36690, offset: 0x36690, size: 0x8, addend: 0x0, symName: __ZNSt8__detail21_Hashtable_ebo_helperILi0ESt8equal_toINSt7__cxx1112basic_stringIcSt11char_traitsIcESaIcEEEELb1EEC2Ev, symObjAddr: 0x205C, symBinAddr: 0x1000053CC, symSize: 0x14 }
  - { offsetInCU: 0x366B2, offset: 0x366B2, size: 0x8, addend: 0x0, symName: __ZNSt7__cxx1112basic_stringIcSt11char_traitsIcESaIcEEC1ERKS4_, symObjAddr: 0x1F5C, symBinAddr: 0x1000052CC, symSize: 0xEC }
  - { offsetInCU: 0x366BA, offset: 0x366BA, size: 0x8, addend: 0x0, symName: __ZNSt8__detail21_Hashtable_ebo_helperILi1ESt4hashINSt7__cxx1112basic_stringIcSt11char_traitsIcESaIcEEEELb1EEC2Ev, symObjAddr: 0x2048, symBinAddr: 0x1000053B8, symSize: 0x14 }
  - { offsetInCU: 0x36823, offset: 0x36823, size: 0x8, addend: 0x0, symName: __ZSt4moveIRNSt7__cxx1112basic_stringIcSt11char_traitsIcESaIcEEEEONSt16remove_referenceIT_E4typeEOS8_, symObjAddr: 0x1F48, symBinAddr: 0x1000052B8, symSize: 0x14 }
  - { offsetInCU: 0x3682B, offset: 0x3682B, size: 0x8, addend: 0x0, symName: __ZNSt7__cxx1112basic_stringIcSt11char_traitsIcESaIcEEC1ERKS4_, symObjAddr: 0x1F5C, symBinAddr: 0x1000052CC, symSize: 0xEC }
  - { offsetInCU: 0x36882, offset: 0x36882, size: 0x8, addend: 0x0, symName: __ZNSt7__cxx1112basic_stringIcSt11char_traitsIcESaIcEEC1IS3_EEPKcRKS3_, symObjAddr: 0x1EAC, symBinAddr: 0x10000521C, symSize: 0x9C }
  - { offsetInCU: 0x3688A, offset: 0x3688A, size: 0x8, addend: 0x0, symName: __ZSt4moveIRNSt7__cxx1112basic_stringIcSt11char_traitsIcESaIcEEEEONSt16remove_referenceIT_E4typeEOS8_, symObjAddr: 0x1F48, symBinAddr: 0x1000052B8, symSize: 0x14 }
  - { offsetInCU: 0x36918, offset: 0x36918, size: 0x8, addend: 0x0, symName: __ZStplIcSt11char_traitsIcESaIcEENSt7__cxx1112basic_stringIT_T0_T1_EEOS8_S9_, symObjAddr: 0x1DC4, symBinAddr: 0x100005134, symSize: 0xE8 }
  - { offsetInCU: 0x36920, offset: 0x36920, size: 0x8, addend: 0x0, symName: __ZNSt7__cxx1112basic_stringIcSt11char_traitsIcESaIcEEC1IS3_EEPKcRKS3_, symObjAddr: 0x1EAC, symBinAddr: 0x10000521C, symSize: 0x9C }
  - { offsetInCU: 0x369D5, offset: 0x369D5, size: 0x8, addend: 0x0, symName: __ZStplIcSt11char_traitsIcESaIcEENSt7__cxx1112basic_stringIT_T0_T1_EERKS8_PKS5_, symObjAddr: 0x1D18, symBinAddr: 0x100005088, symSize: 0xAC }
  - { offsetInCU: 0x369DD, offset: 0x369DD, size: 0x8, addend: 0x0, symName: __ZStplIcSt11char_traitsIcESaIcEENSt7__cxx1112basic_stringIT_T0_T1_EEOS8_S9_, symObjAddr: 0x1DC4, symBinAddr: 0x100005134, symSize: 0xE8 }
  - { offsetInCU: 0x36A9D, offset: 0x36A9D, size: 0x8, addend: 0x0, symName: __ZNSt8__detail18__to_chars_10_implIyEEvPcjT_, symObjAddr: 0x1B7C, symBinAddr: 0x100004EEC, symSize: 0x19C }
  - { offsetInCU: 0x36AA5, offset: 0x36AA5, size: 0x8, addend: 0x0, symName: __ZStplIcSt11char_traitsIcESaIcEENSt7__cxx1112basic_stringIT_T0_T1_EERKS8_PKS5_, symObjAddr: 0x1D18, symBinAddr: 0x100005088, symSize: 0xAC }
  - { offsetInCU: 0x36B8C, offset: 0x36B8C, size: 0x8, addend: 0x0, symName: __ZNSt8__detail14__to_chars_lenIyEEjT_i, symObjAddr: 0x1AA0, symBinAddr: 0x100004E10, symSize: 0xDC }
  - { offsetInCU: 0x36B94, offset: 0x36B94, size: 0x8, addend: 0x0, symName: __ZNSt8__detail18__to_chars_10_implIyEEvPcjT_, symObjAddr: 0x1B7C, symBinAddr: 0x100004EEC, symSize: 0x19C }
  - { offsetInCU: 0x36BE6, offset: 0x36BE6, size: 0x8, addend: 0x0, symName: __ZNKSt7__cxx1112basic_stringIcSt11char_traitsIcESaIcEE4sizeEv, symObjAddr: 0x1A88, symBinAddr: 0x100004DF8, symSize: 0x18 }
  - { offsetInCU: 0x36BEE, offset: 0x36BEE, size: 0x8, addend: 0x0, symName: __ZNSt8__detail14__to_chars_lenIyEEjT_i, symObjAddr: 0x1AA0, symBinAddr: 0x100004E10, symSize: 0xDC }
  - { offsetInCU: 0x36C81, offset: 0x36C81, size: 0x8, addend: 0x0, symName: __ZNSt7__cxx1112basic_stringIcSt11char_traitsIcESaIcEEC1EOS4_, symObjAddr: 0x1994, symBinAddr: 0x100004D04, symSize: 0xF4 }
  - { offsetInCU: 0x36C89, offset: 0x36C89, size: 0x8, addend: 0x0, symName: __ZNKSt7__cxx1112basic_stringIcSt11char_traitsIcESaIcEE4sizeEv, symObjAddr: 0x1A88, symBinAddr: 0x100004DF8, symSize: 0x18 }
  - { offsetInCU: 0x36C81, offset: 0x36C81, size: 0x8, addend: 0x0, symName: __ZNSt7__cxx1112basic_stringIcSt11char_traitsIcESaIcEEixEm, symObjAddr: 0x18E8, symBinAddr: 0x100004C58, symSize: 0xAC }
  - { offsetInCU: 0x36C89, offset: 0x36C89, size: 0x8, addend: 0x0, symName: __ZNSt7__cxx1112basic_stringIcSt11char_traitsIcESaIcEEC1EOS4_, symObjAddr: 0x1994, symBinAddr: 0x100004D04, symSize: 0xF4 }
  - { offsetInCU: 0x36D63, offset: 0x36D63, size: 0x8, addend: 0x0, symName: __ZNSt7__cxx1112basic_stringIcSt11char_traitsIcESaIcEED1Ev, symObjAddr: 0x18C0, symBinAddr: 0x100004C30, symSize: 0x28 }
  - { offsetInCU: 0x36D6B, offset: 0x36D6B, size: 0x8, addend: 0x0, symName: __ZNSt7__cxx1112basic_stringIcSt11char_traitsIcESaIcEEixEm, symObjAddr: 0x18E8, symBinAddr: 0x100004C58, symSize: 0xAC }
  - { offsetInCU: 0x36DEF, offset: 0x36DEF, size: 0x8, addend: 0x0, symName: __ZNSt7__cxx1112basic_stringIcSt11char_traitsIcESaIcEEC1IS3_EEmcRKS3_, symObjAddr: 0x1854, symBinAddr: 0x100004BC4, symSize: 0x6C }
  - { offsetInCU: 0x36DF7, offset: 0x36DF7, size: 0x8, addend: 0x0, symName: __ZNSt7__cxx1112basic_stringIcSt11char_traitsIcESaIcEED1Ev, symObjAddr: 0x18C0, symBinAddr: 0x100004C30, symSize: 0x28 }
  - { offsetInCU: 0x36E76, offset: 0x36E76, size: 0x8, addend: 0x0, symName: __ZNSt7__cxx1112basic_stringIcSt11char_traitsIcESaIcEE12_Alloc_hiderD1Ev, symObjAddr: 0x1828, symBinAddr: 0x100004B98, symSize: 0x2C }
  - { offsetInCU: 0x36E7E, offset: 0x36E7E, size: 0x8, addend: 0x0, symName: __ZNSt7__cxx1112basic_stringIcSt11char_traitsIcESaIcEEC1IS3_EEmcRKS3_, symObjAddr: 0x1854, symBinAddr: 0x100004BC4, symSize: 0x6C }
  - { offsetInCU: 0x36ECB, offset: 0x36ECB, size: 0x8, addend: 0x0, symName: __ZNKSt7__cxx1112basic_stringIcSt11char_traitsIcESaIcEE5c_strEv, symObjAddr: 0x180C, symBinAddr: 0x100004B7C, symSize: 0x1C }
  - { offsetInCU: 0x36ED3, offset: 0x36ED3, size: 0x8, addend: 0x0, symName: __ZNSt7__cxx1112basic_stringIcSt11char_traitsIcESaIcEE12_Alloc_hiderD1Ev, symObjAddr: 0x1828, symBinAddr: 0x100004B98, symSize: 0x2C }
  - { offsetInCU: 0x36EFC, offset: 0x36EFC, size: 0x8, addend: 0x0, symName: __ZN9__gnu_cxx11char_traitsIcE6lengthEPKc, symObjAddr: 0x17B0, symBinAddr: 0x100004B20, symSize: 0x5C }
  - { offsetInCU: 0x36F04, offset: 0x36F04, size: 0x8, addend: 0x0, symName: __ZNKSt7__cxx1112basic_stringIcSt11char_traitsIcESaIcEE5c_strEv, symObjAddr: 0x180C, symBinAddr: 0x100004B7C, symSize: 0x1C }
  - { offsetInCU: 0x36F4C, offset: 0x36F4C, size: 0x8, addend: 0x0, symName: _main, symObjAddr: 0x1200, symBinAddr: 0x100004570, symSize: 0x5B0 }
  - { offsetInCU: 0x36F54, offset: 0x36F54, size: 0x8, addend: 0x0, symName: __ZN9__gnu_cxx11char_traitsIcE6lengthEPKc, symObjAddr: 0x17B0, symBinAddr: 0x100004B20, symSize: 0x5C }
  - { offsetInCU: 0x372E1, offset: 0x372E1, size: 0x8, addend: 0x0, symName: __ZN11__gnu_debug14_Safe_iteratorINSt8__detail14_Node_iteratorISt4pairIKNSt7__cxx1112basic_stringIcSt11char_traitsIcESaIcEEExELb0ELb1EEENSt7__debug13unordered_mapIS9_xSt4hashIS9_ESt8equal_toIS9_ESaISB_EEESt20forward_iterator_tagED1Ev, symObjAddr: 0x11DC, symBinAddr: 0x10000454C, symSize: 0x24 }
  - { offsetInCU: 0x372E9, offset: 0x372E9, size: 0x8, addend: 0x0, symName: _main, symObjAddr: 0x1200, symBinAddr: 0x100004570, symSize: 0x5B0 }
  - { offsetInCU: 0x37247, offset: 0x37247, size: 0x8, addend: 0x0, symName: __Z10isPowerOfKx, symObjAddr: 0x1160, symBinAddr: 0x1000044D0, symSize: 0x7C }
  - { offsetInCU: 0x3724F, offset: 0x3724F, size: 0x8, addend: 0x0, symName: __ZN11__gnu_debug14_Safe_iteratorINSt8__detail14_Node_iteratorISt4pairIKNSt7__cxx1112basic_stringIcSt11char_traitsIcESaIcEEExELb0ELb1EEENSt7__debug13unordered_mapIS9_xSt4hashIS9_ESt8equal_toIS9_ESaISB_EEESt20forward_iterator_tagED1Ev, symObjAddr: 0x11DC, symBinAddr: 0x10000454C, symSize: 0x24 }
  - { offsetInCU: 0x37290, offset: 0x37290, size: 0x8, addend: 0x0, symName: __Z6factorx, symObjAddr: 0xFD4, symBinAddr: 0x100004344, symSize: 0x18C }
  - { offsetInCU: 0x37298, offset: 0x37298, size: 0x8, addend: 0x0, symName: __Z10isPowerOfKx, symObjAddr: 0x1160, symBinAddr: 0x1000044D0, symSize: 0x7C }
  - { offsetInCU: 0x373B5, offset: 0x373B5, size: 0x8, addend: 0x0, symName: __ZNSt4pairIN11__gnu_debug14_Safe_iteratorISt17_Rb_tree_iteratorIS_IKxxEENSt7__debug3mapIxxSt4lessIxESaIS4_EEESt26bidirectional_iterator_tagEEbED1Ev, symObjAddr: 0xFB4, symBinAddr: 0x100004324, symSize: 0x20 }
  - { offsetInCU: 0x373BD, offset: 0x373BD, size: 0x8, addend: 0x0, symName: __Z6factorx, symObjAddr: 0xFD4, symBinAddr: 0x100004344, symSize: 0x18C }
  - { offsetInCU: 0x3740C, offset: 0x3740C, size: 0x8, addend: 0x0, symName: __ZN11__gnu_debug14_Safe_iteratorISt17_Rb_tree_iteratorISt4pairIKxxEENSt7__debug3mapIxxSt4lessIxESaIS4_EEESt26bidirectional_iterator_tagED1Ev, symObjAddr: 0xF94, symBinAddr: 0x100004304, symSize: 0x20 }
  - { offsetInCU: 0x37414, offset: 0x37414, size: 0x8, addend: 0x0, symName: __ZNSt4pairIN11__gnu_debug14_Safe_iteratorISt17_Rb_tree_iteratorIS_IKxxEENSt7__debug3mapIxxSt4lessIxESaIS4_EEESt26bidirectional_iterator_tagEEbED1Ev, symObjAddr: 0xFB4, symBinAddr: 0x100004324, symSize: 0x20 }
  - { offsetInCU: 0x37463, offset: 0x37463, size: 0x8, addend: 0x0, symName: __ZN11__gnu_debug14_Safe_iteratorISt17_Rb_tree_iteratorISt4pairIKxxEENSt7__debug3mapIxxSt4lessIxESaIS4_EEESt20forward_iterator_tagED2Ev, symObjAddr: 0xF70, symBinAddr: 0x1000042E0, symSize: 0x24 }
  - { offsetInCU: 0x3746B, offset: 0x3746B, size: 0x8, addend: 0x0, symName: __ZN11__gnu_debug14_Safe_iteratorISt17_Rb_tree_iteratorISt4pairIKxxEENSt7__debug3mapIxxSt4lessIxESaIS4_EEESt26bidirectional_iterator_tagED1Ev, symObjAddr: 0xF94, symBinAddr: 0x100004304, symSize: 0x20 }
  - { offsetInCU: 0x3746A, offset: 0x3746A, size: 0x8, addend: 0x0, symName: __ZNSt7__debug3mapIxxSt4lessIxESaISt4pairIKxxEEED1Ev, symObjAddr: 0xF44, symBinAddr: 0x1000042B4, symSize: 0x2C }
  - { offsetInCU: 0x37472, offset: 0x37472, size: 0x8, addend: 0x0, symName: __ZN11__gnu_debug14_Safe_iteratorISt17_Rb_tree_iteratorISt4pairIKxxEENSt7__debug3mapIxxSt4lessIxESaIS4_EEESt20forward_iterator_tagED2Ev, symObjAddr: 0xF70, symBinAddr: 0x1000042E0, symSize: 0x24 }
  - { offsetInCU: 0x374B5, offset: 0x374B5, size: 0x8, addend: 0x0, symName: __ZNSt7__debug3mapIxxSt4lessIxESaISt4pairIKxxEEEC1Ev, symObjAddr: 0xF18, symBinAddr: 0x100004288, symSize: 0x2C }
  - { offsetInCU: 0x374BD, offset: 0x374BD, size: 0x8, addend: 0x0, symName: __ZNSt7__debug3mapIxxSt4lessIxESaISt4pairIKxxEEED1Ev, symObjAddr: 0xF44, symBinAddr: 0x1000042B4, symSize: 0x2C }
  - { offsetInCU: 0x37511, offset: 0x37511, size: 0x8, addend: 0x0, symName: __ZNSt9__cxx19983mapIxxSt4lessIxESaISt4pairIKxxEEED2Ev, symObjAddr: 0xEF8, symBinAddr: 0x100004268, symSize: 0x20 }
  - { offsetInCU: 0x37519, offset: 0x37519, size: 0x8, addend: 0x0, symName: __ZNSt7__debug3mapIxxSt4lessIxESaISt4pairIKxxEEEC1Ev, symObjAddr: 0xF18, symBinAddr: 0x100004288, symSize: 0x2C }
  - { offsetInCU: 0x3755C, offset: 0x3755C, size: 0x8, addend: 0x0, symName: __ZNSt9__cxx19983mapIxxSt4lessIxESaISt4pairIKxxEEEC2Ev, symObjAddr: 0xED8, symBinAddr: 0x100004248, symSize: 0x20 }
  - { offsetInCU: 0x37564, offset: 0x37564, size: 0x8, addend: 0x0, symName: __ZNSt9__cxx19983mapIxxSt4lessIxESaISt4pairIKxxEEED2Ev, symObjAddr: 0xEF8, symBinAddr: 0x100004268, symSize: 0x20 }
  - { offsetInCU: 0x375B7, offset: 0x375B7, size: 0x8, addend: 0x0, symName: __ZNSt8_Rb_treeIxSt4pairIKxxESt10_Select1stIS2_ESt4lessIxESaIS2_EEC1Ev, symObjAddr: 0xEB8, symBinAddr: 0x100004228, symSize: 0x20 }
  - { offsetInCU: 0x375BF, offset: 0x375BF, size: 0x8, addend: 0x0, symName: __ZNSt9__cxx19983mapIxxSt4lessIxESaISt4pairIKxxEEEC2Ev, symObjAddr: 0xED8, symBinAddr: 0x100004248, symSize: 0x20 }
  - { offsetInCU: 0x3762D, offset: 0x3762D, size: 0x8, addend: 0x0, symName: __ZNSt8_Rb_treeIxSt4pairIKxxESt10_Select1stIS2_ESt4lessIxESaIS2_EE13_Rb_tree_implIS6_Lb1EED1Ev, symObjAddr: 0xE8C, symBinAddr: 0x1000041FC, symSize: 0x2C }
  - { offsetInCU: 0x37635, offset: 0x37635, size: 0x8, addend: 0x0, symName: __ZNSt8_Rb_treeIxSt4pairIKxxESt10_Select1stIS2_ESt4lessIxESaIS2_EEC1Ev, symObjAddr: 0xEB8, symBinAddr: 0x100004228, symSize: 0x20 }
  - { offsetInCU: 0x376CA, offset: 0x376CA, size: 0x8, addend: 0x0, symName: __ZN11__gnu_debug15_Safe_containerINSt7__debug3mapIxxSt4lessIxESaISt4pairIKxxEEEES8_NS_19_Safe_node_sequenceELb1EED2Ev, symObjAddr: 0xE6C, symBinAddr: 0x1000041DC, symSize: 0x20 }
  - { offsetInCU: 0x376D2, offset: 0x376D2, size: 0x8, addend: 0x0, symName: __ZNSt8_Rb_treeIxSt4pairIKxxESt10_Select1stIS2_ESt4lessIxESaIS2_EE13_Rb_tree_implIS6_Lb1EED1Ev, symObjAddr: 0xE8C, symBinAddr: 0x1000041FC, symSize: 0x2C }
  - { offsetInCU: 0x37715, offset: 0x37715, size: 0x8, addend: 0x0, symName: __ZN11__gnu_debug15_Safe_containerINSt7__debug3mapIxxSt4lessIxESaISt4pairIKxxEEEES8_NS_19_Safe_node_sequenceELb1EEC2Ev, symObjAddr: 0xE4C, symBinAddr: 0x1000041BC, symSize: 0x20 }
  - { offsetInCU: 0x3771D, offset: 0x3771D, size: 0x8, addend: 0x0, symName: __ZN11__gnu_debug15_Safe_containerINSt7__debug3mapIxxSt4lessIxESaISt4pairIKxxEEEES8_NS_19_Safe_node_sequenceELb1EED2Ev, symObjAddr: 0xE6C, symBinAddr: 0x1000041DC, symSize: 0x20 }
  - { offsetInCU: 0x37756, offset: 0x37756, size: 0x8, addend: 0x0, symName: __ZN11__gnu_debug19_Safe_node_sequenceINSt7__debug3mapIxxSt4lessIxESaISt4pairIKxxEEEEED2Ev, symObjAddr: 0xE2C, symBinAddr: 0x10000419C, symSize: 0x20 }
  - { offsetInCU: 0x3775E, offset: 0x3775E, size: 0x8, addend: 0x0, symName: __ZN11__gnu_debug15_Safe_containerINSt7__debug3mapIxxSt4lessIxESaISt4pairIKxxEEEES8_NS_19_Safe_node_sequenceELb1EEC2Ev, symObjAddr: 0xE4C, symBinAddr: 0x1000041BC, symSize: 0x20 }
  - { offsetInCU: 0x377A4, offset: 0x377A4, size: 0x8, addend: 0x0, symName: __ZN11__gnu_debug19_Safe_node_sequenceINSt7__debug3mapIxxSt4lessIxESaISt4pairIKxxEEEEEC2Ev, symObjAddr: 0xE0C, symBinAddr: 0x10000417C, symSize: 0x20 }
  - { offsetInCU: 0x377AC, offset: 0x377AC, size: 0x8, addend: 0x0, symName: __ZN11__gnu_debug19_Safe_node_sequenceINSt7__debug3mapIxxSt4lessIxESaISt4pairIKxxEEEEED2Ev, symObjAddr: 0xE2C, symBinAddr: 0x10000419C, symSize: 0x20 }
  - { offsetInCU: 0x3780F, offset: 0x3780F, size: 0x8, addend: 0x0, symName: __ZN11__gnu_debug14_Safe_sequenceINSt7__debug3mapIxxSt4lessIxESaISt4pairIKxxEEEEED2Ev, symObjAddr: 0xDEC, symBinAddr: 0x10000415C, symSize: 0x20 }
  - { offsetInCU: 0x37817, offset: 0x37817, size: 0x8, addend: 0x0, symName: __ZN11__gnu_debug19_Safe_node_sequenceINSt7__debug3mapIxxSt4lessIxESaISt4pairIKxxEEEEEC2Ev, symObjAddr: 0xE0C, symBinAddr: 0x10000417C, symSize: 0x20 }
  - { offsetInCU: 0x3785D, offset: 0x3785D, size: 0x8, addend: 0x0, symName: __ZN11__gnu_debug14_Safe_sequenceINSt7__debug3mapIxxSt4lessIxESaISt4pairIKxxEEEEEC2Ev, symObjAddr: 0xDCC, symBinAddr: 0x10000413C, symSize: 0x20 }
  - { offsetInCU: 0x37865, offset: 0x37865, size: 0x8, addend: 0x0, symName: __ZN11__gnu_debug14_Safe_sequenceINSt7__debug3mapIxxSt4lessIxESaISt4pairIKxxEEEEED2Ev, symObjAddr: 0xDEC, symBinAddr: 0x10000415C, symSize: 0x20 }
  - { offsetInCU: 0x378D9, offset: 0x378D9, size: 0x8, addend: 0x0, symName: __ZNSt7__debug13unordered_mapINSt7__cxx1112basic_stringIcSt11char_traitsIcESaIcEEExSt4hashIS6_ESt8equal_toIS6_ESaISt4pairIKS6_xEEEC1Ev, symObjAddr: 0xDA0, symBinAddr: 0x100004110, symSize: 0x2C }
  - { offsetInCU: 0x378E1, offset: 0x378E1, size: 0x8, addend: 0x0, symName: __ZN11__gnu_debug14_Safe_sequenceINSt7__debug3mapIxxSt4lessIxESaISt4pairIKxxEEEEEC2Ev, symObjAddr: 0xDCC, symBinAddr: 0x10000413C, symSize: 0x20 }
  - { offsetInCU: 0x37938, offset: 0x37938, size: 0x8, addend: 0x0, symName: __ZNSt9__cxx199813unordered_mapINSt7__cxx1112basic_stringIcSt11char_traitsIcESaIcEEExSt4hashIS6_ESt8equal_toIS6_ESaISt4pairIKS6_xEEED2Ev, symObjAddr: 0xD80, symBinAddr: 0x1000040F0, symSize: 0x20 }
  - { offsetInCU: 0x37940, offset: 0x37940, size: 0x8, addend: 0x0, symName: __ZNSt7__debug13unordered_mapINSt7__cxx1112basic_stringIcSt11char_traitsIcESaIcEEExSt4hashIS6_ESt8equal_toIS6_ESaISt4pairIKS6_xEEEC1Ev, symObjAddr: 0xDA0, symBinAddr: 0x100004110, symSize: 0x2C }
  - { offsetInCU: 0x37983, offset: 0x37983, size: 0x8, addend: 0x0, symName: __ZNSt9__cxx199813unordered_mapINSt7__cxx1112basic_stringIcSt11char_traitsIcESaIcEEExSt4hashIS6_ESt8equal_toIS6_ESaISt4pairIKS6_xEEEC2Ev, symObjAddr: 0xD60, symBinAddr: 0x1000040D0, symSize: 0x20 }
  - { offsetInCU: 0x3798B, offset: 0x3798B, size: 0x8, addend: 0x0, symName: __ZNSt9__cxx199813unordered_mapINSt7__cxx1112basic_stringIcSt11char_traitsIcESaIcEEExSt4hashIS6_ESt8equal_toIS6_ESaISt4pairIKS6_xEEED2Ev, symObjAddr: 0xD80, symBinAddr: 0x1000040F0, symSize: 0x20 }
  - { offsetInCU: 0x37A51, offset: 0x37A51, size: 0x8, addend: 0x0, symName: __ZNSt10_HashtableINSt7__cxx1112basic_stringIcSt11char_traitsIcESaIcEEESt4pairIKS5_xESaIS8_ENSt8__detail10_Select1stESt8equal_toIS5_ESt4hashIS5_ENSA_18_Mod_range_hashingENSA_20_Default_ranged_hashENSA_20_Prime_rehash_policyENSA_17_Hashtable_traitsILb1ELb0ELb1EEEEC1Ev, symObjAddr: 0xCF0, symBinAddr: 0x100004060, symSize: 0x70 }
  - { offsetInCU: 0x37A59, offset: 0x37A59, size: 0x8, addend: 0x0, symName: __ZNSt9__cxx199813unordered_mapINSt7__cxx1112basic_stringIcSt11char_traitsIcESaIcEEExSt4hashIS6_ESt8equal_toIS6_ESaISt4pairIKS6_xEEEC2Ev, symObjAddr: 0xD60, symBinAddr: 0x1000040D0, symSize: 0x20 }
  - { offsetInCU: 0x37A24, offset: 0x37A24, size: 0x8, addend: 0x0, symName: __ZNSt8__detail16_Hashtable_allocISaINS_10_Hash_nodeISt4pairIKNSt7__cxx1112basic_stringIcSt11char_traitsIcESaIcEEExELb1EEEEED2Ev, symObjAddr: 0xCD0, symBinAddr: 0x100004040, symSize: 0x20 }
  - { offsetInCU: 0x37A2C, offset: 0x37A2C, size: 0x8, addend: 0x0, symName: __ZNSt10_HashtableINSt7__cxx1112basic_stringIcSt11char_traitsIcESaIcEEESt4pairIKS5_xESaIS8_ENSt8__detail10_Select1stESt8equal_toIS5_ESt4hashIS5_ENSA_18_Mod_range_hashingENSA_20_Default_ranged_hashENSA_20_Prime_rehash_policyENSA_17_Hashtable_traitsILb1ELb0ELb1EEEEC1Ev, symObjAddr: 0xCF0, symBinAddr: 0x100004060, symSize: 0x70 }
  - { offsetInCU: 0x37A6F, offset: 0x37A6F, size: 0x8, addend: 0x0, symName: __ZNSt8__detail16_Hashtable_allocISaINS_10_Hash_nodeISt4pairIKNSt7__cxx1112basic_stringIcSt11char_traitsIcESaIcEEExELb1EEEEEC2Ev, symObjAddr: 0xCB0, symBinAddr: 0x100004020, symSize: 0x20 }
  - { offsetInCU: 0x37A77, offset: 0x37A77, size: 0x8, addend: 0x0, symName: __ZNSt8__detail16_Hashtable_allocISaINS_10_Hash_nodeISt4pairIKNSt7__cxx1112basic_stringIcSt11char_traitsIcESaIcEEExELb1EEEEED2Ev, symObjAddr: 0xCD0, symBinAddr: 0x100004040, symSize: 0x20 }
  - { offsetInCU: 0x37ADA, offset: 0x37ADA, size: 0x8, addend: 0x0, symName: __ZNSt8__detail21_Hashtable_ebo_helperILi0ESaINS_10_Hash_nodeISt4pairIKNSt7__cxx1112basic_stringIcSt11char_traitsIcESaIcEEExELb1EEEELb1EED2Ev, symObjAddr: 0xC84, symBinAddr: 0x100003FF4, symSize: 0x2C }
  - { offsetInCU: 0x37AE2, offset: 0x37AE2, size: 0x8, addend: 0x0, symName: __ZNSt8__detail16_Hashtable_allocISaINS_10_Hash_nodeISt4pairIKNSt7__cxx1112basic_stringIcSt11char_traitsIcESaIcEEExELb1EEEEEC2Ev, symObjAddr: 0xCB0, symBinAddr: 0x100004020, symSize: 0x20 }
  - { offsetInCU: 0x37BAB, offset: 0x37BAB, size: 0x8, addend: 0x0, symName: __ZNSt8__detail15_Hashtable_baseINSt7__cxx1112basic_stringIcSt11char_traitsIcESaIcEEESt4pairIKS6_xENS_10_Select1stESt8equal_toIS6_ESt4hashIS6_ENS_18_Mod_range_hashingENS_20_Default_ranged_hashENS_17_Hashtable_traitsILb1ELb0ELb1EEEEC2Ev, symObjAddr: 0xC5C, symBinAddr: 0x100003FCC, symSize: 0x28 }
  - { offsetInCU: 0x37BB3, offset: 0x37BB3, size: 0x8, addend: 0x0, symName: __ZNSt8__detail21_Hashtable_ebo_helperILi0ESaINS_10_Hash_nodeISt4pairIKNSt7__cxx1112basic_stringIcSt11char_traitsIcESaIcEEExELb1EEEELb1EED2Ev, symObjAddr: 0xC84, symBinAddr: 0x100003FF4, symSize: 0x2C }
  - { offsetInCU: 0x37BC5, offset: 0x37BC5, size: 0x8, addend: 0x0, symName: __ZNSt8__detail15_Hash_code_baseINSt7__cxx1112basic_stringIcSt11char_traitsIcESaIcEEESt4pairIKS6_xENS_10_Select1stESt4hashIS6_ENS_18_Mod_range_hashingENS_20_Default_ranged_hashELb1EEC2Ev, symObjAddr: 0xC3C, symBinAddr: 0x100003FAC, symSize: 0x20 }
  - { offsetInCU: 0x37BCD, offset: 0x37BCD, size: 0x8, addend: 0x0, symName: __ZNSt8__detail15_Hashtable_baseINSt7__cxx1112basic_stringIcSt11char_traitsIcESaIcEEESt4pairIKS6_xENS_10_Select1stESt8equal_toIS6_ESt4hashIS6_ENS_18_Mod_range_hashingENS_20_Default_ranged_hashENS_17_Hashtable_traitsILb1ELb0ELb1EEEEC2Ev, symObjAddr: 0xC5C, symBinAddr: 0x100003FCC, symSize: 0x28 }
  - { offsetInCU: 0x37C36, offset: 0x37C36, size: 0x8, addend: 0x0, symName: __ZN11__gnu_debug15_Safe_containerINSt7__debug13unordered_mapINSt7__cxx1112basic_stringIcSt11char_traitsIcESaIcEEExSt4hashIS8_ESt8equal_toIS8_ESaISt4pairIKS8_xEEEESG_NS_25_Safe_unordered_containerELb1EED2Ev, symObjAddr: 0xC1C, symBinAddr: 0x100003F8C, symSize: 0x20 }
  - { offsetInCU: 0x37C3E, offset: 0x37C3E, size: 0x8, addend: 0x0, symName: __ZNSt8__detail15_Hash_code_baseINSt7__cxx1112basic_stringIcSt11char_traitsIcESaIcEEESt4pairIKS6_xENS_10_Select1stESt4hashIS6_ENS_18_Mod_range_hashingENS_20_Default_ranged_hashELb1EEC2Ev, symObjAddr: 0xC3C, symBinAddr: 0x100003FAC, symSize: 0x20 }
  - { offsetInCU: 0x37C81, offset: 0x37C81, size: 0x8, addend: 0x0, symName: __ZN11__gnu_debug15_Safe_containerINSt7__debug13unordered_mapINSt7__cxx1112basic_stringIcSt11char_traitsIcESaIcEEExSt4hashIS8_ESt8equal_toIS8_ESaISt4pairIKS8_xEEEESG_NS_25_Safe_unordered_containerELb1EEC2Ev, symObjAddr: 0xBFC, symBinAddr: 0x100003F6C, symSize: 0x20 }
  - { offsetInCU: 0x37C89, offset: 0x37C89, size: 0x8, addend: 0x0, symName: __ZN11__gnu_debug15_Safe_containerINSt7__debug13unordered_mapINSt7__cxx1112basic_stringIcSt11char_traitsIcESaIcEEExSt4hashIS8_ESt8equal_toIS8_ESaISt4pairIKS8_xEEEESG_NS_25_Safe_unordered_containerELb1EED2Ev, symObjAddr: 0xC1C, symBinAddr: 0x100003F8C, symSize: 0x20 }
  - { offsetInCU: 0x37CC2, offset: 0x37CC2, size: 0x8, addend: 0x0, symName: __ZN11__gnu_debug25_Safe_unordered_containerINSt7__debug13unordered_mapINSt7__cxx1112basic_stringIcSt11char_traitsIcESaIcEEExSt4hashIS8_ESt8equal_toIS8_ESaISt4pairIKS8_xEEEEED2Ev, symObjAddr: 0xBDC, symBinAddr: 0x100003F4C, symSize: 0x20 }
  - { offsetInCU: 0x37CCA, offset: 0x37CCA, size: 0x8, addend: 0x0, symName: __ZN11__gnu_debug15_Safe_containerINSt7__debug13unordered_mapINSt7__cxx1112basic_stringIcSt11char_traitsIcESaIcEEExSt4hashIS8_ESt8equal_toIS8_ESaISt4pairIKS8_xEEEESG_NS_25_Safe_unordered_containerELb1EEC2Ev, symObjAddr: 0xBFC, symBinAddr: 0x100003F6C, symSize: 0x20 }
  - { offsetInCU: 0x37D10, offset: 0x37D10, size: 0x8, addend: 0x0, symName: __ZN11__gnu_debug25_Safe_unordered_containerINSt7__debug13unordered_mapINSt7__cxx1112basic_stringIcSt11char_traitsIcESaIcEEExSt4hashIS8_ESt8equal_toIS8_ESaISt4pairIKS8_xEEEEEC2Ev, symObjAddr: 0xBBC, symBinAddr: 0x100003F2C, symSize: 0x20 }
  - { offsetInCU: 0x37D18, offset: 0x37D18, size: 0x8, addend: 0x0, symName: __ZN11__gnu_debug25_Safe_unordered_containerINSt7__debug13unordered_mapINSt7__cxx1112basic_stringIcSt11char_traitsIcESaIcEEExSt4hashIS8_ESt8equal_toIS8_ESaISt4pairIKS8_xEEEEED2Ev, symObjAddr: 0xBDC, symBinAddr: 0x100003F4C, symSize: 0x20 }
  - { offsetInCU: 0x37CD2, offset: 0x37CD2, size: 0x8, addend: 0x0, symName: __Z5setIONSt7__cxx1112basic_stringIcSt11char_traitsIcESaIcEEE, symObjAddr: 0xB20, symBinAddr: 0x100003E90, symSize: 0x9C }
  - { offsetInCU: 0x37CDA, offset: 0x37CDA, size: 0x8, addend: 0x0, symName: __ZN11__gnu_debug25_Safe_unordered_containerINSt7__debug13unordered_mapINSt7__cxx1112basic_stringIcSt11char_traitsIcESaIcEEExSt4hashIS8_ESt8equal_toIS8_ESaISt4pairIKS8_xEEEEEC2Ev, symObjAddr: 0xBBC, symBinAddr: 0x100003F2C, symSize: 0x20 }
  - { offsetInCU: 0x37CC6, offset: 0x37CC6, size: 0x8, addend: 0x0, symName: __ZNSt15_Rb_tree_header8_M_resetEv, symObjAddr: 0xAE4, symBinAddr: 0x100003E54, symSize: 0x3C }
  - { offsetInCU: 0x37CCE, offset: 0x37CCE, size: 0x8, addend: 0x0, symName: __Z5setIONSt7__cxx1112basic_stringIcSt11char_traitsIcESaIcEEE, symObjAddr: 0xB20, symBinAddr: 0x100003E90, symSize: 0x9C }
  - { offsetInCU: 0x37D2D, offset: 0x37D2D, size: 0x8, addend: 0x0, symName: __ZNSt15_Rb_tree_headerC2Ev, symObjAddr: 0xABC, symBinAddr: 0x100003E2C, symSize: 0x28 }
  - { offsetInCU: 0x37D35, offset: 0x37D35, size: 0x8, addend: 0x0, symName: __ZNSt15_Rb_tree_header8_M_resetEv, symObjAddr: 0xAE4, symBinAddr: 0x100003E54, symSize: 0x3C }
  - { offsetInCU: 0x37DA1, offset: 0x37DA1, size: 0x8, addend: 0x0, symName: __ZN11__gnu_debug30_Safe_unordered_container_baseD2Ev, symObjAddr: 0xA94, symBinAddr: 0x100003E04, symSize: 0x28 }
  - { offsetInCU: 0x37DA9, offset: 0x37DA9, size: 0x8, addend: 0x0, symName: __ZNSt15_Rb_tree_headerC2Ev, symObjAddr: 0xABC, symBinAddr: 0x100003E2C, symSize: 0x28 }
  - { offsetInCU: 0x37DEC, offset: 0x37DEC, size: 0x8, addend: 0x0, symName: __ZN11__gnu_debug30_Safe_unordered_container_baseC2Ev, symObjAddr: 0xA64, symBinAddr: 0x100003DD4, symSize: 0x30 }
  - { offsetInCU: 0x37DF4, offset: 0x37DF4, size: 0x8, addend: 0x0, symName: __ZN11__gnu_debug30_Safe_unordered_container_baseD2Ev, symObjAddr: 0xA94, symBinAddr: 0x100003E04, symSize: 0x28 }
  - { offsetInCU: 0x37DE7, offset: 0x37DE7, size: 0x8, addend: 0x0, symName: __ZNSt8__detail20_Prime_rehash_policy8_M_resetEm, symObjAddr: 0xA40, symBinAddr: 0x100003DB0, symSize: 0x24 }
  - { offsetInCU: 0x37DEF, offset: 0x37DEF, size: 0x8, addend: 0x0, symName: __ZN11__gnu_debug30_Safe_unordered_container_baseC2Ev, symObjAddr: 0xA64, symBinAddr: 0x100003DD4, symSize: 0x30 }
  - { offsetInCU: 0x37E2D, offset: 0x37E2D, size: 0x8, addend: 0x0, symName: __ZNKSt8__detail20_Prime_rehash_policy8_M_stateEv, symObjAddr: 0xA28, symBinAddr: 0x100003D98, symSize: 0x18 }
  - { offsetInCU: 0x37E35, offset: 0x37E35, size: 0x8, addend: 0x0, symName: __ZNSt8__detail20_Prime_rehash_policy8_M_resetEm, symObjAddr: 0xA40, symBinAddr: 0x100003DB0, symSize: 0x24 }
  - { offsetInCU: 0x37EB4, offset: 0x37EB4, size: 0x8, addend: 0x0, symName: __ZNSt8__detail20_Prime_rehash_policyC1Ef, symObjAddr: 0x9FC, symBinAddr: 0x100003D6C, symSize: 0x2C }
  - { offsetInCU: 0x37EBC, offset: 0x37EBC, size: 0x8, addend: 0x0, symName: __ZNKSt8__detail20_Prime_rehash_policy8_M_stateEv, symObjAddr: 0xA28, symBinAddr: 0x100003D98, symSize: 0x18 }
  - { offsetInCU: 0x37EC8, offset: 0x37EC8, size: 0x8, addend: 0x0, symName: __ZNKSt8__detail18_Mod_range_hashingclEmm, symObjAddr: 0x9CC, symBinAddr: 0x100003D3C, symSize: 0x30 }
  - { offsetInCU: 0x37ED0, offset: 0x37ED0, size: 0x8, addend: 0x0, symName: __ZNSt8__detail20_Prime_rehash_policyC1Ef, symObjAddr: 0x9FC, symBinAddr: 0x100003D6C, symSize: 0x2C }
  - { offsetInCU: 0x37F62, offset: 0x37F62, size: 0x8, addend: 0x0, symName: __ZNSt8__detail15_Hash_node_baseC1Ev, symObjAddr: 0x9B0, symBinAddr: 0x100003D20, symSize: 0x1C }
  - { offsetInCU: 0x37F6A, offset: 0x37F6A, size: 0x8, addend: 0x0, symName: __ZNKSt8__detail18_Mod_range_hashingclEmm, symObjAddr: 0x9CC, symBinAddr: 0x100003D3C, symSize: 0x30 }
  - { offsetInCU: 0x37F92, offset: 0x37F92, size: 0x8, addend: 0x0, symName: __ZNSt8__detail15_Hash_node_baseC2Ev, symObjAddr: 0x994, symBinAddr: 0x100003D04, symSize: 0x1C }
  - { offsetInCU: 0x37F9A, offset: 0x37F9A, size: 0x8, addend: 0x0, symName: __ZNSt8__detail15_Hash_node_baseC1Ev, symObjAddr: 0x9B0, symBinAddr: 0x100003D20, symSize: 0x1C }
  - { offsetInCU: 0x37FF2, offset: 0x37FF2, size: 0x8, addend: 0x0, symName: __ZN11__gnu_debug19_Safe_sequence_baseD2Ev, symObjAddr: 0x974, symBinAddr: 0x100003CE4, symSize: 0x20 }
  - { offsetInCU: 0x37FFA, offset: 0x37FFA, size: 0x8, addend: 0x0, symName: __ZNSt8__detail15_Hash_node_baseC2Ev, symObjAddr: 0x994, symBinAddr: 0x100003D04, symSize: 0x1C }
  - { offsetInCU: 0x3803D, offset: 0x3803D, size: 0x8, addend: 0x0, symName: __ZN11__gnu_debug19_Safe_sequence_baseC2Ev, symObjAddr: 0x944, symBinAddr: 0x100003CB4, symSize: 0x30 }
  - { offsetInCU: 0x38045, offset: 0x38045, size: 0x8, addend: 0x0, symName: __ZN11__gnu_debug19_Safe_sequence_baseD2Ev, symObjAddr: 0x974, symBinAddr: 0x100003CE4, symSize: 0x20 }
  - { offsetInCU: 0x38097, offset: 0x38097, size: 0x8, addend: 0x0, symName: __ZN11__gnu_debug19_Safe_iterator_baseD2Ev, symObjAddr: 0x924, symBinAddr: 0x100003C94, symSize: 0x20 }
  - { offsetInCU: 0x3809F, offset: 0x3809F, size: 0x8, addend: 0x0, symName: __ZN11__gnu_debug19_Safe_sequence_baseC2Ev, symObjAddr: 0x944, symBinAddr: 0x100003CB4, symSize: 0x30 }
  - { offsetInCU: 0x3811F, offset: 0x3811F, size: 0x8, addend: 0x0, symName: __ZN11__gnu_debug19_Safe_iterator_baseC2EPKNS_19_Safe_sequence_baseEb, symObjAddr: 0x8D4, symBinAddr: 0x100003C44, symSize: 0x50 }
  - { offsetInCU: 0x38127, offset: 0x38127, size: 0x8, addend: 0x0, symName: __ZN11__gnu_debug19_Safe_iterator_baseD2Ev, symObjAddr: 0x924, symBinAddr: 0x100003C94, symSize: 0x20 }
  - { offsetInCU: 0x38169, offset: 0x38169, size: 0x8, addend: 0x0, symName: __ZN11__gnu_debug19_Safe_iterator_baseC2Ev, symObjAddr: 0x8A0, symBinAddr: 0x100003C10, symSize: 0x34 }
  - { offsetInCU: 0x38171, offset: 0x38171, size: 0x8, addend: 0x0, symName: __ZN11__gnu_debug19_Safe_iterator_baseC2EPKNS_19_Safe_sequence_baseEb, symObjAddr: 0x8D4, symBinAddr: 0x100003C44, symSize: 0x50 }
  - { offsetInCU: 0x381BA, offset: 0x381BA, size: 0x8, addend: 0x0, symName: __ZN9__gnu_cxx13__scoped_lockD1Ev, symObjAddr: 0x87C, symBinAddr: 0x100003BEC, symSize: 0x24 }
  - { offsetInCU: 0x381C2, offset: 0x381C2, size: 0x8, addend: 0x0, symName: __ZN11__gnu_debug19_Safe_iterator_baseC2Ev, symObjAddr: 0x8A0, symBinAddr: 0x100003C10, symSize: 0x34 }
  - { offsetInCU: 0x38222, offset: 0x38222, size: 0x8, addend: 0x0, symName: __ZN9__gnu_cxx13__scoped_lockC1ERNS_7__mutexE, symObjAddr: 0x848, symBinAddr: 0x100003BB8, symSize: 0x34 }
  - { offsetInCU: 0x3822A, offset: 0x3822A, size: 0x8, addend: 0x0, symName: __ZN9__gnu_cxx13__scoped_lockD1Ev, symObjAddr: 0x87C, symBinAddr: 0x100003BEC, symSize: 0x24 }
  - { offsetInCU: 0x38232, offset: 0x38232, size: 0x8, addend: 0x0, symName: __ZN9__gnu_cxx7__mutex6unlockEv, symObjAddr: 0x7F0, symBinAddr: 0x100003B60, symSize: 0x58 }
  - { offsetInCU: 0x3823A, offset: 0x3823A, size: 0x8, addend: 0x0, symName: __ZN9__gnu_cxx13__scoped_lockC1ERNS_7__mutexE, symObjAddr: 0x848, symBinAddr: 0x100003BB8, symSize: 0x34 }
  - { offsetInCU: 0x38263, offset: 0x38263, size: 0x8, addend: 0x0, symName: __ZN9__gnu_cxx7__mutex4lockEv, symObjAddr: 0x798, symBinAddr: 0x100003B08, symSize: 0x58 }
  - { offsetInCU: 0x3826B, offset: 0x3826B, size: 0x8, addend: 0x0, symName: __ZN9__gnu_cxx7__mutex6unlockEv, symObjAddr: 0x7F0, symBinAddr: 0x100003B60, symSize: 0x58 }
  - { offsetInCU: 0x382E8, offset: 0x382E8, size: 0x8, addend: 0x0, symName: __ZN9__gnu_cxx32__throw_concurrence_unlock_errorEv, symObjAddr: 0x75C, symBinAddr: 0x100003ACC, symSize: 0x3C }
  - { offsetInCU: 0x382F0, offset: 0x382F0, size: 0x8, addend: 0x0, symName: __ZN9__gnu_cxx7__mutex4lockEv, symObjAddr: 0x798, symBinAddr: 0x100003B08, symSize: 0x58 }
  - { offsetInCU: 0x38311, offset: 0x38311, size: 0x8, addend: 0x0, symName: __ZN9__gnu_cxx26__concurrence_unlock_errorD0Ev, symObjAddr: 0x734, symBinAddr: 0x100003AA4, symSize: 0x28 }
  - { offsetInCU: 0x38319, offset: 0x38319, size: 0x8, addend: 0x0, symName: __ZN9__gnu_cxx32__throw_concurrence_unlock_errorEv, symObjAddr: 0x75C, symBinAddr: 0x100003ACC, symSize: 0x3C }
  - { offsetInCU: 0x38341, offset: 0x38341, size: 0x8, addend: 0x0, symName: __ZN9__gnu_cxx26__concurrence_unlock_errorD1Ev, symObjAddr: 0x700, symBinAddr: 0x100003A70, symSize: 0x34 }
  - { offsetInCU: 0x38349, offset: 0x38349, size: 0x8, addend: 0x0, symName: __ZN9__gnu_cxx26__concurrence_unlock_errorD0Ev, symObjAddr: 0x734, symBinAddr: 0x100003AA4, symSize: 0x28 }
  - { offsetInCU: 0x3838F, offset: 0x3838F, size: 0x8, addend: 0x0, symName: __ZN9__gnu_cxx26__concurrence_unlock_errorC1Ev, symObjAddr: 0x6CC, symBinAddr: 0x100003A3C, symSize: 0x34 }
  - { offsetInCU: 0x38397, offset: 0x38397, size: 0x8, addend: 0x0, symName: __ZN9__gnu_cxx26__concurrence_unlock_errorD1Ev, symObjAddr: 0x700, symBinAddr: 0x100003A70, symSize: 0x34 }
  - { offsetInCU: 0x383E1, offset: 0x383E1, size: 0x8, addend: 0x0, symName: __ZN9__gnu_cxx30__throw_concurrence_lock_errorEv, symObjAddr: 0x690, symBinAddr: 0x100003A00, symSize: 0x3C }
  - { offsetInCU: 0x383E9, offset: 0x383E9, size: 0x8, addend: 0x0, symName: __ZN9__gnu_cxx26__concurrence_unlock_errorC1Ev, symObjAddr: 0x6CC, symBinAddr: 0x100003A3C, symSize: 0x34 }
  - { offsetInCU: 0x3840C, offset: 0x3840C, size: 0x8, addend: 0x0, symName: __ZN9__gnu_cxx24__concurrence_lock_errorD0Ev, symObjAddr: 0x668, symBinAddr: 0x1000039D8, symSize: 0x28 }
  - { offsetInCU: 0x38414, offset: 0x38414, size: 0x8, addend: 0x0, symName: __ZN9__gnu_cxx30__throw_concurrence_lock_errorEv, symObjAddr: 0x690, symBinAddr: 0x100003A00, symSize: 0x3C }
  - { offsetInCU: 0x3843C, offset: 0x3843C, size: 0x8, addend: 0x0, symName: __ZN9__gnu_cxx24__concurrence_lock_errorD1Ev, symObjAddr: 0x634, symBinAddr: 0x1000039A4, symSize: 0x34 }
  - { offsetInCU: 0x38444, offset: 0x38444, size: 0x8, addend: 0x0, symName: __ZN9__gnu_cxx24__concurrence_lock_errorD0Ev, symObjAddr: 0x668, symBinAddr: 0x1000039D8, symSize: 0x28 }
  - { offsetInCU: 0x3848A, offset: 0x3848A, size: 0x8, addend: 0x0, symName: __ZN9__gnu_cxx24__concurrence_lock_errorC1Ev, symObjAddr: 0x600, symBinAddr: 0x100003970, symSize: 0x34 }
  - { offsetInCU: 0x38492, offset: 0x38492, size: 0x8, addend: 0x0, symName: __ZN9__gnu_cxx24__concurrence_lock_errorD1Ev, symObjAddr: 0x634, symBinAddr: 0x1000039A4, symSize: 0x34 }
  - { offsetInCU: 0x3848E, offset: 0x3848E, size: 0x8, addend: 0x0, symName: __ZNK9__gnu_cxx26__concurrence_unlock_error4whatEv, symObjAddr: 0x5E8, symBinAddr: 0x100003958, symSize: 0x18 }
  - { offsetInCU: 0x38496, offset: 0x38496, size: 0x8, addend: 0x0, symName: __ZN9__gnu_cxx24__concurrence_lock_errorC1Ev, symObjAddr: 0x600, symBinAddr: 0x100003970, symSize: 0x34 }
  - { offsetInCU: 0x384BF, offset: 0x384BF, size: 0x8, addend: 0x0, symName: __ZNK9__gnu_cxx24__concurrence_lock_error4whatEv, symObjAddr: 0x5D0, symBinAddr: 0x100003940, symSize: 0x18 }
  - { offsetInCU: 0x384C7, offset: 0x384C7, size: 0x8, addend: 0x0, symName: __ZNK9__gnu_cxx26__concurrence_unlock_error4whatEv, symObjAddr: 0x5E8, symBinAddr: 0x100003958, symSize: 0x18 }
  - { offsetInCU: 0x3850C, offset: 0x3850C, size: 0x8, addend: 0x0, symName: __ZL22__gthread_mutex_unlockP23_opaque_pthread_mutex_t, symObjAddr: 0x590, symBinAddr: 0x100003900, symSize: 0x40 }
  - { offsetInCU: 0x38514, offset: 0x38514, size: 0x8, addend: 0x0, symName: __ZNK9__gnu_cxx24__concurrence_lock_error4whatEv, symObjAddr: 0x5D0, symBinAddr: 0x100003940, symSize: 0x18 }
  - { offsetInCU: 0x38546, offset: 0x38546, size: 0x8, addend: 0x0, symName: __ZL20__gthread_mutex_lockP23_opaque_pthread_mutex_t, symObjAddr: 0x550, symBinAddr: 0x1000038C0, symSize: 0x40 }
  - { offsetInCU: 0x3854E, offset: 0x3854E, size: 0x8, addend: 0x0, symName: __ZL22__gthread_mutex_unlockP23_opaque_pthread_mutex_t, symObjAddr: 0x590, symBinAddr: 0x100003900, symSize: 0x40 }
  - { offsetInCU: 0x38580, offset: 0x38580, size: 0x8, addend: 0x0, symName: __ZL18__gthread_active_pv, symObjAddr: 0x548, symBinAddr: 0x1000038B8, symSize: 0x8 }
  - { offsetInCU: 0x38588, offset: 0x38588, size: 0x8, addend: 0x0, symName: __ZL20__gthread_mutex_lockP23_opaque_pthread_mutex_t, symObjAddr: 0x550, symBinAddr: 0x1000038C0, symSize: 0x40 }
  - { offsetInCU: 0x385B6, offset: 0x385B6, size: 0x8, addend: 0x0, symName: __ZNSt7__cxx119to_stringEx, symObjAddr: 0x458, symBinAddr: 0x1000037C8, symSize: 0xF0 }
  - { offsetInCU: 0x385BE, offset: 0x385BE, size: 0x8, addend: 0x0, symName: __ZL18__gthread_active_pv, symObjAddr: 0x548, symBinAddr: 0x1000038B8, symSize: 0x8 }
  - { offsetInCU: 0x386B9, offset: 0x386B9, size: 0x8, addend: 0x0, symName: __ZNSt10_Hash_impl4hashEPKvmm, symObjAddr: 0x42C, symBinAddr: 0x10000379C, symSize: 0x2C }
  - { offsetInCU: 0x386C1, offset: 0x386C1, size: 0x8, addend: 0x0, symName: __ZNSt7__cxx119to_stringEx, symObjAddr: 0x458, symBinAddr: 0x1000037C8, symSize: 0xF0 }
  - { offsetInCU: 0x38714, offset: 0x38714, size: 0x8, addend: 0x0, symName: __ZNSt11char_traitsIcE6assignEPcmc, symObjAddr: 0x3E4, symBinAddr: 0x100003754, symSize: 0x48 }
  - { offsetInCU: 0x3871C, offset: 0x3871C, size: 0x8, addend: 0x0, symName: __ZNSt10_Hash_impl4hashEPKvmm, symObjAddr: 0x42C, symBinAddr: 0x10000379C, symSize: 0x2C }
  - { offsetInCU: 0x38772, offset: 0x38772, size: 0x8, addend: 0x0, symName: __ZNSt11char_traitsIcE4copyEPcPKcm, symObjAddr: 0x390, symBinAddr: 0x100003700, symSize: 0x54 }
  - { offsetInCU: 0x3877A, offset: 0x3877A, size: 0x8, addend: 0x0, symName: __ZNSt11char_traitsIcE6assignEPcmc, symObjAddr: 0x3E4, symBinAddr: 0x100003754, symSize: 0x48 }
  - { offsetInCU: 0x387D0, offset: 0x387D0, size: 0x8, addend: 0x0, symName: __ZNSt11char_traitsIcE4moveEPcPKcm, symObjAddr: 0x34C, symBinAddr: 0x1000036BC, symSize: 0x44 }
  - { offsetInCU: 0x387D8, offset: 0x387D8, size: 0x8, addend: 0x0, symName: __ZNSt11char_traitsIcE4copyEPcPKcm, symObjAddr: 0x390, symBinAddr: 0x100003700, symSize: 0x54 }
  - { offsetInCU: 0x3882E, offset: 0x3882E, size: 0x8, addend: 0x0, symName: __ZNSt11char_traitsIcE6lengthEPKc, symObjAddr: 0x30C, symBinAddr: 0x10000367C, symSize: 0x40 }
  - { offsetInCU: 0x38836, offset: 0x38836, size: 0x8, addend: 0x0, symName: __ZNSt11char_traitsIcE4moveEPcPKcm, symObjAddr: 0x34C, symBinAddr: 0x1000036BC, symSize: 0x44 }
  - { offsetInCU: 0x38862, offset: 0x38862, size: 0x8, addend: 0x0, symName: __ZNSt11char_traitsIcE7compareEPKcS2_m, symObjAddr: 0x210, symBinAddr: 0x100003580, symSize: 0xFC }
  - { offsetInCU: 0x3886A, offset: 0x3886A, size: 0x8, addend: 0x0, symName: __ZNSt11char_traitsIcE6lengthEPKc, symObjAddr: 0x30C, symBinAddr: 0x10000367C, symSize: 0x40 }
  - { offsetInCU: 0x388E8, offset: 0x388E8, size: 0x8, addend: 0x0, symName: __ZNSt11char_traitsIcE2ltERKcS2_, symObjAddr: 0x1D8, symBinAddr: 0x100003548, symSize: 0x38 }
  - { offsetInCU: 0x388F0, offset: 0x388F0, size: 0x8, addend: 0x0, symName: __ZNSt11char_traitsIcE7compareEPKcS2_m, symObjAddr: 0x210, symBinAddr: 0x100003580, symSize: 0xFC }
  - { offsetInCU: 0x38931, offset: 0x38931, size: 0x8, addend: 0x0, symName: __ZNSt11char_traitsIcE6assignERcRKc, symObjAddr: 0x1B0, symBinAddr: 0x100003520, symSize: 0x28 }
  - { offsetInCU: 0x38939, offset: 0x38939, size: 0x8, addend: 0x0, symName: __ZNSt11char_traitsIcE2ltERKcS2_, symObjAddr: 0x1D8, symBinAddr: 0x100003548, symSize: 0x38 }
  - { offsetInCU: 0x38988, offset: 0x38988, size: 0x8, addend: 0x0, symName: __ZdlPvS_, symObjAddr: 0x198, symBinAddr: 0x100003508, symSize: 0x18 }
  - { offsetInCU: 0x38990, offset: 0x38990, size: 0x8, addend: 0x0, symName: __ZNSt11char_traitsIcE6assignERcRKc, symObjAddr: 0x1B0, symBinAddr: 0x100003520, symSize: 0x28 }
  - { offsetInCU: 0x389C8, offset: 0x389C8, size: 0x8, addend: 0x0, symName: __ZnwmPv, symObjAddr: 0x180, symBinAddr: 0x1000034F0, symSize: 0x18 }
  - { offsetInCU: 0x389D0, offset: 0x389D0, size: 0x8, addend: 0x0, symName: __ZdlPvS_, symObjAddr: 0x198, symBinAddr: 0x100003508, symSize: 0x18 }
  - { offsetInCU: 0x38A03, offset: 0x38A03, size: 0x8, addend: 0x0, symName: __ZN11__gnu_debug16_Error_formatter5_S_atEPKcjS2_, symObjAddr: 0xEC, symBinAddr: 0x10000345C, symSize: 0x94 }
  - { offsetInCU: 0x38A0B, offset: 0x38A0B, size: 0x8, addend: 0x0, symName: __ZnwmPv, symObjAddr: 0x180, symBinAddr: 0x1000034F0, symSize: 0x18 }
  - { offsetInCU: 0x38AB4, offset: 0x38AB4, size: 0x8, addend: 0x0, symName: __ZZN11__gnu_debug16_Error_formatter5_S_atEPKcjS2_E11__formatter, symObjAddr: 0x8F80, symBinAddr: 0x100018000, symSize: 0x0 }
  - { offsetInCU: 0x38B00, offset: 0x38B00, size: 0x8, addend: 0x0, symName: __ZN11__gnu_debug16_Error_formatterC1EPKcjS2_, symObjAddr: 0x60, symBinAddr: 0x1000033D0, symSize: 0x8C }
  - { offsetInCU: 0x38B08, offset: 0x38B08, size: 0x8, addend: 0x0, symName: __ZN11__gnu_debug16_Error_formatter5_S_atEPKcjS2_, symObjAddr: 0xEC, symBinAddr: 0x10000345C, symSize: 0x94 }
  - { offsetInCU: 0x38B78, offset: 0x38B78, size: 0x8, addend: 0x0, symName: __ZN11__gnu_debug16_Error_formatter10_ParameterC1Ev, symObjAddr: 0x30, symBinAddr: 0x1000033A0, symSize: 0x30 }
  - { offsetInCU: 0x38B80, offset: 0x38B80, size: 0x8, addend: 0x0, symName: __ZN11__gnu_debug16_Error_formatterC1EPKcjS2_, symObjAddr: 0x60, symBinAddr: 0x1000033D0, symSize: 0x8C }
  - { offsetInCU: 0x38BA4, offset: 0x38BA4, size: 0x8, addend: 0x0, symName: __ZNSt9exceptionC2Ev, symObjAddr: 0x8, symBinAddr: 0x100003378, symSize: 0x28 }
  - { offsetInCU: 0x38BAC, offset: 0x38BAC, size: 0x8, addend: 0x0, symName: __ZN11__gnu_debug16_Error_formatter10_ParameterC1Ev, symObjAddr: 0x30, symBinAddr: 0x1000033A0, symSize: 0x30 }
  - { offsetInCU: 0x38BFD, offset: 0x38BFD, size: 0x8, addend: 0x0, symName: __ZSt23__is_constant_evaluatedv, symObjAddr: 0x0, symBinAddr: 0x100003370, symSize: 0x8 }
  - { offsetInCU: 0x38C05, offset: 0x38C05, size: 0x8, addend: 0x0, symName: __ZNSt9exceptionC2Ev, symObjAddr: 0x8, symBinAddr: 0x100003378, symSize: 0x28 }
...
