---
triple:          'arm64-apple-darwin'
binary-path:     brute
relocations:
  - { offsetInCU: 0x96, offset: 0x96, size: 0x8, addend: 0x0, symName: __ZSt23__is_constant_evaluatedv, symObjAddr: 0x0, symBinAddr: 0x100003B24, symSize: 0x8 }
  - { offsetInCU: 0x9E, offset: 0x9E, size: 0x8, addend: 0x0, symName: __ZSt19piecewise_construct, symObjAddr: 0x6640, symBinAddr: 0x10000B158, symSize: 0x0 }
  - { offsetInCU: 0x190E, offset: 0x190E, size: 0x8, addend: 0x0, symName: __ZSt19piecewise_construct, symObjAddr: 0x6640, symBinAddr: 0x10000B158, symSize: 0x0 }
  - { offsetInCU: 0x2355F, offset: 0x2355F, size: 0x8, addend: 0x0, symName: __ZStL8__ioinit, symObjAddr: 0xB7AC0, symBinAddr: 0x100014467, symSize: 0x0 }
  - { offsetInCU: 0x26297, offset: 0x26297, size: 0x8, addend: 0x0, symName: __ZL3INF, symObjAddr: 0x6644, symBinAddr: 0x10000B15C, symSize: 0x0 }
  - { offsetInCU: 0x262B4, offset: 0x262B4, size: 0x8, addend: 0x0, symName: __ZL6INF_LL, symObjAddr: 0x6648, symBinAddr: 0x10000B160, symSize: 0x0 }
  - { offsetInCU: 0x262CB, offset: 0x262CB, size: 0x8, addend: 0x0, symName: __ZL3mxN, symObjAddr: 0x6650, symBinAddr: 0x10000B168, symSize: 0x0 }
  - { offsetInCU: 0x262E5, offset: 0x262E5, size: 0x8, addend: 0x0, symName: __ZL3mxK, symObjAddr: 0x6654, symBinAddr: 0x10000B16C, symSize: 0x0 }
  - { offsetInCU: 0x262FF, offset: 0x262FF, size: 0x8, addend: 0x0, symName: _N, symObjAddr: 0xB7AC8, symBinAddr: 0x100014468, symSize: 0x0 }
  - { offsetInCU: 0x2631A, offset: 0x2631A, size: 0x8, addend: 0x0, symName: _K, symObjAddr: 0xB7ACC, symBinAddr: 0x10001446C, symSize: 0x0 }
  - { offsetInCU: 0x2634C, offset: 0x2634C, size: 0x8, addend: 0x0, symName: _a, symObjAddr: 0xB7AD0, symBinAddr: 0x100014470, symSize: 0x0 }
  - { offsetInCU: 0x26380, offset: 0x26380, size: 0x8, addend: 0x0, symName: _pfs, symObjAddr: 0x119568, symBinAddr: 0x100075F08, symSize: 0x0 }
  - { offsetInCU: 0x2A450, offset: 0x2A450, size: 0x8, addend: 0x0, symName: __ZNSt8__detail30__integer_to_chars_is_unsignedIjEE, symObjAddr: 0x672F, symBinAddr: 0x10000B247, symSize: 0x0 }
  - { offsetInCU: 0x2A46A, offset: 0x2A46A, size: 0x8, addend: 0x0, symName: __ZNSt8__detail30__integer_to_chars_is_unsignedImEE, symObjAddr: 0x6730, symBinAddr: 0x10000B248, symSize: 0x0 }
  - { offsetInCU: 0x2A484, offset: 0x2A484, size: 0x8, addend: 0x0, symName: __ZNSt8__detail30__integer_to_chars_is_unsignedIyEE, symObjAddr: 0x6731, symBinAddr: 0x10000B249, symSize: 0x0 }
  - { offsetInCU: 0x2A5F1, offset: 0x2A5F1, size: 0x8, addend: 0x0, symName: __GLOBAL__sub_I_brute.cpp, symObjAddr: 0x662C, symBinAddr: 0x10000A150, symSize: 0x14 }
  - { offsetInCU: 0x2A5F9, offset: 0x2A5F9, size: 0x8, addend: 0x0, symName: __ZSt19piecewise_construct, symObjAddr: 0x6640, symBinAddr: 0x10000B158, symSize: 0x0 }
  - { offsetInCU: 0x2A61D, offset: 0x2A61D, size: 0x8, addend: 0x0, symName: __Z41__static_initialization_and_destruction_0v, symObjAddr: 0x65A0, symBinAddr: 0x10000A0C4, symSize: 0x8C }
  - { offsetInCU: 0x2A625, offset: 0x2A625, size: 0x8, addend: 0x0, symName: __GLOBAL__sub_I_brute.cpp, symObjAddr: 0x662C, symBinAddr: 0x10000A150, symSize: 0x14 }
  - { offsetInCU: 0x2A616, offset: 0x2A616, size: 0x8, addend: 0x0, symName: ___tcf_0, symObjAddr: 0x6558, symBinAddr: 0x10000A07C, symSize: 0x48 }
  - { offsetInCU: 0x2A61E, offset: 0x2A61E, size: 0x8, addend: 0x0, symName: __Z41__static_initialization_and_destruction_0v, symObjAddr: 0x65A0, symBinAddr: 0x10000A0C4, symSize: 0x8C }
  - { offsetInCU: 0x2A639, offset: 0x2A639, size: 0x8, addend: 0x0, symName: __ZNSt10_Head_baseILm0ERKiLb0EE7_M_headERS2_, symObjAddr: 0x6540, symBinAddr: 0x10000A064, symSize: 0x18 }
  - { offsetInCU: 0x2A641, offset: 0x2A641, size: 0x8, addend: 0x0, symName: ___tcf_0, symObjAddr: 0x6558, symBinAddr: 0x10000A07C, symSize: 0x48 }
  - { offsetInCU: 0x2A66C, offset: 0x2A66C, size: 0x8, addend: 0x0, symName: __ZNSt11_Tuple_implILm0EJRKiEE7_M_headERS2_, symObjAddr: 0x6524, symBinAddr: 0x10000A048, symSize: 0x1C }
  - { offsetInCU: 0x2A674, offset: 0x2A674, size: 0x8, addend: 0x0, symName: __ZNSt10_Head_baseILm0ERKiLb0EE7_M_headERS2_, symObjAddr: 0x6540, symBinAddr: 0x10000A064, symSize: 0x18 }
  - { offsetInCU: 0x2A704, offset: 0x2A704, size: 0x8, addend: 0x0, symName: __ZSt12__get_helperILm0ERKiJEERT0_RSt11_Tuple_implIXT_EJS2_DpT1_EE, symObjAddr: 0x6508, symBinAddr: 0x10000A02C, symSize: 0x1C }
  - { offsetInCU: 0x2A70C, offset: 0x2A70C, size: 0x8, addend: 0x0, symName: __ZNSt11_Tuple_implILm0EJRKiEE7_M_headERS2_, symObjAddr: 0x6524, symBinAddr: 0x10000A048, symSize: 0x1C }
  - { offsetInCU: 0x2A74F, offset: 0x2A74F, size: 0x8, addend: 0x0, symName: __ZSt7forwardIRKiEOT_RNSt16remove_referenceIS2_E4typeE, symObjAddr: 0x64F4, symBinAddr: 0x10000A018, symSize: 0x14 }
  - { offsetInCU: 0x2A757, offset: 0x2A757, size: 0x8, addend: 0x0, symName: __ZSt12__get_helperILm0ERKiJEERT0_RSt11_Tuple_implIXT_EJS2_DpT1_EE, symObjAddr: 0x6508, symBinAddr: 0x10000A02C, symSize: 0x1C }
  - { offsetInCU: 0x2A7B8, offset: 0x2A7B8, size: 0x8, addend: 0x0, symName: __ZSt3getILm0EJRKiEERNSt13tuple_elementIXT_ESt5tupleIJDpT0_EEE4typeERS6_, symObjAddr: 0x64D8, symBinAddr: 0x100009FFC, symSize: 0x1C }
  - { offsetInCU: 0x2A7C0, offset: 0x2A7C0, size: 0x8, addend: 0x0, symName: __ZSt7forwardIRKiEOT_RNSt16remove_referenceIS2_E4typeE, symObjAddr: 0x64F4, symBinAddr: 0x10000A018, symSize: 0x14 }
  - { offsetInCU: 0x2A821, offset: 0x2A821, size: 0x8, addend: 0x0, symName: __ZNSt4pairIKiiEC1IiiLb1EEEOS_IT_T0_E, symObjAddr: 0x6490, symBinAddr: 0x100009FB4, symSize: 0x48 }
  - { offsetInCU: 0x2A829, offset: 0x2A829, size: 0x8, addend: 0x0, symName: __ZSt3getILm0EJRKiEERNSt13tuple_elementIXT_ESt5tupleIJDpT0_EEE4typeERS6_, symObjAddr: 0x64D8, symBinAddr: 0x100009FFC, symSize: 0x1C }
  - { offsetInCU: 0x2A93F, offset: 0x2A93F, size: 0x8, addend: 0x0, symName: __ZNSt4pairIKiiEC1IJRS0_EJLm0EEJEJEEERSt5tupleIJDpT_EERS4_IJDpT1_EESt12_Index_tupleIJXspT0_EEESD_IJXspT2_EEE, symObjAddr: 0x6448, symBinAddr: 0x100009F6C, symSize: 0x48 }
  - { offsetInCU: 0x2A947, offset: 0x2A947, size: 0x8, addend: 0x0, symName: __ZNSt4pairIKiiEC1IiiLb1EEEOS_IT_T0_E, symObjAddr: 0x6490, symBinAddr: 0x100009FB4, symSize: 0x48 }
  - { offsetInCU: 0x2A9C2, offset: 0x2A9C2, size: 0x8, addend: 0x0, symName: __ZNK9__gnu_cxx16__aligned_bufferISt4pairIKiiEE7_M_addrEv, symObjAddr: 0x6434, symBinAddr: 0x100009F58, symSize: 0x14 }
  - { offsetInCU: 0x2A9CA, offset: 0x2A9CA, size: 0x8, addend: 0x0, symName: __ZNSt4pairIKiiEC1IJRS0_EJLm0EEJEJEEERSt5tupleIJDpT_EERS4_IJDpT1_EESt12_Index_tupleIJXspT0_EEESD_IJXspT2_EEE, symObjAddr: 0x6448, symBinAddr: 0x100009F6C, symSize: 0x48 }
  - { offsetInCU: 0x2AAA5, offset: 0x2AAA5, size: 0x8, addend: 0x0, symName: __ZSt11__addressofINSt8__detail10_Hash_nodeISt4pairIKiiELb0EEEEPT_RS6_, symObjAddr: 0x6420, symBinAddr: 0x100009F44, symSize: 0x14 }
  - { offsetInCU: 0x2AAAD, offset: 0x2AAAD, size: 0x8, addend: 0x0, symName: __ZNK9__gnu_cxx16__aligned_bufferISt4pairIKiiEE7_M_addrEv, symObjAddr: 0x6434, symBinAddr: 0x100009F58, symSize: 0x14 }
  - { offsetInCU: 0x2AB90, offset: 0x2AB90, size: 0x8, addend: 0x0, symName: __ZNSt8__detail20_Local_iterator_baseIiSt4pairIKiiENS_10_Select1stESt4hashIiENS_18_Mod_range_hashingENS_20_Default_ranged_hashELb0EEC2ERKNS_15_Hash_code_baseIiS3_S4_S6_S7_S8_Lb0EEEPNS_10_Hash_nodeIS3_Lb0EEEmm, symObjAddr: 0x63C8, symBinAddr: 0x100009EEC, symSize: 0x58 }
  - { offsetInCU: 0x2AB98, offset: 0x2AB98, size: 0x8, addend: 0x0, symName: __ZSt11__addressofINSt8__detail10_Hash_nodeISt4pairIKiiELb0EEEEPT_RS6_, symObjAddr: 0x6420, symBinAddr: 0x100009F44, symSize: 0x14 }
  - { offsetInCU: 0x2ABD2, offset: 0x2ABD2, size: 0x8, addend: 0x0, symName: __ZNSt4pairIKiiEC1IJRS0_EJEEESt21piecewise_construct_tSt5tupleIJDpT_EES5_IJDpT0_EE, symObjAddr: 0x638C, symBinAddr: 0x100009EB0, symSize: 0x3C }
  - { offsetInCU: 0x2ABDA, offset: 0x2ABDA, size: 0x8, addend: 0x0, symName: __ZNSt8__detail20_Local_iterator_baseIiSt4pairIKiiENS_10_Select1stESt4hashIiENS_18_Mod_range_hashingENS_20_Default_ranged_hashELb0EEC2ERKNS_15_Hash_code_baseIiS3_S4_S6_S7_S8_Lb0EEEPNS_10_Hash_nodeIS3_Lb0EEEmm, symObjAddr: 0x63C8, symBinAddr: 0x100009EEC, symSize: 0x58 }
  - { offsetInCU: 0x2AC3E, offset: 0x2AC3E, size: 0x8, addend: 0x0, symName: __ZNSt11_Tuple_implILm0EJRKiEEC2EOS2_, symObjAddr: 0x6364, symBinAddr: 0x100009E88, symSize: 0x28 }
  - { offsetInCU: 0x2AC46, offset: 0x2AC46, size: 0x8, addend: 0x0, symName: __ZNSt4pairIKiiEC1IJRS0_EJEEESt21piecewise_construct_tSt5tupleIJDpT_EES5_IJDpT0_EE, symObjAddr: 0x638C, symBinAddr: 0x100009EB0, symSize: 0x3C }
  - { offsetInCU: 0x2ACCD, offset: 0x2ACCD, size: 0x8, addend: 0x0, symName: __ZNK9__gnu_cxx16__aligned_bufferISt4pairIKiiEE6_M_ptrEv, symObjAddr: 0x6348, symBinAddr: 0x100009E6C, symSize: 0x1C }
  - { offsetInCU: 0x2ACD5, offset: 0x2ACD5, size: 0x8, addend: 0x0, symName: __ZNSt11_Tuple_implILm0EJRKiEEC2EOS2_, symObjAddr: 0x6364, symBinAddr: 0x100009E88, symSize: 0x28 }
  - { offsetInCU: 0x2AD69, offset: 0x2AD69, size: 0x8, addend: 0x0, symName: __ZSt11__addressofIPNSt8__detail15_Hash_node_baseEEPT_RS3_, symObjAddr: 0x6334, symBinAddr: 0x100009E58, symSize: 0x14 }
  - { offsetInCU: 0x2AD71, offset: 0x2AD71, size: 0x8, addend: 0x0, symName: __ZNK9__gnu_cxx16__aligned_bufferISt4pairIKiiEE6_M_ptrEv, symObjAddr: 0x6348, symBinAddr: 0x100009E6C, symSize: 0x1C }
  - { offsetInCU: 0x2ADA1, offset: 0x2ADA1, size: 0x8, addend: 0x0, symName: __ZNSt15__new_allocatorIPNSt8__detail15_Hash_node_baseEE8allocateEmPKv, symObjAddr: 0x62B8, symBinAddr: 0x100009DDC, symSize: 0x7C }
  - { offsetInCU: 0x2ADA9, offset: 0x2ADA9, size: 0x8, addend: 0x0, symName: __ZSt11__addressofIPNSt8__detail15_Hash_node_baseEEPT_RS3_, symObjAddr: 0x6334, symBinAddr: 0x100009E58, symSize: 0x14 }
  - { offsetInCU: 0x2AEBE, offset: 0x2AEBE, size: 0x8, addend: 0x0, symName: __ZSt9addressofINSt8__detail10_Hash_nodeISt4pairIKiiELb0EEEEPT_RS6_, symObjAddr: 0x629C, symBinAddr: 0x100009DC0, symSize: 0x1C }
  - { offsetInCU: 0x2AEC6, offset: 0x2AEC6, size: 0x8, addend: 0x0, symName: __ZNSt15__new_allocatorIPNSt8__detail15_Hash_node_baseEE8allocateEmPKv, symObjAddr: 0x62B8, symBinAddr: 0x100009DDC, symSize: 0x7C }
  - { offsetInCU: 0x2AE7B, offset: 0x2AE7B, size: 0x8, addend: 0x0, symName: __ZNSt8__detail18_Hash_code_storageINS_15_Hash_code_baseIiSt4pairIKiiENS_10_Select1stESt4hashIiENS_18_Mod_range_hashingENS_20_Default_ranged_hashELb0EEELb1EE4_M_hEv, symObjAddr: 0x6288, symBinAddr: 0x100009DAC, symSize: 0x14 }
  - { offsetInCU: 0x2AE83, offset: 0x2AE83, size: 0x8, addend: 0x0, symName: __ZSt9addressofINSt8__detail10_Hash_nodeISt4pairIKiiELb0EEEEPT_RS6_, symObjAddr: 0x629C, symBinAddr: 0x100009DC0, symSize: 0x1C }
  - { offsetInCU: 0x2AFE4, offset: 0x2AFE4, size: 0x8, addend: 0x0, symName: __ZNSt8__detail21_Local_const_iteratorIiSt4pairIKiiENS_10_Select1stESt4hashIiENS_18_Mod_range_hashingENS_20_Default_ranged_hashELb0ELb0EEC1ERKNS_15_Hash_code_baseIiS3_S4_S6_S7_S8_Lb0EEEPNS_10_Hash_nodeIS3_Lb0EEEmm, symObjAddr: 0x6248, symBinAddr: 0x100009D6C, symSize: 0x40 }
  - { offsetInCU: 0x2AFEC, offset: 0x2AFEC, size: 0x8, addend: 0x0, symName: __ZNSt8__detail18_Hash_code_storageINS_15_Hash_code_baseIiSt4pairIKiiENS_10_Select1stESt4hashIiENS_18_Mod_range_hashingENS_20_Default_ranged_hashELb0EEELb1EE4_M_hEv, symObjAddr: 0x6288, symBinAddr: 0x100009DAC, symSize: 0x14 }
  - { offsetInCU: 0x2AF73, offset: 0x2AF73, size: 0x8, addend: 0x0, symName: __ZNSt15__new_allocatorINSt8__detail10_Hash_nodeISt4pairIKiiELb0EEEE10deallocateEPS5_m, symObjAddr: 0x6218, symBinAddr: 0x100009D3C, symSize: 0x30 }
  - { offsetInCU: 0x2AF7B, offset: 0x2AF7B, size: 0x8, addend: 0x0, symName: __ZNSt8__detail21_Local_const_iteratorIiSt4pairIKiiENS_10_Select1stESt4hashIiENS_18_Mod_range_hashingENS_20_Default_ranged_hashELb0ELb0EEC1ERKNS_15_Hash_code_baseIiS3_S4_S6_S7_S8_Lb0EEEPNS_10_Hash_nodeIS3_Lb0EEEmm, symObjAddr: 0x6248, symBinAddr: 0x100009D6C, symSize: 0x40 }
  - { offsetInCU: 0x2B099, offset: 0x2B099, size: 0x8, addend: 0x0, symName: __ZNSt5tupleIJRKiEEC1EOS2_, symObjAddr: 0x61F0, symBinAddr: 0x100009D14, symSize: 0x28 }
  - { offsetInCU: 0x2B0A1, offset: 0x2B0A1, size: 0x8, addend: 0x0, symName: __ZNSt15__new_allocatorINSt8__detail10_Hash_nodeISt4pairIKiiELb0EEEE10deallocateEPS5_m, symObjAddr: 0x6218, symBinAddr: 0x100009D3C, symSize: 0x30 }
  - { offsetInCU: 0x2B0BC, offset: 0x2B0BC, size: 0x8, addend: 0x0, symName: __ZNSt15__new_allocatorINSt8__detail10_Hash_nodeISt4pairIKiiELb0EEEE8allocateEmPKv, symObjAddr: 0x6174, symBinAddr: 0x100009C98, symSize: 0x7C }
  - { offsetInCU: 0x2B0C4, offset: 0x2B0C4, size: 0x8, addend: 0x0, symName: __ZNSt5tupleIJRKiEEC1EOS2_, symObjAddr: 0x61F0, symBinAddr: 0x100009D14, symSize: 0x28 }
  - { offsetInCU: 0x2B14F, offset: 0x2B14F, size: 0x8, addend: 0x0, symName: __ZN9__gnu_cxx16__aligned_bufferISt4pairIKiiEE7_M_addrEv, symObjAddr: 0x6160, symBinAddr: 0x100009C84, symSize: 0x14 }
  - { offsetInCU: 0x2B157, offset: 0x2B157, size: 0x8, addend: 0x0, symName: __ZNSt15__new_allocatorINSt8__detail10_Hash_nodeISt4pairIKiiELb0EEEE8allocateEmPKv, symObjAddr: 0x6174, symBinAddr: 0x100009C98, symSize: 0x7C }
  - { offsetInCU: 0x2B183, offset: 0x2B183, size: 0x8, addend: 0x0, symName: __ZNSt8__detail15_Hashtable_baseIiSt4pairIKiiENS_10_Select1stESt8equal_toIiESt4hashIiENS_18_Mod_range_hashingENS_20_Default_ranged_hashENS_17_Hashtable_traitsILb0ELb0ELb1EEEE9_S_equalsEmRKNS_21_Hash_node_code_cacheILb0EEE, symObjAddr: 0x6148, symBinAddr: 0x100009C6C, symSize: 0x18 }
  - { offsetInCU: 0x2B18B, offset: 0x2B18B, size: 0x8, addend: 0x0, symName: __ZN9__gnu_cxx16__aligned_bufferISt4pairIKiiEE7_M_addrEv, symObjAddr: 0x6160, symBinAddr: 0x100009C84, symSize: 0x14 }
  - { offsetInCU: 0x2B277, offset: 0x2B277, size: 0x8, addend: 0x0, symName: __ZSt7forwardINSt8__detail14_Node_iteratorISt4pairIKiiELb0ELb0EEEEOT_RNSt16remove_referenceIS6_E4typeE, symObjAddr: 0x6134, symBinAddr: 0x100009C58, symSize: 0x14 }
  - { offsetInCU: 0x2B27F, offset: 0x2B27F, size: 0x8, addend: 0x0, symName: __ZNSt8__detail15_Hashtable_baseIiSt4pairIKiiENS_10_Select1stESt8equal_toIiESt4hashIiENS_18_Mod_range_hashingENS_20_Default_ranged_hashENS_17_Hashtable_traitsILb0ELb0ELb1EEEE9_S_equalsEmRKNS_21_Hash_node_code_cacheILb0EEE, symObjAddr: 0x6148, symBinAddr: 0x100009C6C, symSize: 0x18 }
  - { offsetInCU: 0x2B2CE, offset: 0x2B2CE, size: 0x8, addend: 0x0, symName: __ZSt7forwardIRNSt8__detail14_Node_iteratorISt4pairIKiiELb0ELb0EEEEOT_RNSt16remove_referenceIS7_E4typeE, symObjAddr: 0x6120, symBinAddr: 0x100009C44, symSize: 0x14 }
  - { offsetInCU: 0x2B2D6, offset: 0x2B2D6, size: 0x8, addend: 0x0, symName: __ZSt7forwardINSt8__detail14_Node_iteratorISt4pairIKiiELb0ELb0EEEEOT_RNSt16remove_referenceIS6_E4typeE, symObjAddr: 0x6134, symBinAddr: 0x100009C58, symSize: 0x14 }
  - { offsetInCU: 0x2B2D0, offset: 0x2B2D0, size: 0x8, addend: 0x0, symName: __ZSt7forwardIRSt4pairIKiiEEOT_RNSt16remove_referenceIS4_E4typeE, symObjAddr: 0x610C, symBinAddr: 0x100009C30, symSize: 0x14 }
  - { offsetInCU: 0x2B2D8, offset: 0x2B2D8, size: 0x8, addend: 0x0, symName: __ZSt7forwardIRNSt8__detail14_Node_iteratorISt4pairIKiiELb0ELb0EEEEOT_RNSt16remove_referenceIS7_E4typeE, symObjAddr: 0x6120, symBinAddr: 0x100009C44, symSize: 0x14 }
  - { offsetInCU: 0x2B2BE, offset: 0x2B2BE, size: 0x8, addend: 0x0, symName: __ZNSt8__detail16_Hashtable_allocISaINS_10_Hash_nodeISt4pairIKiiELb0EEEEE16_M_allocate_nodeIJS2_IiiEEEEPS5_DpOT_, symObjAddr: 0x601C, symBinAddr: 0x100009B40, symSize: 0xF0 }
  - { offsetInCU: 0x2B2C6, offset: 0x2B2C6, size: 0x8, addend: 0x0, symName: __ZSt7forwardIRSt4pairIKiiEEOT_RNSt16remove_referenceIS4_E4typeE, symObjAddr: 0x610C, symBinAddr: 0x100009C30, symSize: 0x14 }
  - { offsetInCU: 0x2B3F9, offset: 0x2B3F9, size: 0x8, addend: 0x0, symName: __ZNKSt8__detail21_Hash_node_value_baseISt4pairIKiiEE9_M_valptrEv, symObjAddr: 0x6000, symBinAddr: 0x100009B24, symSize: 0x1C }
  - { offsetInCU: 0x2B401, offset: 0x2B401, size: 0x8, addend: 0x0, symName: __ZNSt8__detail16_Hashtable_allocISaINS_10_Hash_nodeISt4pairIKiiELb0EEEEE16_M_allocate_nodeIJS2_IiiEEEEPS5_DpOT_, symObjAddr: 0x601C, symBinAddr: 0x100009B40, symSize: 0xF0 }
  - { offsetInCU: 0x2B42A, offset: 0x2B42A, size: 0x8, addend: 0x0, symName: __ZNKSt8__detail21_Hashtable_ebo_helperILi0ESt8equal_toIiELb1EE7_M_cgetEv, symObjAddr: 0x5FEC, symBinAddr: 0x100009B10, symSize: 0x14 }
  - { offsetInCU: 0x2B432, offset: 0x2B432, size: 0x8, addend: 0x0, symName: __ZNKSt8__detail21_Hash_node_value_baseISt4pairIKiiEE9_M_valptrEv, symObjAddr: 0x6000, symBinAddr: 0x100009B24, symSize: 0x1C }
  - { offsetInCU: 0x2B45B, offset: 0x2B45B, size: 0x8, addend: 0x0, symName: __ZNSt15__new_allocatorIPNSt8__detail15_Hash_node_baseEE10deallocateEPS2_m, symObjAddr: 0x5FBC, symBinAddr: 0x100009AE0, symSize: 0x30 }
  - { offsetInCU: 0x2B463, offset: 0x2B463, size: 0x8, addend: 0x0, symName: __ZNKSt8__detail21_Hashtable_ebo_helperILi0ESt8equal_toIiELb1EE7_M_cgetEv, symObjAddr: 0x5FEC, symBinAddr: 0x100009B10, symSize: 0x14 }
  - { offsetInCU: 0x2B51A, offset: 0x2B51A, size: 0x8, addend: 0x0, symName: __ZNSt15__new_allocatorIPNSt8__detail15_Hash_node_baseEED2Ev, symObjAddr: 0x5FA8, symBinAddr: 0x100009ACC, symSize: 0x14 }
  - { offsetInCU: 0x2B522, offset: 0x2B522, size: 0x8, addend: 0x0, symName: __ZNSt15__new_allocatorIPNSt8__detail15_Hash_node_baseEE10deallocateEPS2_m, symObjAddr: 0x5FBC, symBinAddr: 0x100009AE0, symSize: 0x30 }
  - { offsetInCU: 0x2B58F, offset: 0x2B58F, size: 0x8, addend: 0x0, symName: __ZSt9addressofIPNSt8__detail15_Hash_node_baseEEPT_RS3_, symObjAddr: 0x5F8C, symBinAddr: 0x100009AB0, symSize: 0x1C }
  - { offsetInCU: 0x2B597, offset: 0x2B597, size: 0x8, addend: 0x0, symName: __ZNSt15__new_allocatorIPNSt8__detail15_Hash_node_baseEED2Ev, symObjAddr: 0x5FA8, symBinAddr: 0x100009ACC, symSize: 0x14 }
  - { offsetInCU: 0x2B5C9, offset: 0x2B5C9, size: 0x8, addend: 0x0, symName: __ZSt11__addressofIKcEPT_RS1_, symObjAddr: 0x5F78, symBinAddr: 0x100009A9C, symSize: 0x14 }
  - { offsetInCU: 0x2B5D1, offset: 0x2B5D1, size: 0x8, addend: 0x0, symName: __ZSt9addressofIPNSt8__detail15_Hash_node_baseEEPT_RS3_, symObjAddr: 0x5F8C, symBinAddr: 0x100009AB0, symSize: 0x1C }
  - { offsetInCU: 0x2B6BF, offset: 0x2B6BF, size: 0x8, addend: 0x0, symName: __ZSt12__to_addressIPNSt8__detail15_Hash_node_baseEEPT_S4_, symObjAddr: 0x5F64, symBinAddr: 0x100009A88, symSize: 0x14 }
  - { offsetInCU: 0x2B6C7, offset: 0x2B6C7, size: 0x8, addend: 0x0, symName: __ZSt11__addressofIKcEPT_RS1_, symObjAddr: 0x5F78, symBinAddr: 0x100009A9C, symSize: 0x14 }
  - { offsetInCU: 0x2B6CF, offset: 0x2B6CF, size: 0x8, addend: 0x0, symName: __ZNSt19__ptr_traits_ptr_toIPNSt8__detail10_Hash_nodeISt4pairIKiiELb0EEES5_Lb0EE10pointer_toERS5_, symObjAddr: 0x5F48, symBinAddr: 0x100009A6C, symSize: 0x1C }
  - { offsetInCU: 0x2B6D7, offset: 0x2B6D7, size: 0x8, addend: 0x0, symName: __ZSt12__to_addressIPNSt8__detail15_Hash_node_baseEEPT_S4_, symObjAddr: 0x5F64, symBinAddr: 0x100009A88, symSize: 0x14 }
  - { offsetInCU: 0x2B73B, offset: 0x2B73B, size: 0x8, addend: 0x0, symName: __ZN11__gnu_debug20_Safe_local_iteratorINSt8__detail21_Local_const_iteratorIiSt4pairIKiiENS1_10_Select1stESt4hashIiENS1_18_Mod_range_hashingENS1_20_Default_ranged_hashELb0ELb0EEENSt7__debug13unordered_mapIiiS8_St8equal_toIiESaIS5_EEEE4baseEv, symObjAddr: 0x5F34, symBinAddr: 0x100009A58, symSize: 0x14 }
  - { offsetInCU: 0x2B743, offset: 0x2B743, size: 0x8, addend: 0x0, symName: __ZNSt19__ptr_traits_ptr_toIPNSt8__detail10_Hash_nodeISt4pairIKiiELb0EEES5_Lb0EE10pointer_toERS5_, symObjAddr: 0x5F48, symBinAddr: 0x100009A6C, symSize: 0x1C }
  - { offsetInCU: 0x2B856, offset: 0x2B856, size: 0x8, addend: 0x0, symName: __ZNSt8__detail21_Local_const_iteratorIiSt4pairIKiiENS_10_Select1stESt4hashIiENS_18_Mod_range_hashingENS_20_Default_ranged_hashELb0ELb0EEC1ERKNS_15_Local_iteratorIiS3_S4_S6_S7_S8_Lb0ELb0EEE, symObjAddr: 0x5F0C, symBinAddr: 0x100009A30, symSize: 0x28 }
  - { offsetInCU: 0x2B85E, offset: 0x2B85E, size: 0x8, addend: 0x0, symName: __ZN11__gnu_debug20_Safe_local_iteratorINSt8__detail21_Local_const_iteratorIiSt4pairIKiiENS1_10_Select1stESt4hashIiENS1_18_Mod_range_hashingENS1_20_Default_ranged_hashELb0ELb0EEENSt7__debug13unordered_mapIiiS8_St8equal_toIiESaIS5_EEEE4baseEv, symObjAddr: 0x5F34, symBinAddr: 0x100009A58, symSize: 0x14 }
  - { offsetInCU: 0x2B7D6, offset: 0x2B7D6, size: 0x8, addend: 0x0, symName: __ZN11__gnu_debug20_Safe_local_iteratorINSt8__detail15_Local_iteratorIiSt4pairIKiiENS1_10_Select1stESt4hashIiENS1_18_Mod_range_hashingENS1_20_Default_ranged_hashELb0ELb0EEENSt7__debug13unordered_mapIiiS8_St8equal_toIiESaIS5_EEEE4baseEv, symObjAddr: 0x5EF8, symBinAddr: 0x100009A1C, symSize: 0x14 }
  - { offsetInCU: 0x2B7DE, offset: 0x2B7DE, size: 0x8, addend: 0x0, symName: __ZNSt8__detail21_Local_const_iteratorIiSt4pairIKiiENS_10_Select1stESt4hashIiENS_18_Mod_range_hashingENS_20_Default_ranged_hashELb0ELb0EEC1ERKNS_15_Local_iteratorIiS3_S4_S6_S7_S8_Lb0ELb0EEE, symObjAddr: 0x5F0C, symBinAddr: 0x100009A30, symSize: 0x28 }
  - { offsetInCU: 0x2B807, offset: 0x2B807, size: 0x8, addend: 0x0, symName: __ZNKSt8__detail18_Hash_code_storageINS_15_Hash_code_baseIiSt4pairIKiiENS_10_Select1stESt4hashIiENS_18_Mod_range_hashingENS_20_Default_ranged_hashELb0EEELb1EE4_M_hEv, symObjAddr: 0x5EE4, symBinAddr: 0x100009A08, symSize: 0x14 }
  - { offsetInCU: 0x2B80F, offset: 0x2B80F, size: 0x8, addend: 0x0, symName: __ZN11__gnu_debug20_Safe_local_iteratorINSt8__detail15_Local_iteratorIiSt4pairIKiiENS1_10_Select1stESt4hashIiENS1_18_Mod_range_hashingENS1_20_Default_ranged_hashELb0ELb0EEENSt7__debug13unordered_mapIiiS8_St8equal_toIiESaIS5_EEEE4baseEv, symObjAddr: 0x5EF8, symBinAddr: 0x100009A1C, symSize: 0x14 }
  - { offsetInCU: 0x2B838, offset: 0x2B838, size: 0x8, addend: 0x0, symName: __ZNSt8__detail20_Local_iterator_baseIiSt4pairIKiiENS_10_Select1stESt4hashIiENS_18_Mod_range_hashingENS_20_Default_ranged_hashELb0EE7_M_initERKNS_15_Hash_code_baseIiS3_S4_S6_S7_S8_Lb0EEE, symObjAddr: 0x5EB4, symBinAddr: 0x1000099D8, symSize: 0x30 }
  - { offsetInCU: 0x2B840, offset: 0x2B840, size: 0x8, addend: 0x0, symName: __ZNKSt8__detail18_Hash_code_storageINS_15_Hash_code_baseIiSt4pairIKiiENS_10_Select1stESt4hashIiENS_18_Mod_range_hashingENS_20_Default_ranged_hashELb0EEELb1EE4_M_hEv, symObjAddr: 0x5EE4, symBinAddr: 0x100009A08, symSize: 0x14 }
  - { offsetInCU: 0x2B87E, offset: 0x2B87E, size: 0x8, addend: 0x0, symName: __ZNSt8__detail20_Local_iterator_baseIiSt4pairIKiiENS_10_Select1stESt4hashIiENS_18_Mod_range_hashingENS_20_Default_ranged_hashELb0EE10_M_destroyEv, symObjAddr: 0x5E94, symBinAddr: 0x1000099B8, symSize: 0x20 }
  - { offsetInCU: 0x2B886, offset: 0x2B886, size: 0x8, addend: 0x0, symName: __ZNSt8__detail20_Local_iterator_baseIiSt4pairIKiiENS_10_Select1stESt4hashIiENS_18_Mod_range_hashingENS_20_Default_ranged_hashELb0EE7_M_initERKNS_15_Hash_code_baseIiS3_S4_S6_S7_S8_Lb0EEE, symObjAddr: 0x5EB4, symBinAddr: 0x1000099D8, symSize: 0x30 }
  - { offsetInCU: 0x2B8AF, offset: 0x2B8AF, size: 0x8, addend: 0x0, symName: __ZNKSt10_HashtableIiSt4pairIKiiESaIS2_ENSt8__detail10_Select1stESt8equal_toIiESt4hashIiENS4_18_Mod_range_hashingENS4_20_Default_ranged_hashENS4_20_Prime_rehash_policyENS4_17_Hashtable_traitsILb0ELb0ELb1EEEE4cendEm, symObjAddr: 0x5E4C, symBinAddr: 0x100009970, symSize: 0x48 }
  - { offsetInCU: 0x2B8B7, offset: 0x2B8B7, size: 0x8, addend: 0x0, symName: __ZNSt8__detail20_Local_iterator_baseIiSt4pairIKiiENS_10_Select1stESt4hashIiENS_18_Mod_range_hashingENS_20_Default_ranged_hashELb0EE10_M_destroyEv, symObjAddr: 0x5E94, symBinAddr: 0x1000099B8, symSize: 0x20 }
  - { offsetInCU: 0x2B97A, offset: 0x2B97A, size: 0x8, addend: 0x0, symName: __ZNSt8__detail20_Node_const_iteratorISt4pairIKiiELb0ELb0EEC1EPNS_10_Hash_nodeIS3_Lb0EEE, symObjAddr: 0x5E24, symBinAddr: 0x100009948, symSize: 0x28 }
  - { offsetInCU: 0x2B982, offset: 0x2B982, size: 0x8, addend: 0x0, symName: __ZNKSt10_HashtableIiSt4pairIKiiESaIS2_ENSt8__detail10_Select1stESt8equal_toIiESt4hashIiENS4_18_Mod_range_hashingENS4_20_Default_ranged_hashENS4_20_Prime_rehash_policyENS4_17_Hashtable_traitsILb0ELb0ELb1EEEE4cendEm, symObjAddr: 0x5E4C, symBinAddr: 0x100009970, symSize: 0x48 }
  - { offsetInCU: 0x2B95F, offset: 0x2B95F, size: 0x8, addend: 0x0, symName: __ZNSt10_HashtableIiSt4pairIKiiESaIS2_ENSt8__detail10_Select1stESt8equal_toIiESt4hashIiENS4_18_Mod_range_hashingENS4_20_Default_ranged_hashENS4_20_Prime_rehash_policyENS4_17_Hashtable_traitsILb0ELb0ELb1EEEE13_M_rehash_auxEmSt17integral_constantIbLb1EE, symObjAddr: 0x5CB8, symBinAddr: 0x1000097DC, symSize: 0x16C }
  - { offsetInCU: 0x2B967, offset: 0x2B967, size: 0x8, addend: 0x0, symName: __ZNSt8__detail20_Node_const_iteratorISt4pairIKiiELb0ELb0EEC1EPNS_10_Hash_nodeIS3_Lb0EEE, symObjAddr: 0x5E24, symBinAddr: 0x100009948, symSize: 0x28 }
  - { offsetInCU: 0x2BB86, offset: 0x2BB86, size: 0x8, addend: 0x0, symName: __ZSt12__to_addressINSt8__detail10_Hash_nodeISt4pairIKiiELb0EEEEPT_S7_, symObjAddr: 0x5CA4, symBinAddr: 0x1000097C8, symSize: 0x14 }
  - { offsetInCU: 0x2BB8E, offset: 0x2BB8E, size: 0x8, addend: 0x0, symName: __ZNSt10_HashtableIiSt4pairIKiiESaIS2_ENSt8__detail10_Select1stESt8equal_toIiESt4hashIiENS4_18_Mod_range_hashingENS4_20_Default_ranged_hashENS4_20_Prime_rehash_policyENS4_17_Hashtable_traitsILb0ELb0ELb1EEEE13_M_rehash_auxEmSt17integral_constantIbLb1EE, symObjAddr: 0x5CB8, symBinAddr: 0x1000097DC, symSize: 0x16C }
  - { offsetInCU: 0x2BBBE, offset: 0x2BBBE, size: 0x8, addend: 0x0, symName: __ZNSt10_Head_baseILm0ERKiLb0EEC2ES1_, symObjAddr: 0x5C80, symBinAddr: 0x1000097A4, symSize: 0x24 }
  - { offsetInCU: 0x2BBC6, offset: 0x2BBC6, size: 0x8, addend: 0x0, symName: __ZSt12__to_addressINSt8__detail10_Hash_nodeISt4pairIKiiELb0EEEEPT_S7_, symObjAddr: 0x5CA4, symBinAddr: 0x1000097C8, symSize: 0x14 }
  - { offsetInCU: 0x2BBD6, offset: 0x2BBD6, size: 0x8, addend: 0x0, symName: __ZN9__gnu_cxx16__aligned_bufferISt4pairIKiiEE6_M_ptrEv, symObjAddr: 0x5C64, symBinAddr: 0x100009788, symSize: 0x1C }
  - { offsetInCU: 0x2BBDE, offset: 0x2BBDE, size: 0x8, addend: 0x0, symName: __ZNSt10_Head_baseILm0ERKiLb0EEC2ES1_, symObjAddr: 0x5C80, symBinAddr: 0x1000097A4, symSize: 0x24 }
  - { offsetInCU: 0x2BC07, offset: 0x2BC07, size: 0x8, addend: 0x0, symName: __ZNKSt8__detail15_Hashtable_baseIiSt4pairIKiiENS_10_Select1stESt8equal_toIiESt4hashIiENS_18_Mod_range_hashingENS_20_Default_ranged_hashENS_17_Hashtable_traitsILb0ELb0ELb1EEEE9_M_equalsERS2_mRKNS_16_Hash_node_valueIS3_Lb0EEE, symObjAddr: 0x5BFC, symBinAddr: 0x100009720, symSize: 0x68 }
  - { offsetInCU: 0x2BC0F, offset: 0x2BC0F, size: 0x8, addend: 0x0, symName: __ZN9__gnu_cxx16__aligned_bufferISt4pairIKiiEE6_M_ptrEv, symObjAddr: 0x5C64, symBinAddr: 0x100009788, symSize: 0x1C }
  - { offsetInCU: 0x2BC77, offset: 0x2BC77, size: 0x8, addend: 0x0, symName: __ZNKSt8__detail21_Hashtable_ebo_helperILi1ESt4hashIiELb1EE7_M_cgetEv, symObjAddr: 0x5BE8, symBinAddr: 0x10000970C, symSize: 0x14 }
  - { offsetInCU: 0x2BC7F, offset: 0x2BC7F, size: 0x8, addend: 0x0, symName: __ZNKSt8__detail15_Hashtable_baseIiSt4pairIKiiENS_10_Select1stESt8equal_toIiESt4hashIiENS_18_Mod_range_hashingENS_20_Default_ranged_hashENS_17_Hashtable_traitsILb0ELb0ELb1EEEE9_M_equalsERS2_mRKNS_16_Hash_node_valueIS3_Lb0EEE, symObjAddr: 0x5BFC, symBinAddr: 0x100009720, symSize: 0x68 }
  - { offsetInCU: 0x2BD51, offset: 0x2BD51, size: 0x8, addend: 0x0, symName: __ZNSt4pairINSt8__detail14_Node_iteratorIS_IKiiELb0ELb0EEEbEC1IS4_bLb1EEEOT_OT0_, symObjAddr: 0x5B9C, symBinAddr: 0x1000096C0, symSize: 0x4C }
  - { offsetInCU: 0x2BD59, offset: 0x2BD59, size: 0x8, addend: 0x0, symName: __ZNKSt8__detail21_Hashtable_ebo_helperILi1ESt4hashIiELb1EE7_M_cgetEv, symObjAddr: 0x5BE8, symBinAddr: 0x10000970C, symSize: 0x14 }
  - { offsetInCU: 0x2BE0F, offset: 0x2BE0F, size: 0x8, addend: 0x0, symName: __ZNSt4pairINSt8__detail14_Node_iteratorIS_IKiiELb0ELb0EEEbEC1IRS4_bLb1EEEOT_OT0_, symObjAddr: 0x5B50, symBinAddr: 0x100009674, symSize: 0x4C }
  - { offsetInCU: 0x2BE17, offset: 0x2BE17, size: 0x8, addend: 0x0, symName: __ZNSt4pairINSt8__detail14_Node_iteratorIS_IKiiELb0ELb0EEEbEC1IS4_bLb1EEEOT_OT0_, symObjAddr: 0x5B9C, symBinAddr: 0x1000096C0, symSize: 0x4C }
  - { offsetInCU: 0x2BE35, offset: 0x2BE35, size: 0x8, addend: 0x0, symName: __ZNKSt8__detail10_Select1stclIRSt4pairIKiiEEEONS0_10__1st_typeIT_E4typeEOS7_, symObjAddr: 0x5B30, symBinAddr: 0x100009654, symSize: 0x20 }
  - { offsetInCU: 0x2BE3D, offset: 0x2BE3D, size: 0x8, addend: 0x0, symName: __ZNSt4pairINSt8__detail14_Node_iteratorIS_IKiiELb0ELb0EEEbEC1IRS4_bLb1EEEOT_OT0_, symObjAddr: 0x5B50, symBinAddr: 0x100009674, symSize: 0x4C }
  - { offsetInCU: 0x2BFFA, offset: 0x2BFFA, size: 0x8, addend: 0x0, symName: __ZNSt10_HashtableIiSt4pairIKiiESaIS2_ENSt8__detail10_Select1stESt8equal_toIiESt4hashIiENS4_18_Mod_range_hashingENS4_20_Default_ranged_hashENS4_20_Prime_rehash_policyENS4_17_Hashtable_traitsILb0ELb0ELb1EEEE12_Scoped_nodeC1IJS0_IiiEEEEPNS4_16_Hashtable_allocISaINS4_10_Hash_nodeIS2_Lb0EEEEEEDpOT_, symObjAddr: 0x5AD8, symBinAddr: 0x1000095FC, symSize: 0x58 }
  - { offsetInCU: 0x2C002, offset: 0x2C002, size: 0x8, addend: 0x0, symName: __ZNKSt8__detail10_Select1stclIRSt4pairIKiiEEEONS0_10__1st_typeIT_E4typeEOS7_, symObjAddr: 0x5B30, symBinAddr: 0x100009654, symSize: 0x20 }
  - { offsetInCU: 0x2BFB3, offset: 0x2BFB3, size: 0x8, addend: 0x0, symName: __ZNSt8__detail19_Node_iterator_baseISt4pairIKiiELb0EEC2EPNS_10_Hash_nodeIS3_Lb0EEE, symObjAddr: 0x5AB4, symBinAddr: 0x1000095D8, symSize: 0x24 }
  - { offsetInCU: 0x2BFBB, offset: 0x2BFBB, size: 0x8, addend: 0x0, symName: __ZNSt10_HashtableIiSt4pairIKiiESaIS2_ENSt8__detail10_Select1stESt8equal_toIiESt4hashIiENS4_18_Mod_range_hashingENS4_20_Default_ranged_hashENS4_20_Prime_rehash_policyENS4_17_Hashtable_traitsILb0ELb0ELb1EEEE12_Scoped_nodeC1IJS0_IiiEEEEPNS4_16_Hashtable_allocISaINS4_10_Hash_nodeIS2_Lb0EEEEEEDpOT_, symObjAddr: 0x5AD8, symBinAddr: 0x1000095FC, symSize: 0x58 }
  - { offsetInCU: 0x2BF9D, offset: 0x2BF9D, size: 0x8, addend: 0x0, symName: __ZNKSt8equal_toIiEclERKiS2_, symObjAddr: 0x5A80, symBinAddr: 0x1000095A4, symSize: 0x34 }
  - { offsetInCU: 0x2BFA5, offset: 0x2BFA5, size: 0x8, addend: 0x0, symName: __ZNSt8__detail19_Node_iterator_baseISt4pairIKiiELb0EEC2EPNS_10_Hash_nodeIS3_Lb0EEE, symObjAddr: 0x5AB4, symBinAddr: 0x1000095D8, symSize: 0x24 }
  - { offsetInCU: 0x2BFF8, offset: 0x2BFF8, size: 0x8, addend: 0x0, symName: __ZNKSt8__detail10_Select1stclIRKSt4pairIKiiEEEONS0_10__1st_typeIT_E4typeEOS8_, symObjAddr: 0x5A60, symBinAddr: 0x100009584, symSize: 0x20 }
  - { offsetInCU: 0x2C000, offset: 0x2C000, size: 0x8, addend: 0x0, symName: __ZNKSt8equal_toIiEclERKiS2_, symObjAddr: 0x5A80, symBinAddr: 0x1000095A4, symSize: 0x34 }
  - { offsetInCU: 0x2C04A, offset: 0x2C04A, size: 0x8, addend: 0x0, symName: __ZNKSt8__detail21_Hash_node_value_baseISt4pairIKiiEE4_M_vEv, symObjAddr: 0x5A44, symBinAddr: 0x100009568, symSize: 0x1C }
  - { offsetInCU: 0x2C052, offset: 0x2C052, size: 0x8, addend: 0x0, symName: __ZNKSt8__detail10_Select1stclIRKSt4pairIKiiEEEONS0_10__1st_typeIT_E4typeEOS8_, symObjAddr: 0x5A60, symBinAddr: 0x100009584, symSize: 0x20 }
  - { offsetInCU: 0x2C07B, offset: 0x2C07B, size: 0x8, addend: 0x0, symName: __ZNKSt8__detail15_Hashtable_baseIiSt4pairIKiiENS_10_Select1stESt8equal_toIiESt4hashIiENS_18_Mod_range_hashingENS_20_Default_ranged_hashENS_17_Hashtable_traitsILb0ELb0ELb1EEEE5_M_eqEv, symObjAddr: 0x5A28, symBinAddr: 0x10000954C, symSize: 0x1C }
  - { offsetInCU: 0x2C083, offset: 0x2C083, size: 0x8, addend: 0x0, symName: __ZNKSt8__detail21_Hash_node_value_baseISt4pairIKiiEE4_M_vEv, symObjAddr: 0x5A44, symBinAddr: 0x100009568, symSize: 0x1C }
  - { offsetInCU: 0x2C0AD, offset: 0x2C0AD, size: 0x8, addend: 0x0, symName: __ZNSt8__detail22_Hashtable_hash_traitsISt4hashIiEE22__small_size_thresholdEv, symObjAddr: 0x5A20, symBinAddr: 0x100009544, symSize: 0x8 }
  - { offsetInCU: 0x2C0B5, offset: 0x2C0B5, size: 0x8, addend: 0x0, symName: __ZNKSt8__detail15_Hashtable_baseIiSt4pairIKiiENS_10_Select1stESt8equal_toIiESt4hashIiENS_18_Mod_range_hashingENS_20_Default_ranged_hashENS_17_Hashtable_traitsILb0ELb0ELb1EEEE5_M_eqEv, symObjAddr: 0x5A28, symBinAddr: 0x10000954C, symSize: 0x1C }
  - { offsetInCU: 0x2C166, offset: 0x2C166, size: 0x8, addend: 0x0, symName: __ZNSt19__ptr_traits_ptr_toIPPNSt8__detail15_Hash_node_baseES2_Lb0EE10pointer_toERS2_, symObjAddr: 0x5A04, symBinAddr: 0x100009528, symSize: 0x1C }
  - { offsetInCU: 0x2C16E, offset: 0x2C16E, size: 0x8, addend: 0x0, symName: __ZNSt8__detail22_Hashtable_hash_traitsISt4hashIiEE22__small_size_thresholdEv, symObjAddr: 0x5A20, symBinAddr: 0x100009544, symSize: 0x8 }
  - { offsetInCU: 0x2C199, offset: 0x2C199, size: 0x8, addend: 0x0, symName: __ZNSt15__new_allocatorIcE8allocateEmPKv, symObjAddr: 0x59A0, symBinAddr: 0x1000094C4, symSize: 0x64 }
  - { offsetInCU: 0x2C1A1, offset: 0x2C1A1, size: 0x8, addend: 0x0, symName: __ZNSt19__ptr_traits_ptr_toIPPNSt8__detail15_Hash_node_baseES2_Lb0EE10pointer_toERS2_, symObjAddr: 0x5A04, symBinAddr: 0x100009528, symSize: 0x1C }
  - { offsetInCU: 0x2C25B, offset: 0x2C25B, size: 0x8, addend: 0x0, symName: __ZSt9addressofIKcEPT_RS1_, symObjAddr: 0x5984, symBinAddr: 0x1000094A8, symSize: 0x1C }
  - { offsetInCU: 0x2C263, offset: 0x2C263, size: 0x8, addend: 0x0, symName: __ZNSt15__new_allocatorIcE8allocateEmPKv, symObjAddr: 0x59A0, symBinAddr: 0x1000094C4, symSize: 0x64 }
  - { offsetInCU: 0x2C2C3, offset: 0x2C2C3, size: 0x8, addend: 0x0, symName: __ZSt11__addressofIcEPT_RS0_, symObjAddr: 0x5970, symBinAddr: 0x100009494, symSize: 0x14 }
  - { offsetInCU: 0x2C2CB, offset: 0x2C2CB, size: 0x8, addend: 0x0, symName: __ZSt9addressofIKcEPT_RS1_, symObjAddr: 0x5984, symBinAddr: 0x1000094A8, symSize: 0x1C }
  - { offsetInCU: 0x2C2DD, offset: 0x2C2DD, size: 0x8, addend: 0x0, symName: __ZN11__gnu_debug18_BeforeBeginHelperINSt7__debug13unordered_mapIiiSt4hashIiESt8equal_toIiESaISt4pairIKiiEEEEE5_S_IsINSt8__detail14_Node_iteratorIS9_Lb0ELb0EEESt20forward_iterator_tagEEbRKNS_14_Safe_iteratorIT_SB_T0_EE, symObjAddr: 0x595C, symBinAddr: 0x100009480, symSize: 0x14 }
  - { offsetInCU: 0x2C2E5, offset: 0x2C2E5, size: 0x8, addend: 0x0, symName: __ZSt11__addressofIcEPT_RS0_, symObjAddr: 0x5970, symBinAddr: 0x100009494, symSize: 0x14 }
  - { offsetInCU: 0x2C336, offset: 0x2C336, size: 0x8, addend: 0x0, symName: __ZNKSt8__detail17_ReuseOrAllocNodeISaINS_10_Hash_nodeISt4pairIKiiELb0EEEEEclIJRKS4_EEEPS5_DpOT_, symObjAddr: 0x581C, symBinAddr: 0x100009340, symSize: 0x140 }
  - { offsetInCU: 0x2C33E, offset: 0x2C33E, size: 0x8, addend: 0x0, symName: __ZN11__gnu_debug18_BeforeBeginHelperINSt7__debug13unordered_mapIiiSt4hashIiESt8equal_toIiESaISt4pairIKiiEEEEE5_S_IsINSt8__detail14_Node_iteratorIS9_Lb0ELb0EEESt20forward_iterator_tagEEbRKNS_14_Safe_iteratorIT_SB_T0_EE, symObjAddr: 0x595C, symBinAddr: 0x100009480, symSize: 0x14 }
  - { offsetInCU: 0x2C4B6, offset: 0x2C4B6, size: 0x8, addend: 0x0, symName: __ZNKSt8__detail15_Hash_code_baseIiSt4pairIKiiENS_10_Select1stESt4hashIiENS_18_Mod_range_hashingENS_20_Default_ranged_hashELb0EE15_M_bucket_indexERKNS_16_Hash_node_valueIS3_Lb0EEEm, symObjAddr: 0x57D0, symBinAddr: 0x1000092F4, symSize: 0x4C }
  - { offsetInCU: 0x2C4BE, offset: 0x2C4BE, size: 0x8, addend: 0x0, symName: __ZNKSt8__detail17_ReuseOrAllocNodeISaINS_10_Hash_nodeISt4pairIKiiELb0EEEEEclIJRKS4_EEEPS5_DpOT_, symObjAddr: 0x581C, symBinAddr: 0x100009340, symSize: 0x140 }
  - { offsetInCU: 0x2C511, offset: 0x2C511, size: 0x8, addend: 0x0, symName: __ZNSt8__detail16_Hashtable_allocISaINS_10_Hash_nodeISt4pairIKiiELb0EEEEE16_M_allocate_nodeIJRKS4_EEEPS5_DpOT_, symObjAddr: 0x56E4, symBinAddr: 0x100009208, symSize: 0xEC }
  - { offsetInCU: 0x2C519, offset: 0x2C519, size: 0x8, addend: 0x0, symName: __ZNKSt8__detail15_Hash_code_baseIiSt4pairIKiiENS_10_Select1stESt4hashIiENS_18_Mod_range_hashingENS_20_Default_ranged_hashELb0EE15_M_bucket_indexERKNS_16_Hash_node_valueIS3_Lb0EEEm, symObjAddr: 0x57D0, symBinAddr: 0x1000092F4, symSize: 0x4C }
  - { offsetInCU: 0x2C6BB, offset: 0x2C6BB, size: 0x8, addend: 0x0, symName: __ZSt7forwardIRKSt4pairIKiiEEOT_RNSt16remove_referenceIS5_E4typeE, symObjAddr: 0x56D0, symBinAddr: 0x1000091F4, symSize: 0x14 }
  - { offsetInCU: 0x2C6C3, offset: 0x2C6C3, size: 0x8, addend: 0x0, symName: __ZNSt8__detail16_Hashtable_allocISaINS_10_Hash_nodeISt4pairIKiiELb0EEEEE16_M_allocate_nodeIJRKS4_EEEPS5_DpOT_, symObjAddr: 0x56E4, symBinAddr: 0x100009208, symSize: 0xEC }
  - { offsetInCU: 0x2C704, offset: 0x2C704, size: 0x8, addend: 0x0, symName: __ZSt4moveIRSt4pairIKiiEEONSt16remove_referenceIT_E4typeEOS5_, symObjAddr: 0x56BC, symBinAddr: 0x1000091E0, symSize: 0x14 }
  - { offsetInCU: 0x2C70C, offset: 0x2C70C, size: 0x8, addend: 0x0, symName: __ZSt7forwardIRKSt4pairIKiiEEOT_RNSt16remove_referenceIS5_E4typeE, symObjAddr: 0x56D0, symBinAddr: 0x1000091F4, symSize: 0x14 }
  - { offsetInCU: 0x2C6F8, offset: 0x2C6F8, size: 0x8, addend: 0x0, symName: __ZNSt8__detail16_Hashtable_allocISaINS_10_Hash_nodeISt4pairIKiiELb0EEEEE19_M_allocate_bucketsEm, symObjAddr: 0x5604, symBinAddr: 0x100009128, symSize: 0xB8 }
  - { offsetInCU: 0x2C700, offset: 0x2C700, size: 0x8, addend: 0x0, symName: __ZSt4moveIRSt4pairIKiiEEONSt16remove_referenceIT_E4typeEOS5_, symObjAddr: 0x56BC, symBinAddr: 0x1000091E0, symSize: 0x14 }
  - { offsetInCU: 0x2C853, offset: 0x2C853, size: 0x8, addend: 0x0, symName: __ZNSt8__detail16_Hashtable_allocISaINS_10_Hash_nodeISt4pairIKiiELb0EEEEE22_M_deallocate_node_ptrEPS5_, symObjAddr: 0x55AC, symBinAddr: 0x1000090D0, symSize: 0x58 }
  - { offsetInCU: 0x2C85B, offset: 0x2C85B, size: 0x8, addend: 0x0, symName: __ZNSt8__detail16_Hashtable_allocISaINS_10_Hash_nodeISt4pairIKiiELb0EEEEE19_M_allocate_bucketsEm, symObjAddr: 0x5604, symBinAddr: 0x100009128, symSize: 0xB8 }
  - { offsetInCU: 0x2C941, offset: 0x2C941, size: 0x8, addend: 0x0, symName: __ZN11__gnu_debug25_Safe_unordered_containerINSt7__debug13unordered_mapIiiSt4hashIiESt8equal_toIiESaISt4pairIKiiEEEEE22_M_invalidate_local_ifIZNSC_20_M_invalidate_localsEvEUlNSt8__detail21_Local_const_iteratorIiS9_NSE_10_Select1stES4_NSE_18_Mod_range_hashingENSE_20_Default_ranged_hashELb0ELb0EEEE_EEvT_, symObjAddr: 0x5360, symBinAddr: 0x100008E84, symSize: 0x24C }
  - { offsetInCU: 0x2C949, offset: 0x2C949, size: 0x8, addend: 0x0, symName: __ZNSt8__detail16_Hashtable_allocISaINS_10_Hash_nodeISt4pairIKiiELb0EEEEE22_M_deallocate_node_ptrEPS5_, symObjAddr: 0x55AC, symBinAddr: 0x1000090D0, symSize: 0x58 }
  - { offsetInCU: 0x2CB2F, offset: 0x2CB2F, size: 0x8, addend: 0x0, symName: __ZNSt8__detail20_Local_iterator_baseIiSt4pairIKiiENS_10_Select1stESt4hashIiENS_18_Mod_range_hashingENS_20_Default_ranged_hashELb0EEC2ERKS9_, symObjAddr: 0x52E8, symBinAddr: 0x100008E0C, symSize: 0x78 }
  - { offsetInCU: 0x2CB37, offset: 0x2CB37, size: 0x8, addend: 0x0, symName: __ZN11__gnu_debug25_Safe_unordered_containerINSt7__debug13unordered_mapIiiSt4hashIiESt8equal_toIiESaISt4pairIKiiEEEEE22_M_invalidate_local_ifIZNSC_20_M_invalidate_localsEvEUlNSt8__detail21_Local_const_iteratorIiS9_NSE_10_Select1stES4_NSE_18_Mod_range_hashingENSE_20_Default_ranged_hashELb0ELb0EEEE_EEvT_, symObjAddr: 0x5360, symBinAddr: 0x100008E84, symSize: 0x24C }
  - { offsetInCU: 0x2CB92, offset: 0x2CB92, size: 0x8, addend: 0x0, symName: __ZNSt8__detail20_Local_iterator_baseIiSt4pairIKiiENS_10_Select1stESt4hashIiENS_18_Mod_range_hashingENS_20_Default_ranged_hashELb0EED2Ev, symObjAddr: 0x52B8, symBinAddr: 0x100008DDC, symSize: 0x30 }
  - { offsetInCU: 0x2CB9A, offset: 0x2CB9A, size: 0x8, addend: 0x0, symName: __ZNSt8__detail20_Local_iterator_baseIiSt4pairIKiiENS_10_Select1stESt4hashIiENS_18_Mod_range_hashingENS_20_Default_ranged_hashELb0EEC2ERKS9_, symObjAddr: 0x52E8, symBinAddr: 0x100008E0C, symSize: 0x78 }
  - { offsetInCU: 0x2CB3A, offset: 0x2CB3A, size: 0x8, addend: 0x0, symName: __ZNKSt9__cxx199813unordered_mapIiiSt4hashIiESt8equal_toIiESaISt4pairIKiiEEE4cendEm, symObjAddr: 0x5280, symBinAddr: 0x100008DA4, symSize: 0x38 }
  - { offsetInCU: 0x2CB42, offset: 0x2CB42, size: 0x8, addend: 0x0, symName: __ZNSt8__detail20_Local_iterator_baseIiSt4pairIKiiENS_10_Select1stESt4hashIiENS_18_Mod_range_hashingENS_20_Default_ranged_hashELb0EED2Ev, symObjAddr: 0x52B8, symBinAddr: 0x100008DDC, symSize: 0x30 }
  - { offsetInCU: 0x2CB80, offset: 0x2CB80, size: 0x8, addend: 0x0, symName: __ZN11__gnu_debug14_Safe_iteratorINSt8__detail20_Node_const_iteratorISt4pairIKiiELb0ELb0EEENSt7__debug13unordered_mapIiiSt4hashIiESt8equal_toIiESaIS5_EEESt20forward_iterator_tagE4baseEv, symObjAddr: 0x526C, symBinAddr: 0x100008D90, symSize: 0x14 }
  - { offsetInCU: 0x2CB88, offset: 0x2CB88, size: 0x8, addend: 0x0, symName: __ZNKSt9__cxx199813unordered_mapIiiSt4hashIiESt8equal_toIiESaISt4pairIKiiEEE4cendEm, symObjAddr: 0x5280, symBinAddr: 0x100008DA4, symSize: 0x38 }
  - { offsetInCU: 0x2CC3F, offset: 0x2CC3F, size: 0x8, addend: 0x0, symName: __ZNSt8__detail20_Node_const_iteratorISt4pairIKiiELb0ELb0EEC1ERKNS_14_Node_iteratorIS3_Lb0ELb0EEE, symObjAddr: 0x5238, symBinAddr: 0x100008D5C, symSize: 0x34 }
  - { offsetInCU: 0x2CC47, offset: 0x2CC47, size: 0x8, addend: 0x0, symName: __ZN11__gnu_debug14_Safe_iteratorINSt8__detail20_Node_const_iteratorISt4pairIKiiELb0ELb0EEENSt7__debug13unordered_mapIiiSt4hashIiESt8equal_toIiESaIS5_EEESt20forward_iterator_tagE4baseEv, symObjAddr: 0x526C, symBinAddr: 0x100008D90, symSize: 0x14 }
  - { offsetInCU: 0x2CC1B, offset: 0x2CC1B, size: 0x8, addend: 0x0, symName: __ZNKSt10_HashtableIiSt4pairIKiiESaIS2_ENSt8__detail10_Select1stESt8equal_toIiESt4hashIiENS4_18_Mod_range_hashingENS4_20_Default_ranged_hashENS4_20_Prime_rehash_policyENS4_17_Hashtable_traitsILb0ELb0ELb1EEEE3endEv, symObjAddr: 0x5214, symBinAddr: 0x100008D38, symSize: 0x24 }
  - { offsetInCU: 0x2CC23, offset: 0x2CC23, size: 0x8, addend: 0x0, symName: __ZNSt8__detail20_Node_const_iteratorISt4pairIKiiELb0ELb0EEC1ERKNS_14_Node_iteratorIS3_Lb0ELb0EEE, symObjAddr: 0x5238, symBinAddr: 0x100008D5C, symSize: 0x34 }
  - { offsetInCU: 0x2CC4C, offset: 0x2CC4C, size: 0x8, addend: 0x0, symName: __ZNSt10_HashtableIiSt4pairIKiiESaIS2_ENSt8__detail10_Select1stESt8equal_toIiESt4hashIiENS4_18_Mod_range_hashingENS4_20_Default_ranged_hashENS4_20_Prime_rehash_policyENS4_17_Hashtable_traitsILb0ELb0ELb1EEEE22_M_insert_bucket_beginEmPNS4_10_Hash_nodeIS2_Lb0EEE, symObjAddr: 0x5108, symBinAddr: 0x100008C2C, symSize: 0x10C }
  - { offsetInCU: 0x2CC54, offset: 0x2CC54, size: 0x8, addend: 0x0, symName: __ZNKSt10_HashtableIiSt4pairIKiiESaIS2_ENSt8__detail10_Select1stESt8equal_toIiESt4hashIiENS4_18_Mod_range_hashingENS4_20_Default_ranged_hashENS4_20_Prime_rehash_policyENS4_17_Hashtable_traitsILb0ELb0ELb1EEEE3endEv, symObjAddr: 0x5214, symBinAddr: 0x100008D38, symSize: 0x24 }
  - { offsetInCU: 0x2CCA7, offset: 0x2CCA7, size: 0x8, addend: 0x0, symName: __ZNKSt8__detail15_Hash_code_baseIiSt4pairIKiiENS_10_Select1stESt4hashIiENS_18_Mod_range_hashingENS_20_Default_ranged_hashELb0EE13_M_store_codeERNS_21_Hash_node_code_cacheILb0EEEm, symObjAddr: 0x50EC, symBinAddr: 0x100008C10, symSize: 0x1C }
  - { offsetInCU: 0x2CCAF, offset: 0x2CCAF, size: 0x8, addend: 0x0, symName: __ZNSt10_HashtableIiSt4pairIKiiESaIS2_ENSt8__detail10_Select1stESt8equal_toIiESt4hashIiENS4_18_Mod_range_hashingENS4_20_Default_ranged_hashENS4_20_Prime_rehash_policyENS4_17_Hashtable_traitsILb0ELb0ELb1EEEE22_M_insert_bucket_beginEmPNS4_10_Hash_nodeIS2_Lb0EEE, symObjAddr: 0x5108, symBinAddr: 0x100008C2C, symSize: 0x10C }
  - { offsetInCU: 0x2CCF2, offset: 0x2CCF2, size: 0x8, addend: 0x0, symName: __ZNSt10_HashtableIiSt4pairIKiiESaIS2_ENSt8__detail10_Select1stESt8equal_toIiESt4hashIiENS4_18_Mod_range_hashingENS4_20_Default_ranged_hashENS4_20_Prime_rehash_policyENS4_17_Hashtable_traitsILb0ELb0ELb1EEEE9_M_rehashEmRKm, symObjAddr: 0x5080, symBinAddr: 0x100008BA4, symSize: 0x6C }
  - { offsetInCU: 0x2CCFA, offset: 0x2CCFA, size: 0x8, addend: 0x0, symName: __ZNKSt8__detail15_Hash_code_baseIiSt4pairIKiiENS_10_Select1stESt4hashIiENS_18_Mod_range_hashingENS_20_Default_ranged_hashELb0EE13_M_store_codeERNS_21_Hash_node_code_cacheILb0EEEm, symObjAddr: 0x50EC, symBinAddr: 0x100008C10, symSize: 0x1C }
  - { offsetInCU: 0x2CD4D, offset: 0x2CD4D, size: 0x8, addend: 0x0, symName: __ZNSt8__detail16_Hashtable_allocISaINS_10_Hash_nodeISt4pairIKiiELb0EEEEE16_M_allocate_nodeIJRKSt21piecewise_construct_tSt5tupleIJRS3_EESC_IJEEEEEPS5_DpOT_, symObjAddr: 0x4EA0, symBinAddr: 0x1000089C4, symSize: 0x1E0 }
  - { offsetInCU: 0x2CD55, offset: 0x2CD55, size: 0x8, addend: 0x0, symName: __ZNSt10_HashtableIiSt4pairIKiiESaIS2_ENSt8__detail10_Select1stESt8equal_toIiESt4hashIiENS4_18_Mod_range_hashingENS4_20_Default_ranged_hashENS4_20_Prime_rehash_policyENS4_17_Hashtable_traitsILb0ELb0ELb1EEEE9_M_rehashEmRKm, symObjAddr: 0x5080, symBinAddr: 0x100008BA4, symSize: 0x6C }
  - { offsetInCU: 0x2CF83, offset: 0x2CF83, size: 0x8, addend: 0x0, symName: __ZNSt8__detail10_Hash_nodeISt4pairIKiiELb0EEC1Ev, symObjAddr: 0x4E80, symBinAddr: 0x1000089A4, symSize: 0x20 }
  - { offsetInCU: 0x2CF8B, offset: 0x2CF8B, size: 0x8, addend: 0x0, symName: __ZNSt8__detail16_Hashtable_allocISaINS_10_Hash_nodeISt4pairIKiiELb0EEEEE16_M_allocate_nodeIJRKSt21piecewise_construct_tSt5tupleIJRS3_EESC_IJEEEEEPS5_DpOT_, symObjAddr: 0x4EA0, symBinAddr: 0x1000089C4, symSize: 0x1E0 }
  - { offsetInCU: 0x2CFDC, offset: 0x2CFDC, size: 0x8, addend: 0x0, symName: __ZSt7forwardISt5tupleIJEEEOT_RNSt16remove_referenceIS2_E4typeE, symObjAddr: 0x4E6C, symBinAddr: 0x100008990, symSize: 0x14 }
  - { offsetInCU: 0x2CFE4, offset: 0x2CFE4, size: 0x8, addend: 0x0, symName: __ZNSt8__detail10_Hash_nodeISt4pairIKiiELb0EEC1Ev, symObjAddr: 0x4E80, symBinAddr: 0x1000089A4, symSize: 0x20 }
  - { offsetInCU: 0x2D03F, offset: 0x2D03F, size: 0x8, addend: 0x0, symName: __ZSt7forwardISt5tupleIJRKiEEEOT_RNSt16remove_referenceIS4_E4typeE, symObjAddr: 0x4E58, symBinAddr: 0x10000897C, symSize: 0x14 }
  - { offsetInCU: 0x2D047, offset: 0x2D047, size: 0x8, addend: 0x0, symName: __ZSt7forwardISt5tupleIJEEEOT_RNSt16remove_referenceIS2_E4typeE, symObjAddr: 0x4E6C, symBinAddr: 0x100008990, symSize: 0x14 }
  - { offsetInCU: 0x2D0AB, offset: 0x2D0AB, size: 0x8, addend: 0x0, symName: __ZSt7forwardIRKSt21piecewise_construct_tEOT_RNSt16remove_referenceIS3_E4typeE, symObjAddr: 0x4E44, symBinAddr: 0x100008968, symSize: 0x14 }
  - { offsetInCU: 0x2D0B3, offset: 0x2D0B3, size: 0x8, addend: 0x0, symName: __ZSt7forwardISt5tupleIJRKiEEEOT_RNSt16remove_referenceIS4_E4typeE, symObjAddr: 0x4E58, symBinAddr: 0x10000897C, symSize: 0x14 }
  - { offsetInCU: 0x2D0D5, offset: 0x2D0D5, size: 0x8, addend: 0x0, symName: __ZNSt11_Tuple_implILm0EJRKiEEC2ES1_, symObjAddr: 0x4E1C, symBinAddr: 0x100008940, symSize: 0x28 }
  - { offsetInCU: 0x2D0DD, offset: 0x2D0DD, size: 0x8, addend: 0x0, symName: __ZSt7forwardIRKSt21piecewise_construct_tEOT_RNSt16remove_referenceIS3_E4typeE, symObjAddr: 0x4E44, symBinAddr: 0x100008968, symSize: 0x14 }
  - { offsetInCU: 0x2D0EE, offset: 0x2D0EE, size: 0x8, addend: 0x0, symName: __ZNSt8__detail21_Hash_node_value_baseISt4pairIKiiEE9_M_valptrEv, symObjAddr: 0x4E00, symBinAddr: 0x100008924, symSize: 0x1C }
  - { offsetInCU: 0x2D0F6, offset: 0x2D0F6, size: 0x8, addend: 0x0, symName: __ZNSt11_Tuple_implILm0EJRKiEEC2ES1_, symObjAddr: 0x4E1C, symBinAddr: 0x100008940, symSize: 0x28 }
  - { offsetInCU: 0x2D11F, offset: 0x2D11F, size: 0x8, addend: 0x0, symName: __ZNKSt10_HashtableIiSt4pairIKiiESaIS2_ENSt8__detail10_Select1stESt8equal_toIiESt4hashIiENS4_18_Mod_range_hashingENS4_20_Default_ranged_hashENS4_20_Prime_rehash_policyENS4_17_Hashtable_traitsILb0ELb0ELb1EEEE19_M_find_before_nodeEmRS1_m, symObjAddr: 0x4D00, symBinAddr: 0x100008824, symSize: 0x100 }
  - { offsetInCU: 0x2D127, offset: 0x2D127, size: 0x8, addend: 0x0, symName: __ZNSt8__detail21_Hash_node_value_baseISt4pairIKiiEE9_M_valptrEv, symObjAddr: 0x4E00, symBinAddr: 0x100008924, symSize: 0x1C }
  - { offsetInCU: 0x2D1CC, offset: 0x2D1CC, size: 0x8, addend: 0x0, symName: __ZNKSt8__detail15_Hash_code_baseIiSt4pairIKiiENS_10_Select1stESt4hashIiENS_18_Mod_range_hashingENS_20_Default_ranged_hashELb0EE15_M_bucket_indexEmm, symObjAddr: 0x4CD4, symBinAddr: 0x1000087F8, symSize: 0x2C }
  - { offsetInCU: 0x2D1D4, offset: 0x2D1D4, size: 0x8, addend: 0x0, symName: __ZNKSt10_HashtableIiSt4pairIKiiESaIS2_ENSt8__detail10_Select1stESt8equal_toIiESt4hashIiENS4_18_Mod_range_hashingENS4_20_Default_ranged_hashENS4_20_Prime_rehash_policyENS4_17_Hashtable_traitsILb0ELb0ELb1EEEE19_M_find_before_nodeEmRS1_m, symObjAddr: 0x4D00, symBinAddr: 0x100008824, symSize: 0x100 }
  - { offsetInCU: 0x2D227, offset: 0x2D227, size: 0x8, addend: 0x0, symName: __ZNKSt8__detail15_Hash_code_baseIiSt4pairIKiiENS_10_Select1stESt4hashIiENS_18_Mod_range_hashingENS_20_Default_ranged_hashELb0EE7_M_hashEv, symObjAddr: 0x4CB8, symBinAddr: 0x1000087DC, symSize: 0x1C }
  - { offsetInCU: 0x2D22F, offset: 0x2D22F, size: 0x8, addend: 0x0, symName: __ZNKSt8__detail15_Hash_code_baseIiSt4pairIKiiENS_10_Select1stESt4hashIiENS_18_Mod_range_hashingENS_20_Default_ranged_hashELb0EE15_M_bucket_indexEmm, symObjAddr: 0x4CD4, symBinAddr: 0x1000087F8, symSize: 0x2C }
  - { offsetInCU: 0x2D258, offset: 0x2D258, size: 0x8, addend: 0x0, symName: __ZN11__gnu_debug14_Safe_iteratorINSt8__detail14_Node_iteratorISt4pairIKiiELb0ELb0EEENSt7__debug13unordered_mapIiiSt4hashIiESt8equal_toIiESaIS5_EEESt20forward_iterator_tagE9_M_attachEPNS_19_Safe_sequence_baseE, symObjAddr: 0x4C74, symBinAddr: 0x100008798, symSize: 0x44 }
  - { offsetInCU: 0x2D260, offset: 0x2D260, size: 0x8, addend: 0x0, symName: __ZNKSt8__detail15_Hash_code_baseIiSt4pairIKiiENS_10_Select1stESt4hashIiENS_18_Mod_range_hashingENS_20_Default_ranged_hashELb0EE7_M_hashEv, symObjAddr: 0x4CB8, symBinAddr: 0x1000087DC, symSize: 0x1C }
  - { offsetInCU: 0x2D29E, offset: 0x2D29E, size: 0x8, addend: 0x0, symName: __ZNSt10_HashtableIiSt4pairIKiiESaIS2_ENSt8__detail10_Select1stESt8equal_toIiESt4hashIiENS4_18_Mod_range_hashingENS4_20_Default_ranged_hashENS4_20_Prime_rehash_policyENS4_17_Hashtable_traitsILb0ELb0ELb1EEEE10_M_emplaceIJS0_IiiEEEES0_INS4_14_Node_iteratorIS2_Lb0ELb0EEEbESt17integral_constantIbLb1EEDpOT_, symObjAddr: 0x4A68, symBinAddr: 0x10000858C, symSize: 0x20C }
  - { offsetInCU: 0x2D2A6, offset: 0x2D2A6, size: 0x8, addend: 0x0, symName: __ZN11__gnu_debug14_Safe_iteratorINSt8__detail14_Node_iteratorISt4pairIKiiELb0ELb0EEENSt7__debug13unordered_mapIiiSt4hashIiESt8equal_toIiESaIS5_EEESt20forward_iterator_tagE9_M_attachEPNS_19_Safe_sequence_baseE, symObjAddr: 0x4C74, symBinAddr: 0x100008798, symSize: 0x44 }
  - { offsetInCU: 0x2D3BE, offset: 0x2D3BE, size: 0x8, addend: 0x0, symName: __ZNK11__gnu_debug14_Safe_iteratorINSt8__detail14_Node_iteratorISt4pairIKiiELb0ELb0EEENSt7__debug13unordered_mapIiiSt4hashIiESt8equal_toIiESaIS5_EEESt20forward_iterator_tagE11_M_is_beginEv, symObjAddr: 0x4A18, symBinAddr: 0x10000853C, symSize: 0x50 }
  - { offsetInCU: 0x2D3C6, offset: 0x2D3C6, size: 0x8, addend: 0x0, symName: __ZNSt10_HashtableIiSt4pairIKiiESaIS2_ENSt8__detail10_Select1stESt8equal_toIiESt4hashIiENS4_18_Mod_range_hashingENS4_20_Default_ranged_hashENS4_20_Prime_rehash_policyENS4_17_Hashtable_traitsILb0ELb0ELb1EEEE10_M_emplaceIJS0_IiiEEEES0_INS4_14_Node_iteratorIS2_Lb0ELb0EEEbESt17integral_constantIbLb1EEDpOT_, symObjAddr: 0x4A68, symBinAddr: 0x10000858C, symSize: 0x20C }
  - { offsetInCU: 0x2D3EF, offset: 0x2D3EF, size: 0x8, addend: 0x0, symName: __ZNK11__gnu_debug14_Safe_iteratorINSt8__detail14_Node_iteratorISt4pairIKiiELb0ELb0EEENSt7__debug13unordered_mapIiiSt4hashIiESt8equal_toIiESaIS5_EEESt20forward_iterator_tagE15_M_get_sequenceEv, symObjAddr: 0x4A00, symBinAddr: 0x100008524, symSize: 0x18 }
  - { offsetInCU: 0x2D3F7, offset: 0x2D3F7, size: 0x8, addend: 0x0, symName: __ZNK11__gnu_debug14_Safe_iteratorINSt8__detail14_Node_iteratorISt4pairIKiiELb0ELb0EEENSt7__debug13unordered_mapIiiSt4hashIiESt8equal_toIiESaIS5_EEESt20forward_iterator_tagE11_M_is_beginEv, symObjAddr: 0x4A18, symBinAddr: 0x10000853C, symSize: 0x50 }
  - { offsetInCU: 0x2D5A4, offset: 0x2D5A4, size: 0x8, addend: 0x0, symName: __ZSt11__addressofIKN11__gnu_debug14_Safe_iteratorINSt8__detail14_Node_iteratorISt4pairIKiiELb0ELb0EEENSt7__debug13unordered_mapIiiSt4hashIiESt8equal_toIiESaIS6_EEESt20forward_iterator_tagEEEPT_RSJ_, symObjAddr: 0x49EC, symBinAddr: 0x100008510, symSize: 0x14 }
  - { offsetInCU: 0x2D5AC, offset: 0x2D5AC, size: 0x8, addend: 0x0, symName: __ZNK11__gnu_debug14_Safe_iteratorINSt8__detail14_Node_iteratorISt4pairIKiiELb0ELb0EEENSt7__debug13unordered_mapIiiSt4hashIiESt8equal_toIiESaIS5_EEESt20forward_iterator_tagE15_M_get_sequenceEv, symObjAddr: 0x4A00, symBinAddr: 0x100008524, symSize: 0x18 }
  - { offsetInCU: 0x2D4EB, offset: 0x2D4EB, size: 0x8, addend: 0x0, symName: __ZNSt8__detail14_Node_iteratorISt4pairIKiiELb0ELb0EEC1EPNS_10_Hash_nodeIS3_Lb0EEE, symObjAddr: 0x49C4, symBinAddr: 0x1000084E8, symSize: 0x28 }
  - { offsetInCU: 0x2D4F3, offset: 0x2D4F3, size: 0x8, addend: 0x0, symName: __ZSt11__addressofIKN11__gnu_debug14_Safe_iteratorINSt8__detail14_Node_iteratorISt4pairIKiiELb0ELb0EEENSt7__debug13unordered_mapIiiSt4hashIiESt8equal_toIiESaIS6_EEESt20forward_iterator_tagEEEPT_RSJ_, symObjAddr: 0x49EC, symBinAddr: 0x100008510, symSize: 0x14 }
  - { offsetInCU: 0x2D4D6, offset: 0x2D4D6, size: 0x8, addend: 0x0, symName: __ZNKSt8__detail15_Hashtable_baseIiSt4pairIKiiENS_10_Select1stESt8equal_toIiESt4hashIiENS_18_Mod_range_hashingENS_20_Default_ranged_hashENS_17_Hashtable_traitsILb0ELb0ELb1EEEE13_M_key_equalsERS2_RKNS_16_Hash_node_valueIS3_Lb0EEE, symObjAddr: 0x496C, symBinAddr: 0x100008490, symSize: 0x58 }
  - { offsetInCU: 0x2D4DE, offset: 0x2D4DE, size: 0x8, addend: 0x0, symName: __ZNSt8__detail14_Node_iteratorISt4pairIKiiELb0ELb0EEC1EPNS_10_Hash_nodeIS3_Lb0EEE, symObjAddr: 0x49C4, symBinAddr: 0x1000084E8, symSize: 0x28 }
  - { offsetInCU: 0x2D532, offset: 0x2D532, size: 0x8, addend: 0x0, symName: __ZNSt10_HashtableIiSt4pairIKiiESaIS2_ENSt8__detail10_Select1stESt8equal_toIiESt4hashIiENS4_18_Mod_range_hashingENS4_20_Default_ranged_hashENS4_20_Prime_rehash_policyENS4_17_Hashtable_traitsILb0ELb0ELb1EEEE22__small_size_thresholdEv, symObjAddr: 0x4958, symBinAddr: 0x10000847C, symSize: 0x14 }
  - { offsetInCU: 0x2D53A, offset: 0x2D53A, size: 0x8, addend: 0x0, symName: __ZNKSt8__detail15_Hashtable_baseIiSt4pairIKiiENS_10_Select1stESt8equal_toIiESt4hashIiENS_18_Mod_range_hashingENS_20_Default_ranged_hashENS_17_Hashtable_traitsILb0ELb0ELb1EEEE13_M_key_equalsERS2_RKNS_16_Hash_node_valueIS3_Lb0EEE, symObjAddr: 0x496C, symBinAddr: 0x100008490, symSize: 0x58 }
  - { offsetInCU: 0x2D54F, offset: 0x2D54F, size: 0x8, addend: 0x0, symName: __ZNKSt10_HashtableIiSt4pairIKiiESaIS2_ENSt8__detail10_Select1stESt8equal_toIiESt4hashIiENS4_18_Mod_range_hashingENS4_20_Default_ranged_hashENS4_20_Prime_rehash_policyENS4_17_Hashtable_traitsILb0ELb0ELb1EEEE4sizeEv, symObjAddr: 0x4940, symBinAddr: 0x100008464, symSize: 0x18 }
  - { offsetInCU: 0x2D557, offset: 0x2D557, size: 0x8, addend: 0x0, symName: __ZNSt10_HashtableIiSt4pairIKiiESaIS2_ENSt8__detail10_Select1stESt8equal_toIiESt4hashIiENS4_18_Mod_range_hashingENS4_20_Default_ranged_hashENS4_20_Prime_rehash_policyENS4_17_Hashtable_traitsILb0ELb0ELb1EEEE22__small_size_thresholdEv, symObjAddr: 0x4958, symBinAddr: 0x10000847C, symSize: 0x14 }
  - { offsetInCU: 0x2D580, offset: 0x2D580, size: 0x8, addend: 0x0, symName: __ZNSt8__detail16_Hashtable_allocISaINS_10_Hash_nodeISt4pairIKiiELb0EEEEE21_M_deallocate_bucketsEPPNS_15_Hash_node_baseEm, symObjAddr: 0x48C8, symBinAddr: 0x1000083EC, symSize: 0x78 }
  - { offsetInCU: 0x2D588, offset: 0x2D588, size: 0x8, addend: 0x0, symName: __ZNKSt10_HashtableIiSt4pairIKiiESaIS2_ENSt8__detail10_Select1stESt8equal_toIiESt4hashIiENS4_18_Mod_range_hashingENS4_20_Default_ranged_hashENS4_20_Prime_rehash_policyENS4_17_Hashtable_traitsILb0ELb0ELb1EEEE4sizeEv, symObjAddr: 0x4940, symBinAddr: 0x100008464, symSize: 0x18 }
  - { offsetInCU: 0x2D6C4, offset: 0x2D6C4, size: 0x8, addend: 0x0, symName: __ZNKSt10_HashtableIiSt4pairIKiiESaIS2_ENSt8__detail10_Select1stESt8equal_toIiESt4hashIiENS4_18_Mod_range_hashingENS4_20_Default_ranged_hashENS4_20_Prime_rehash_policyENS4_17_Hashtable_traitsILb0ELb0ELb1EEEE21_M_uses_single_bucketEPPNS4_15_Hash_node_baseE, symObjAddr: 0x488C, symBinAddr: 0x1000083B0, symSize: 0x3C }
  - { offsetInCU: 0x2D6CC, offset: 0x2D6CC, size: 0x8, addend: 0x0, symName: __ZNSt8__detail16_Hashtable_allocISaINS_10_Hash_nodeISt4pairIKiiELb0EEEEE21_M_deallocate_bucketsEPPNS_15_Hash_node_baseEm, symObjAddr: 0x48C8, symBinAddr: 0x1000083EC, symSize: 0x78 }
  - { offsetInCU: 0x2D70F, offset: 0x2D70F, size: 0x8, addend: 0x0, symName: __ZNSt7__cxx1112basic_stringIcSt11char_traitsIcESaIcEE9_M_mutateEmmPKcm, symObjAddr: 0x4734, symBinAddr: 0x100008258, symSize: 0x158 }
  - { offsetInCU: 0x2D717, offset: 0x2D717, size: 0x8, addend: 0x0, symName: __ZNKSt10_HashtableIiSt4pairIKiiESaIS2_ENSt8__detail10_Select1stESt8equal_toIiESt4hashIiENS4_18_Mod_range_hashingENS4_20_Default_ranged_hashENS4_20_Prime_rehash_policyENS4_17_Hashtable_traitsILb0ELb0ELb1EEEE21_M_uses_single_bucketEPPNS4_15_Hash_node_baseE, symObjAddr: 0x488C, symBinAddr: 0x1000083B0, symSize: 0x3C }
  - { offsetInCU: 0x2D803, offset: 0x2D803, size: 0x8, addend: 0x0, symName: __ZNSt15__new_allocatorIcE10deallocateEPcm, symObjAddr: 0x470C, symBinAddr: 0x100008230, symSize: 0x28 }
  - { offsetInCU: 0x2D80B, offset: 0x2D80B, size: 0x8, addend: 0x0, symName: __ZNSt7__cxx1112basic_stringIcSt11char_traitsIcESaIcEE9_M_mutateEmmPKcm, symObjAddr: 0x4734, symBinAddr: 0x100008258, symSize: 0x158 }
  - { offsetInCU: 0x2D861, offset: 0x2D861, size: 0x8, addend: 0x0, symName: __ZNSt7__cxx1112basic_stringIcSt11char_traitsIcESaIcEE9_M_appendEPKcm, symObjAddr: 0x4644, symBinAddr: 0x100008168, symSize: 0xC8 }
  - { offsetInCU: 0x2D869, offset: 0x2D869, size: 0x8, addend: 0x0, symName: __ZNSt15__new_allocatorIcE10deallocateEPcm, symObjAddr: 0x470C, symBinAddr: 0x100008230, symSize: 0x28 }
  - { offsetInCU: 0x2D8D0, offset: 0x2D8D0, size: 0x8, addend: 0x0, symName: __ZNKSt7__cxx1112basic_stringIcSt11char_traitsIcESaIcEE15_M_check_lengthEmmPKc, symObjAddr: 0x45D0, symBinAddr: 0x1000080F4, symSize: 0x74 }
  - { offsetInCU: 0x2D8D8, offset: 0x2D8D8, size: 0x8, addend: 0x0, symName: __ZNSt7__cxx1112basic_stringIcSt11char_traitsIcESaIcEE9_M_appendEPKcm, symObjAddr: 0x4644, symBinAddr: 0x100008168, symSize: 0xC8 }
  - { offsetInCU: 0x2D9BE, offset: 0x2D9BE, size: 0x8, addend: 0x0, symName: __ZNSt19__ptr_traits_ptr_toIPKcS0_Lb0EE10pointer_toERS0_, symObjAddr: 0x45B4, symBinAddr: 0x1000080D8, symSize: 0x1C }
  - { offsetInCU: 0x2D9C6, offset: 0x2D9C6, size: 0x8, addend: 0x0, symName: __ZNKSt7__cxx1112basic_stringIcSt11char_traitsIcESaIcEE15_M_check_lengthEmmPKc, symObjAddr: 0x45D0, symBinAddr: 0x1000080F4, symSize: 0x74 }
  - { offsetInCU: 0x2D9F1, offset: 0x2D9F1, size: 0x8, addend: 0x0, symName: __ZNKSt7__cxx1112basic_stringIcSt11char_traitsIcESaIcEE8max_sizeEv, symObjAddr: 0x4570, symBinAddr: 0x100008094, symSize: 0x44 }
  - { offsetInCU: 0x2D9F9, offset: 0x2D9F9, size: 0x8, addend: 0x0, symName: __ZNSt19__ptr_traits_ptr_toIPKcS0_Lb0EE10pointer_toERS0_, symObjAddr: 0x45B4, symBinAddr: 0x1000080D8, symSize: 0x1C }
  - { offsetInCU: 0x2DAEB, offset: 0x2DAEB, size: 0x8, addend: 0x0, symName: __ZSt9addressofIcEPT_RS0_, symObjAddr: 0x4554, symBinAddr: 0x100008078, symSize: 0x1C }
  - { offsetInCU: 0x2DAF3, offset: 0x2DAF3, size: 0x8, addend: 0x0, symName: __ZNKSt7__cxx1112basic_stringIcSt11char_traitsIcESaIcEE8max_sizeEv, symObjAddr: 0x4570, symBinAddr: 0x100008094, symSize: 0x44 }
  - { offsetInCU: 0x2DB0A, offset: 0x2DB0A, size: 0x8, addend: 0x0, symName: __ZNK11__gnu_debug14_Safe_iteratorINSt8__detail14_Node_iteratorISt4pairIKiiELb0ELb0EEENSt7__debug13unordered_mapIiiSt4hashIiESt8equal_toIiESaIS5_EEESt20forward_iterator_tagE18_M_is_before_beginEv, symObjAddr: 0x4534, symBinAddr: 0x100008058, symSize: 0x20 }
  - { offsetInCU: 0x2DB12, offset: 0x2DB12, size: 0x8, addend: 0x0, symName: __ZSt9addressofIcEPT_RS0_, symObjAddr: 0x4554, symBinAddr: 0x100008078, symSize: 0x1C }
  - { offsetInCU: 0x2DB3B, offset: 0x2DB3B, size: 0x8, addend: 0x0, symName: __ZNSt8__detail19_Node_iterator_baseISt4pairIKiiELb0EE7_M_incrEv, symObjAddr: 0x4504, symBinAddr: 0x100008028, symSize: 0x30 }
  - { offsetInCU: 0x2DB43, offset: 0x2DB43, size: 0x8, addend: 0x0, symName: __ZNK11__gnu_debug14_Safe_iteratorINSt8__detail14_Node_iteratorISt4pairIKiiELb0ELb0EEENSt7__debug13unordered_mapIiiSt4hashIiESt8equal_toIiESaIS5_EEESt20forward_iterator_tagE18_M_is_before_beginEv, symObjAddr: 0x4534, symBinAddr: 0x100008058, symSize: 0x20 }
  - { offsetInCU: 0x2DB6C, offset: 0x2DB6C, size: 0x8, addend: 0x0, symName: __ZNK11__gnu_debug14_Safe_iteratorINSt8__detail14_Node_iteratorISt4pairIKiiELb0ELb0EEENSt7__debug13unordered_mapIiiSt4hashIiESt8equal_toIiESaIS5_EEESt20forward_iterator_tagE9_M_is_endEv, symObjAddr: 0x44B4, symBinAddr: 0x100007FD8, symSize: 0x50 }
  - { offsetInCU: 0x2DB74, offset: 0x2DB74, size: 0x8, addend: 0x0, symName: __ZNSt8__detail19_Node_iterator_baseISt4pairIKiiELb0EE7_M_incrEv, symObjAddr: 0x4504, symBinAddr: 0x100008028, symSize: 0x30 }
  - { offsetInCU: 0x2DB9D, offset: 0x2DB9D, size: 0x8, addend: 0x0, symName: __ZNSt10_HashtableIiSt4pairIKiiESaIS2_ENSt8__detail10_Select1stESt8equal_toIiESt4hashIiENS4_18_Mod_range_hashingENS4_20_Default_ranged_hashENS4_20_Prime_rehash_policyENS4_17_Hashtable_traitsILb0ELb0ELb1EEEE5beginEv, symObjAddr: 0x4488, symBinAddr: 0x100007FAC, symSize: 0x2C }
  - { offsetInCU: 0x2DBA5, offset: 0x2DBA5, size: 0x8, addend: 0x0, symName: __ZNK11__gnu_debug14_Safe_iteratorINSt8__detail14_Node_iteratorISt4pairIKiiELb0ELb0EEENSt7__debug13unordered_mapIiiSt4hashIiESt8equal_toIiESaIS5_EEESt20forward_iterator_tagE9_M_is_endEv, symObjAddr: 0x44B4, symBinAddr: 0x100007FD8, symSize: 0x50 }
  - { offsetInCU: 0x2DBCE, offset: 0x2DBCE, size: 0x8, addend: 0x0, symName: __ZNSt10_HashtableIiSt4pairIKiiESaIS2_ENSt8__detail10_Select1stESt8equal_toIiESt4hashIiENS4_18_Mod_range_hashingENS4_20_Default_ranged_hashENS4_20_Prime_rehash_policyENS4_17_Hashtable_traitsILb0ELb0ELb1EEEE9_M_assignIRKSF_NS4_17_ReuseOrAllocNodeISaINS4_10_Hash_nodeIS2_Lb0EEEEEEEEvOT_RKT0_, symObjAddr: 0x42B8, symBinAddr: 0x100007DDC, symSize: 0x1D0 }
  - { offsetInCU: 0x2DBD6, offset: 0x2DBD6, size: 0x8, addend: 0x0, symName: __ZNSt10_HashtableIiSt4pairIKiiESaIS2_ENSt8__detail10_Select1stESt8equal_toIiESt4hashIiENS4_18_Mod_range_hashingENS4_20_Default_ranged_hashENS4_20_Prime_rehash_policyENS4_17_Hashtable_traitsILb0ELb0ELb1EEEE5beginEv, symObjAddr: 0x4488, symBinAddr: 0x100007FAC, symSize: 0x2C }
  - { offsetInCU: 0x2DD4B, offset: 0x2DD4B, size: 0x8, addend: 0x0, symName: __ZNSt8__detail17_ReuseOrAllocNodeISaINS_10_Hash_nodeISt4pairIKiiELb0EEEEED1Ev, symObjAddr: 0x4284, symBinAddr: 0x100007DA8, symSize: 0x34 }
  - { offsetInCU: 0x2DD53, offset: 0x2DD53, size: 0x8, addend: 0x0, symName: __ZNSt10_HashtableIiSt4pairIKiiESaIS2_ENSt8__detail10_Select1stESt8equal_toIiESt4hashIiENS4_18_Mod_range_hashingENS4_20_Default_ranged_hashENS4_20_Prime_rehash_policyENS4_17_Hashtable_traitsILb0ELb0ELb1EEEE9_M_assignIRKSF_NS4_17_ReuseOrAllocNodeISaINS4_10_Hash_nodeIS2_Lb0EEEEEEEEvOT_RKT0_, symObjAddr: 0x42B8, symBinAddr: 0x100007DDC, symSize: 0x1D0 }
  - { offsetInCU: 0x2DDD7, offset: 0x2DDD7, size: 0x8, addend: 0x0, symName: __ZNSt8__detail17_ReuseOrAllocNodeISaINS_10_Hash_nodeISt4pairIKiiELb0EEEEEC1EPS5_RNS_16_Hashtable_allocIS6_EE, symObjAddr: 0x4250, symBinAddr: 0x100007D74, symSize: 0x34 }
  - { offsetInCU: 0x2DDDF, offset: 0x2DDDF, size: 0x8, addend: 0x0, symName: __ZNSt8__detail17_ReuseOrAllocNodeISaINS_10_Hash_nodeISt4pairIKiiELb0EEEEED1Ev, symObjAddr: 0x4284, symBinAddr: 0x100007DA8, symSize: 0x34 }
  - { offsetInCU: 0x2E006, offset: 0x2E006, size: 0x8, addend: 0x0, symName: __ZSt7forwardIRKSt10_HashtableIiSt4pairIKiiESaIS3_ENSt8__detail10_Select1stESt8equal_toIiESt4hashIiENS5_18_Mod_range_hashingENS5_20_Default_ranged_hashENS5_20_Prime_rehash_policyENS5_17_Hashtable_traitsILb0ELb0ELb1EEEEEOT_RNSt16remove_referenceISJ_E4typeE, symObjAddr: 0x423C, symBinAddr: 0x100007D60, symSize: 0x14 }
  - { offsetInCU: 0x2E00E, offset: 0x2E00E, size: 0x8, addend: 0x0, symName: __ZNSt8__detail17_ReuseOrAllocNodeISaINS_10_Hash_nodeISt4pairIKiiELb0EEEEEC1EPS5_RNS_16_Hashtable_allocIS6_EE, symObjAddr: 0x4250, symBinAddr: 0x100007D74, symSize: 0x34 }
  - { offsetInCU: 0x2DE0A, offset: 0x2DE0A, size: 0x8, addend: 0x0, symName: __ZNKSt10_HashtableIiSt4pairIKiiESaIS2_ENSt8__detail10_Select1stESt8equal_toIiESt4hashIiENS4_18_Mod_range_hashingENS4_20_Default_ranged_hashENS4_20_Prime_rehash_policyENS4_17_Hashtable_traitsILb0ELb0ELb1EEEE15_M_bucket_indexERKNS4_16_Hash_node_valueIS2_Lb0EEE, symObjAddr: 0x420C, symBinAddr: 0x100007D30, symSize: 0x30 }
  - { offsetInCU: 0x2DE12, offset: 0x2DE12, size: 0x8, addend: 0x0, symName: __ZSt7forwardIRKSt10_HashtableIiSt4pairIKiiESaIS3_ENSt8__detail10_Select1stESt8equal_toIiESt4hashIiENS5_18_Mod_range_hashingENS5_20_Default_ranged_hashENS5_20_Prime_rehash_policyENS5_17_Hashtable_traitsILb0ELb0ELb1EEEEEOT_RNSt16remove_referenceISJ_E4typeE, symObjAddr: 0x423C, symBinAddr: 0x100007D60, symSize: 0x14 }
  - { offsetInCU: 0x2DE50, offset: 0x2DE50, size: 0x8, addend: 0x0, symName: __ZNSt10_HashtableIiSt4pairIKiiESaIS2_ENSt8__detail10_Select1stESt8equal_toIiESt4hashIiENS4_18_Mod_range_hashingENS4_20_Default_ranged_hashENS4_20_Prime_rehash_policyENS4_17_Hashtable_traitsILb0ELb0ELb1EEEE16_M_update_bbeginEPNS4_10_Hash_nodeIS2_Lb0EEE, symObjAddr: 0x41DC, symBinAddr: 0x100007D00, symSize: 0x30 }
  - { offsetInCU: 0x2DE58, offset: 0x2DE58, size: 0x8, addend: 0x0, symName: __ZNKSt10_HashtableIiSt4pairIKiiESaIS2_ENSt8__detail10_Select1stESt8equal_toIiESt4hashIiENS4_18_Mod_range_hashingENS4_20_Default_ranged_hashENS4_20_Prime_rehash_policyENS4_17_Hashtable_traitsILb0ELb0ELb1EEEE15_M_bucket_indexERKNS4_16_Hash_node_valueIS2_Lb0EEE, symObjAddr: 0x420C, symBinAddr: 0x100007D30, symSize: 0x30 }
  - { offsetInCU: 0x2DE96, offset: 0x2DE96, size: 0x8, addend: 0x0, symName: __ZNKSt8__detail15_Hash_code_baseIiSt4pairIKiiENS_10_Select1stESt4hashIiENS_18_Mod_range_hashingENS_20_Default_ranged_hashELb0EE12_M_copy_codeERNS_21_Hash_node_code_cacheILb0EEERKSB_, symObjAddr: 0x41C0, symBinAddr: 0x100007CE4, symSize: 0x1C }
  - { offsetInCU: 0x2DE9E, offset: 0x2DE9E, size: 0x8, addend: 0x0, symName: __ZNSt10_HashtableIiSt4pairIKiiESaIS2_ENSt8__detail10_Select1stESt8equal_toIiESt4hashIiENS4_18_Mod_range_hashingENS4_20_Default_ranged_hashENS4_20_Prime_rehash_policyENS4_17_Hashtable_traitsILb0ELb0ELb1EEEE16_M_update_bbeginEPNS4_10_Hash_nodeIS2_Lb0EEE, symObjAddr: 0x41DC, symBinAddr: 0x100007D00, symSize: 0x30 }
  - { offsetInCU: 0x2DEFE, offset: 0x2DEFE, size: 0x8, addend: 0x0, symName: __ZNKSt8__detail10_AllocNodeISaINS_10_Hash_nodeISt4pairIKiiELb0EEEEEclIJRKS4_EEEPS5_DpOT_, symObjAddr: 0x4184, symBinAddr: 0x100007CA8, symSize: 0x3C }
  - { offsetInCU: 0x2DF06, offset: 0x2DF06, size: 0x8, addend: 0x0, symName: __ZNKSt8__detail15_Hash_code_baseIiSt4pairIKiiENS_10_Select1stESt4hashIiENS_18_Mod_range_hashingENS_20_Default_ranged_hashELb0EE12_M_copy_codeERNS_21_Hash_node_code_cacheILb0EEERKSB_, symObjAddr: 0x41C0, symBinAddr: 0x100007CE4, symSize: 0x1C }
  - { offsetInCU: 0x2DF61, offset: 0x2DF61, size: 0x8, addend: 0x0, symName: __ZNSt10_HashtableIiSt4pairIKiiESaIS2_ENSt8__detail10_Select1stESt8equal_toIiESt4hashIiENS4_18_Mod_range_hashingENS4_20_Default_ranged_hashENS4_20_Prime_rehash_policyENS4_17_Hashtable_traitsILb0ELb0ELb1EEEE15__fwd_value_forIRKSF_EENSt13__conditionalIXsrSt19is_lvalue_referenceIT_E5valueEE4typeIRKS2_OS2_EERS2_, symObjAddr: 0x4168, symBinAddr: 0x100007C8C, symSize: 0x1C }
  - { offsetInCU: 0x2DF69, offset: 0x2DF69, size: 0x8, addend: 0x0, symName: __ZNKSt8__detail10_AllocNodeISaINS_10_Hash_nodeISt4pairIKiiELb0EEEEEclIJRKS4_EEEPS5_DpOT_, symObjAddr: 0x4184, symBinAddr: 0x100007CA8, symSize: 0x3C }
  - { offsetInCU: 0x2DFA2, offset: 0x2DFA2, size: 0x8, addend: 0x0, symName: __ZNSt10_HashtableIiSt4pairIKiiESaIS2_ENSt8__detail10_Select1stESt8equal_toIiESt4hashIiENS4_18_Mod_range_hashingENS4_20_Default_ranged_hashENS4_20_Prime_rehash_policyENS4_17_Hashtable_traitsILb0ELb0ELb1EEEE19_M_allocate_bucketsEm, symObjAddr: 0x4110, symBinAddr: 0x100007C34, symSize: 0x58 }
  - { offsetInCU: 0x2DFAA, offset: 0x2DFAA, size: 0x8, addend: 0x0, symName: __ZNSt10_HashtableIiSt4pairIKiiESaIS2_ENSt8__detail10_Select1stESt8equal_toIiESt4hashIiENS4_18_Mod_range_hashingENS4_20_Default_ranged_hashENS4_20_Prime_rehash_policyENS4_17_Hashtable_traitsILb0ELb0ELb1EEEE15__fwd_value_forIRKSF_EENSt13__conditionalIXsrSt19is_lvalue_referenceIT_E5valueEE4typeIRKS2_OS2_EERS2_, symObjAddr: 0x4168, symBinAddr: 0x100007C8C, symSize: 0x1C }
  - { offsetInCU: 0x2DFE8, offset: 0x2DFE8, size: 0x8, addend: 0x0, symName: __ZNSt8__detail16_Hashtable_allocISaINS_10_Hash_nodeISt4pairIKiiELb0EEEEE18_M_deallocate_nodeEPS5_, symObjAddr: 0x40A8, symBinAddr: 0x100007BCC, symSize: 0x68 }
  - { offsetInCU: 0x2DFF0, offset: 0x2DFF0, size: 0x8, addend: 0x0, symName: __ZNSt10_HashtableIiSt4pairIKiiESaIS2_ENSt8__detail10_Select1stESt8equal_toIiESt4hashIiENS4_18_Mod_range_hashingENS4_20_Default_ranged_hashENS4_20_Prime_rehash_policyENS4_17_Hashtable_traitsILb0ELb0ELb1EEEE19_M_allocate_bucketsEm, symObjAddr: 0x4110, symBinAddr: 0x100007C34, symSize: 0x58 }
  - { offsetInCU: 0x2E098, offset: 0x2E098, size: 0x8, addend: 0x0, symName: __ZNKSt8__detail10_Hash_nodeISt4pairIKiiELb0EE7_M_nextEv, symObjAddr: 0x4090, symBinAddr: 0x100007BB4, symSize: 0x18 }
  - { offsetInCU: 0x2E0A0, offset: 0x2E0A0, size: 0x8, addend: 0x0, symName: __ZNSt8__detail16_Hashtable_allocISaINS_10_Hash_nodeISt4pairIKiiELb0EEEEE18_M_deallocate_nodeEPS5_, symObjAddr: 0x40A8, symBinAddr: 0x100007BCC, symSize: 0x68 }
  - { offsetInCU: 0x2E0C9, offset: 0x2E0C9, size: 0x8, addend: 0x0, symName: __ZNKSt8__detail21_Hashtable_ebo_helperILi0ESaINS_10_Hash_nodeISt4pairIKiiELb0EEEELb1EE7_M_cgetEv, symObjAddr: 0x407C, symBinAddr: 0x100007BA0, symSize: 0x14 }
  - { offsetInCU: 0x2E0D1, offset: 0x2E0D1, size: 0x8, addend: 0x0, symName: __ZNKSt8__detail10_Hash_nodeISt4pairIKiiELb0EE7_M_nextEv, symObjAddr: 0x4090, symBinAddr: 0x100007BB4, symSize: 0x18 }
  - { offsetInCU: 0x2E0FA, offset: 0x2E0FA, size: 0x8, addend: 0x0, symName: __ZN11__gnu_debug25_Safe_unordered_containerINSt7__debug13unordered_mapIiiSt4hashIiESt8equal_toIiESaISt4pairIKiiEEEEE20_M_invalidate_localsEv, symObjAddr: 0x3FE8, symBinAddr: 0x100007B0C, symSize: 0x94 }
  - { offsetInCU: 0x2E102, offset: 0x2E102, size: 0x8, addend: 0x0, symName: __ZNKSt8__detail21_Hashtable_ebo_helperILi0ESaINS_10_Hash_nodeISt4pairIKiiELb0EEEELb1EE7_M_cgetEv, symObjAddr: 0x407C, symBinAddr: 0x100007BA0, symSize: 0x14 }
  - { offsetInCU: 0x2E2A6, offset: 0x2E2A6, size: 0x8, addend: 0x0, symName: __ZZN11__gnu_debug25_Safe_unordered_containerINSt7__debug13unordered_mapIiiSt4hashIiESt8equal_toIiESaISt4pairIKiiEEEEE20_M_invalidate_localsEvENKUlNSt8__detail21_Local_const_iteratorIiS9_NSD_10_Select1stES4_NSD_18_Mod_range_hashingENSD_20_Default_ranged_hashELb0ELb0EEEE_clESI_, symObjAddr: 0x3F78, symBinAddr: 0x100007A9C, symSize: 0x28 }
  - { offsetInCU: 0x2E2AE, offset: 0x2E2AE, size: 0x8, addend: 0x0, symName: __ZNSt8__detail21_Local_const_iteratorIiSt4pairIKiiENS_10_Select1stESt4hashIiENS_18_Mod_range_hashingENS_20_Default_ranged_hashELb0ELb0EEC1ERKS9_, symObjAddr: 0x3FA0, symBinAddr: 0x100007AC4, symSize: 0x28 }
  - { offsetInCU: 0x2E312, offset: 0x2E312, size: 0x8, addend: 0x0, symName: __ZZN11__gnu_debug25_Safe_unordered_containerINSt7__debug13unordered_mapIiiSt4hashIiESt8equal_toIiESaISt4pairIKiiEEEEE20_M_invalidate_localsEvENUlNSt8__detail21_Local_const_iteratorIiS9_NSD_10_Select1stES4_NSD_18_Mod_range_hashingENSD_20_Default_ranged_hashELb0ELb0EEEE_D1Ev, symObjAddr: 0x3FC8, symBinAddr: 0x100007AEC, symSize: 0x20 }
  - { offsetInCU: 0x2E31A, offset: 0x2E31A, size: 0x8, addend: 0x0, symName: __ZN11__gnu_debug25_Safe_unordered_containerINSt7__debug13unordered_mapIiiSt4hashIiESt8equal_toIiESaISt4pairIKiiEEEEE20_M_invalidate_localsEv, symObjAddr: 0x3FE8, symBinAddr: 0x100007B0C, symSize: 0x94 }
  - { offsetInCU: 0x2E2EA, offset: 0x2E2EA, size: 0x8, addend: 0x0, symName: __ZNSt8__detail21_Local_const_iteratorIiSt4pairIKiiENS_10_Select1stESt4hashIiENS_18_Mod_range_hashingENS_20_Default_ranged_hashELb0ELb0EEC1ERKS9_, symObjAddr: 0x3FA0, symBinAddr: 0x100007AC4, symSize: 0x28 }
  - { offsetInCU: 0x2E2F2, offset: 0x2E2F2, size: 0x8, addend: 0x0, symName: __ZZN11__gnu_debug25_Safe_unordered_containerINSt7__debug13unordered_mapIiiSt4hashIiESt8equal_toIiESaISt4pairIKiiEEEEE20_M_invalidate_localsEvENUlNSt8__detail21_Local_const_iteratorIiS9_NSD_10_Select1stES4_NSD_18_Mod_range_hashingENSD_20_Default_ranged_hashELb0ELb0EEEE_D1Ev, symObjAddr: 0x3FC8, symBinAddr: 0x100007AEC, symSize: 0x20 }
  - { offsetInCU: 0x2E351, offset: 0x2E351, size: 0x8, addend: 0x0, symName: __ZNSt8__detail21_Local_const_iteratorIiSt4pairIKiiENS_10_Select1stESt4hashIiENS_18_Mod_range_hashingENS_20_Default_ranged_hashELb0ELb0EED1Ev, symObjAddr: 0x3F58, symBinAddr: 0x100007A7C, symSize: 0x20 }
  - { offsetInCU: 0x2E359, offset: 0x2E359, size: 0x8, addend: 0x0, symName: __ZZN11__gnu_debug25_Safe_unordered_containerINSt7__debug13unordered_mapIiiSt4hashIiESt8equal_toIiESaISt4pairIKiiEEEEE20_M_invalidate_localsEvENKUlNSt8__detail21_Local_const_iteratorIiS9_NSD_10_Select1stES4_NSD_18_Mod_range_hashingENSD_20_Default_ranged_hashELb0ELb0EEEE_clESI_, symObjAddr: 0x3F78, symBinAddr: 0x100007A9C, symSize: 0x28 }
  - { offsetInCU: 0x2E308, offset: 0x2E308, size: 0x8, addend: 0x0, symName: __ZN11__gnu_debug25_Safe_unordered_containerINSt7__debug13unordered_mapIiiSt4hashIiESt8equal_toIiESaISt4pairIKiiEEEEE16_M_invalidate_ifIZNSC_17_M_invalidate_allEvEUlNSt8__detail20_Node_const_iteratorIS9_Lb0ELb0EEEE_EEvT_, symObjAddr: 0x3DAC, symBinAddr: 0x1000078D0, symSize: 0x1AC }
  - { offsetInCU: 0x2E310, offset: 0x2E310, size: 0x8, addend: 0x0, symName: __ZNSt8__detail21_Local_const_iteratorIiSt4pairIKiiENS_10_Select1stESt4hashIiENS_18_Mod_range_hashingENS_20_Default_ranged_hashELb0ELb0EED1Ev, symObjAddr: 0x3F58, symBinAddr: 0x100007A7C, symSize: 0x20 }
  - { offsetInCU: 0x2E439, offset: 0x2E439, size: 0x8, addend: 0x0, symName: __ZNKSt9__cxx199813unordered_mapIiiSt4hashIiESt8equal_toIiESaISt4pairIKiiEEE4cendEv, symObjAddr: 0x3D90, symBinAddr: 0x1000078B4, symSize: 0x1C }
  - { offsetInCU: 0x2E441, offset: 0x2E441, size: 0x8, addend: 0x0, symName: __ZN11__gnu_debug25_Safe_unordered_containerINSt7__debug13unordered_mapIiiSt4hashIiESt8equal_toIiESaISt4pairIKiiEEEEE16_M_invalidate_ifIZNSC_17_M_invalidate_allEvEUlNSt8__detail20_Node_const_iteratorIS9_Lb0ELb0EEEE_EEvT_, symObjAddr: 0x3DAC, symBinAddr: 0x1000078D0, symSize: 0x1AC }
  - { offsetInCU: 0x2E46A, offset: 0x2E46A, size: 0x8, addend: 0x0, symName: __ZNSt7__debug13unordered_mapIiiSt4hashIiESt8equal_toIiESaISt4pairIKiiEEE7_M_baseEv, symObjAddr: 0x3D78, symBinAddr: 0x10000789C, symSize: 0x18 }
  - { offsetInCU: 0x2E472, offset: 0x2E472, size: 0x8, addend: 0x0, symName: __ZNKSt9__cxx199813unordered_mapIiiSt4hashIiESt8equal_toIiESaISt4pairIKiiEEE4cendEv, symObjAddr: 0x3D90, symBinAddr: 0x1000078B4, symSize: 0x1C }
  - { offsetInCU: 0x2E49B, offset: 0x2E49B, size: 0x8, addend: 0x0, symName: __ZN11__gnu_debug25_Safe_unordered_containerINSt7__debug13unordered_mapIiiSt4hashIiESt8equal_toIiESaISt4pairIKiiEEEEE7_M_contEv, symObjAddr: 0x3D64, symBinAddr: 0x100007888, symSize: 0x14 }
  - { offsetInCU: 0x2E4A3, offset: 0x2E4A3, size: 0x8, addend: 0x0, symName: __ZNSt7__debug13unordered_mapIiiSt4hashIiESt8equal_toIiESaISt4pairIKiiEEE7_M_baseEv, symObjAddr: 0x3D78, symBinAddr: 0x10000789C, symSize: 0x18 }
  - { offsetInCU: 0x2E4CC, offset: 0x2E4CC, size: 0x8, addend: 0x0, symName: __ZNSt10_HashtableIiSt4pairIKiiESaIS2_ENSt8__detail10_Select1stESt8equal_toIiESt4hashIiENS4_18_Mod_range_hashingENS4_20_Default_ranged_hashENS4_20_Prime_rehash_policyENS4_17_Hashtable_traitsILb0ELb0ELb1EEEE16_M_update_bbeginEv, symObjAddr: 0x3CF0, symBinAddr: 0x100007814, symSize: 0x74 }
  - { offsetInCU: 0x2E4D4, offset: 0x2E4D4, size: 0x8, addend: 0x0, symName: __ZN11__gnu_debug25_Safe_unordered_containerINSt7__debug13unordered_mapIiiSt4hashIiESt8equal_toIiESaISt4pairIKiiEEEEE7_M_contEv, symObjAddr: 0x3D64, symBinAddr: 0x100007888, symSize: 0x14 }
  - { offsetInCU: 0x2E4FD, offset: 0x2E4FD, size: 0x8, addend: 0x0, symName: __ZNSt8__detail21_Hashtable_ebo_helperILi0ESaINS_10_Hash_nodeISt4pairIKiiELb0EEEELb1EE6_M_getEv, symObjAddr: 0x3CDC, symBinAddr: 0x100007800, symSize: 0x14 }
  - { offsetInCU: 0x2E505, offset: 0x2E505, size: 0x8, addend: 0x0, symName: __ZNSt10_HashtableIiSt4pairIKiiESaIS2_ENSt8__detail10_Select1stESt8equal_toIiESt4hashIiENS4_18_Mod_range_hashingENS4_20_Default_ranged_hashENS4_20_Prime_rehash_policyENS4_17_Hashtable_traitsILb0ELb0ELb1EEEE16_M_update_bbeginEv, symObjAddr: 0x3CF0, symBinAddr: 0x100007814, symSize: 0x74 }
  - { offsetInCU: 0x2E52E, offset: 0x2E52E, size: 0x8, addend: 0x0, symName: __ZNKSt8__detail14_Node_iteratorISt4pairIKiiELb0ELb0EEptEv, symObjAddr: 0x3CB8, symBinAddr: 0x1000077DC, symSize: 0x24 }
  - { offsetInCU: 0x2E536, offset: 0x2E536, size: 0x8, addend: 0x0, symName: __ZNSt8__detail21_Hashtable_ebo_helperILi0ESaINS_10_Hash_nodeISt4pairIKiiELb0EEEELb1EE6_M_getEv, symObjAddr: 0x3CDC, symBinAddr: 0x100007800, symSize: 0x14 }
  - { offsetInCU: 0x2E55F, offset: 0x2E55F, size: 0x8, addend: 0x0, symName: __ZNSt10_HashtableIiSt4pairIKiiESaIS2_ENSt8__detail10_Select1stESt8equal_toIiESt4hashIiENS4_18_Mod_range_hashingENS4_20_Default_ranged_hashENS4_20_Prime_rehash_policyENS4_17_Hashtable_traitsILb0ELb0ELb1EEEE21_M_insert_unique_nodeEmmPNS4_10_Hash_nodeIS2_Lb0EEEm, symObjAddr: 0x3BD0, symBinAddr: 0x1000076F4, symSize: 0xE8 }
  - { offsetInCU: 0x2E567, offset: 0x2E567, size: 0x8, addend: 0x0, symName: __ZNKSt8__detail14_Node_iteratorISt4pairIKiiELb0ELb0EEptEv, symObjAddr: 0x3CB8, symBinAddr: 0x1000077DC, symSize: 0x24 }
  - { offsetInCU: 0x2E71B, offset: 0x2E71B, size: 0x8, addend: 0x0, symName: __ZNSt10_HashtableIiSt4pairIKiiESaIS2_ENSt8__detail10_Select1stESt8equal_toIiESt4hashIiENS4_18_Mod_range_hashingENS4_20_Default_ranged_hashENS4_20_Prime_rehash_policyENS4_17_Hashtable_traitsILb0ELb0ELb1EEEE12_Scoped_nodeD1Ev, symObjAddr: 0x3B8C, symBinAddr: 0x1000076B0, symSize: 0x44 }
  - { offsetInCU: 0x2E723, offset: 0x2E723, size: 0x8, addend: 0x0, symName: __ZNSt10_HashtableIiSt4pairIKiiESaIS2_ENSt8__detail10_Select1stESt8equal_toIiESt4hashIiENS4_18_Mod_range_hashingENS4_20_Default_ranged_hashENS4_20_Prime_rehash_policyENS4_17_Hashtable_traitsILb0ELb0ELb1EEEE21_M_insert_unique_nodeEmmPNS4_10_Hash_nodeIS2_Lb0EEEm, symObjAddr: 0x3BD0, symBinAddr: 0x1000076F4, symSize: 0xE8 }
  - { offsetInCU: 0x2E82D, offset: 0x2E82D, size: 0x8, addend: 0x0, symName: __ZNSt10_HashtableIiSt4pairIKiiESaIS2_ENSt8__detail10_Select1stESt8equal_toIiESt4hashIiENS4_18_Mod_range_hashingENS4_20_Default_ranged_hashENS4_20_Prime_rehash_policyENS4_17_Hashtable_traitsILb0ELb0ELb1EEEE12_Scoped_nodeC1IJRKSt21piecewise_construct_tSt5tupleIJRS1_EESL_IJEEEEEPNS4_16_Hashtable_allocISaINS4_10_Hash_nodeIS2_Lb0EEEEEEDpOT_, symObjAddr: 0x3B04, symBinAddr: 0x100007628, symSize: 0x88 }
  - { offsetInCU: 0x2E835, offset: 0x2E835, size: 0x8, addend: 0x0, symName: __ZNSt10_HashtableIiSt4pairIKiiESaIS2_ENSt8__detail10_Select1stESt8equal_toIiESt4hashIiENS4_18_Mod_range_hashingENS4_20_Default_ranged_hashENS4_20_Prime_rehash_policyENS4_17_Hashtable_traitsILb0ELb0ELb1EEEE12_Scoped_nodeD1Ev, symObjAddr: 0x3B8C, symBinAddr: 0x1000076B0, symSize: 0x44 }
  - { offsetInCU: 0x2E7C6, offset: 0x2E7C6, size: 0x8, addend: 0x0, symName: __ZNSt5tupleIJRKiEEC1ILb1ELb1EEES1_, symObjAddr: 0x3ADC, symBinAddr: 0x100007600, symSize: 0x28 }
  - { offsetInCU: 0x2E7CE, offset: 0x2E7CE, size: 0x8, addend: 0x0, symName: __ZNSt10_HashtableIiSt4pairIKiiESaIS2_ENSt8__detail10_Select1stESt8equal_toIiESt4hashIiENS4_18_Mod_range_hashingENS4_20_Default_ranged_hashENS4_20_Prime_rehash_policyENS4_17_Hashtable_traitsILb0ELb0ELb1EEEE12_Scoped_nodeC1IJRKSt21piecewise_construct_tSt5tupleIJRS1_EESL_IJEEEEEPNS4_16_Hashtable_allocISaINS4_10_Hash_nodeIS2_Lb0EEEEEEDpOT_, symObjAddr: 0x3B04, symBinAddr: 0x100007628, symSize: 0x88 }
  - { offsetInCU: 0x2E7EF, offset: 0x2E7EF, size: 0x8, addend: 0x0, symName: __ZNSt8__detail21_Hash_node_value_baseISt4pairIKiiEE4_M_vEv, symObjAddr: 0x3AC0, symBinAddr: 0x1000075E4, symSize: 0x1C }
  - { offsetInCU: 0x2E7F7, offset: 0x2E7F7, size: 0x8, addend: 0x0, symName: __ZNSt5tupleIJRKiEEC1ILb1ELb1EEES1_, symObjAddr: 0x3ADC, symBinAddr: 0x100007600, symSize: 0x28 }
  - { offsetInCU: 0x2E820, offset: 0x2E820, size: 0x8, addend: 0x0, symName: __ZNKSt10_HashtableIiSt4pairIKiiESaIS2_ENSt8__detail10_Select1stESt8equal_toIiESt4hashIiENS4_18_Mod_range_hashingENS4_20_Default_ranged_hashENS4_20_Prime_rehash_policyENS4_17_Hashtable_traitsILb0ELb0ELb1EEEE12_M_find_nodeEmRS1_m, symObjAddr: 0x3A6C, symBinAddr: 0x100007590, symSize: 0x54 }
  - { offsetInCU: 0x2E828, offset: 0x2E828, size: 0x8, addend: 0x0, symName: __ZNSt8__detail21_Hash_node_value_baseISt4pairIKiiEE4_M_vEv, symObjAddr: 0x3AC0, symBinAddr: 0x1000075E4, symSize: 0x1C }
  - { offsetInCU: 0x2E8A5, offset: 0x2E8A5, size: 0x8, addend: 0x0, symName: __ZNKSt10_HashtableIiSt4pairIKiiESaIS2_ENSt8__detail10_Select1stESt8equal_toIiESt4hashIiENS4_18_Mod_range_hashingENS4_20_Default_ranged_hashENS4_20_Prime_rehash_policyENS4_17_Hashtable_traitsILb0ELb0ELb1EEEE15_M_bucket_indexEm, symObjAddr: 0x3A3C, symBinAddr: 0x100007560, symSize: 0x30 }
  - { offsetInCU: 0x2E8AD, offset: 0x2E8AD, size: 0x8, addend: 0x0, symName: __ZNKSt10_HashtableIiSt4pairIKiiESaIS2_ENSt8__detail10_Select1stESt8equal_toIiESt4hashIiENS4_18_Mod_range_hashingENS4_20_Default_ranged_hashENS4_20_Prime_rehash_policyENS4_17_Hashtable_traitsILb0ELb0ELb1EEEE12_M_find_nodeEmRS1_m, symObjAddr: 0x3A6C, symBinAddr: 0x100007590, symSize: 0x54 }
  - { offsetInCU: 0x2E8EB, offset: 0x2E8EB, size: 0x8, addend: 0x0, symName: __ZNKSt8__detail15_Hash_code_baseIiSt4pairIKiiENS_10_Select1stESt4hashIiENS_18_Mod_range_hashingENS_20_Default_ranged_hashELb0EE12_M_hash_codeERS2_, symObjAddr: 0x3A04, symBinAddr: 0x100007528, symSize: 0x38 }
  - { offsetInCU: 0x2E8F3, offset: 0x2E8F3, size: 0x8, addend: 0x0, symName: __ZNKSt10_HashtableIiSt4pairIKiiESaIS2_ENSt8__detail10_Select1stESt8equal_toIiESt4hashIiENS4_18_Mod_range_hashingENS4_20_Default_ranged_hashENS4_20_Prime_rehash_policyENS4_17_Hashtable_traitsILb0ELb0ELb1EEEE15_M_bucket_indexEm, symObjAddr: 0x3A3C, symBinAddr: 0x100007560, symSize: 0x30 }
  - { offsetInCU: 0x2EA3F, offset: 0x2EA3F, size: 0x8, addend: 0x0, symName: __ZN11__gnu_debug14_Safe_iteratorINSt8__detail14_Node_iteratorISt4pairIKiiELb0ELb0EEENSt7__debug13unordered_mapIiiSt4hashIiESt8equal_toIiESaIS5_EEESt20forward_iterator_tagEC1ERKSG_, symObjAddr: 0x3894, symBinAddr: 0x1000073B8, symSize: 0x170 }
  - { offsetInCU: 0x2EA47, offset: 0x2EA47, size: 0x8, addend: 0x0, symName: __ZNKSt8__detail15_Hash_code_baseIiSt4pairIKiiENS_10_Select1stESt4hashIiENS_18_Mod_range_hashingENS_20_Default_ranged_hashELb0EE12_M_hash_codeERS2_, symObjAddr: 0x3A04, symBinAddr: 0x100007528, symSize: 0x38 }
  - { offsetInCU: 0x2E9DC, offset: 0x2E9DC, size: 0x8, addend: 0x0, symName: __ZNSt10_HashtableIiSt4pairIKiiESaIS2_ENSt8__detail10_Select1stESt8equal_toIiESt4hashIiENS4_18_Mod_range_hashingENS4_20_Default_ranged_hashENS4_20_Prime_rehash_policyENS4_17_Hashtable_traitsILb0ELb0ELb1EEEE7emplaceIJS0_IiiEEEES0_INS4_14_Node_iteratorIS2_Lb0ELb0EEEbEDpOT_, symObjAddr: 0x385C, symBinAddr: 0x100007380, symSize: 0x38 }
  - { offsetInCU: 0x2E9E4, offset: 0x2E9E4, size: 0x8, addend: 0x0, symName: __ZN11__gnu_debug14_Safe_iteratorINSt8__detail14_Node_iteratorISt4pairIKiiELb0ELb0EEENSt7__debug13unordered_mapIiiSt4hashIiESt8equal_toIiESaIS5_EEESt20forward_iterator_tagEC1ERKSG_, symObjAddr: 0x3894, symBinAddr: 0x1000073B8, symSize: 0x170 }
  - { offsetInCU: 0x2EA30, offset: 0x2EA30, size: 0x8, addend: 0x0, symName: __ZNKSt10_HashtableIiSt4pairIKiiESaIS2_ENSt8__detail10_Select1stESt8equal_toIiESt4hashIiENS4_18_Mod_range_hashingENS4_20_Default_ranged_hashENS4_20_Prime_rehash_policyENS4_17_Hashtable_traitsILb0ELb0ELb1EEEE12bucket_countEv, symObjAddr: 0x3844, symBinAddr: 0x100007368, symSize: 0x18 }
  - { offsetInCU: 0x2EA38, offset: 0x2EA38, size: 0x8, addend: 0x0, symName: __ZNSt10_HashtableIiSt4pairIKiiESaIS2_ENSt8__detail10_Select1stESt8equal_toIiESt4hashIiENS4_18_Mod_range_hashingENS4_20_Default_ranged_hashENS4_20_Prime_rehash_policyENS4_17_Hashtable_traitsILb0ELb0ELb1EEEE7emplaceIJS0_IiiEEEES0_INS4_14_Node_iteratorIS2_Lb0ELb0EEEbEDpOT_, symObjAddr: 0x385C, symBinAddr: 0x100007380, symSize: 0x38 }
  - { offsetInCU: 0x2EBC3, offset: 0x2EBC3, size: 0x8, addend: 0x0, symName: __ZN11__gnu_debug16_Error_formatter10_ParameterC1INSt8__detail14_Node_iteratorISt4pairIKiiELb0ELb0EEENSt7__debug13unordered_mapIiiSt4hashIiESt8equal_toIiESaIS7_EEESt20forward_iterator_tagEERKNS_14_Safe_iteratorIT_T0_T1_EEPKcNS0_12_Is_iteratorE, symObjAddr: 0x36C8, symBinAddr: 0x1000071EC, symSize: 0x17C }
  - { offsetInCU: 0x2EBCB, offset: 0x2EBCB, size: 0x8, addend: 0x0, symName: __ZNKSt10_HashtableIiSt4pairIKiiESaIS2_ENSt8__detail10_Select1stESt8equal_toIiESt4hashIiENS4_18_Mod_range_hashingENS4_20_Default_ranged_hashENS4_20_Prime_rehash_policyENS4_17_Hashtable_traitsILb0ELb0ELb1EEEE12bucket_countEv, symObjAddr: 0x3844, symBinAddr: 0x100007368, symSize: 0x18 }
  - { offsetInCU: 0x2EBA3, offset: 0x2EBA3, size: 0x8, addend: 0x0, symName: __ZNSt8__detail19_Node_iterator_baseISt4pairIKiiELb0EEC2Ev, symObjAddr: 0x36AC, symBinAddr: 0x1000071D0, symSize: 0x1C }
  - { offsetInCU: 0x2EBAB, offset: 0x2EBAB, size: 0x8, addend: 0x0, symName: __ZN11__gnu_debug16_Error_formatter10_ParameterC1INSt8__detail14_Node_iteratorISt4pairIKiiELb0ELb0EEENSt7__debug13unordered_mapIiiSt4hashIiESt8equal_toIiESaIS7_EEESt20forward_iterator_tagEERKNS_14_Safe_iteratorIT_T0_T1_EEPKcNS0_12_Is_iteratorE, symObjAddr: 0x36C8, symBinAddr: 0x1000071EC, symSize: 0x17C }
  - { offsetInCU: 0x2EB99, offset: 0x2EB99, size: 0x8, addend: 0x0, symName: __ZNSt10_HashtableIiSt4pairIKiiESaIS2_ENSt8__detail10_Select1stESt8equal_toIiESt4hashIiENS4_18_Mod_range_hashingENS4_20_Default_ranged_hashENS4_20_Prime_rehash_policyENS4_17_Hashtable_traitsILb0ELb0ELb1EEEE3endEv, symObjAddr: 0x3688, symBinAddr: 0x1000071AC, symSize: 0x24 }
  - { offsetInCU: 0x2EBA1, offset: 0x2EBA1, size: 0x8, addend: 0x0, symName: __ZNSt8__detail19_Node_iterator_baseISt4pairIKiiELb0EEC2Ev, symObjAddr: 0x36AC, symBinAddr: 0x1000071D0, symSize: 0x1C }
  - { offsetInCU: 0x2EBCB, offset: 0x2EBCB, size: 0x8, addend: 0x0, symName: __ZN11__gnu_debug14_Safe_iteratorINSt8__detail14_Node_iteratorISt4pairIKiiELb0ELb0EEENSt7__debug13unordered_mapIiiSt4hashIiESt8equal_toIiESaIS5_EEESt20forward_iterator_tagE11_S_constantEv, symObjAddr: 0x3680, symBinAddr: 0x1000071A4, symSize: 0x8 }
  - { offsetInCU: 0x2EBD3, offset: 0x2EBD3, size: 0x8, addend: 0x0, symName: __ZNSt10_HashtableIiSt4pairIKiiESaIS2_ENSt8__detail10_Select1stESt8equal_toIiESt4hashIiENS4_18_Mod_range_hashingENS4_20_Default_ranged_hashENS4_20_Prime_rehash_policyENS4_17_Hashtable_traitsILb0ELb0ELb1EEEE3endEv, symObjAddr: 0x3688, symBinAddr: 0x1000071AC, symSize: 0x24 }
  - { offsetInCU: 0x2EBE7, offset: 0x2EBE7, size: 0x8, addend: 0x0, symName: __ZNSt10_HashtableIiSt4pairIKiiESaIS2_ENSt8__detail10_Select1stESt8equal_toIiESt4hashIiENS4_18_Mod_range_hashingENS4_20_Default_ranged_hashENS4_20_Prime_rehash_policyENS4_17_Hashtable_traitsILb0ELb0ELb1EEEE4findERS1_, symObjAddr: 0x3578, symBinAddr: 0x10000709C, symSize: 0x108 }
  - { offsetInCU: 0x2EBEF, offset: 0x2EBEF, size: 0x8, addend: 0x0, symName: __ZN11__gnu_debug14_Safe_iteratorINSt8__detail14_Node_iteratorISt4pairIKiiELb0ELb0EEENSt7__debug13unordered_mapIiiSt4hashIiESt8equal_toIiESaIS5_EEESt20forward_iterator_tagE11_S_constantEv, symObjAddr: 0x3680, symBinAddr: 0x1000071A4, symSize: 0x8 }
  - { offsetInCU: 0x2EC9A, offset: 0x2EC9A, size: 0x8, addend: 0x0, symName: __ZNSt10_HashtableIiSt4pairIKiiESaIS2_ENSt8__detail10_Select1stESt8equal_toIiESt4hashIiENS4_18_Mod_range_hashingENS4_20_Default_ranged_hashENS4_20_Prime_rehash_policyENS4_17_Hashtable_traitsILb0ELb0ELb1EEEE21_M_deallocate_bucketsEPPNS4_15_Hash_node_baseEm, symObjAddr: 0x3528, symBinAddr: 0x10000704C, symSize: 0x50 }
  - { offsetInCU: 0x2ECA2, offset: 0x2ECA2, size: 0x8, addend: 0x0, symName: __ZNSt10_HashtableIiSt4pairIKiiESaIS2_ENSt8__detail10_Select1stESt8equal_toIiESt4hashIiENS4_18_Mod_range_hashingENS4_20_Default_ranged_hashENS4_20_Prime_rehash_policyENS4_17_Hashtable_traitsILb0ELb0ELb1EEEE4findERS1_, symObjAddr: 0x3578, symBinAddr: 0x10000709C, symSize: 0x108 }
  - { offsetInCU: 0x2ECF5, offset: 0x2ECF5, size: 0x8, addend: 0x0, symName: __ZNSt7__cxx1112basic_stringIcSt11char_traitsIcESaIcEE11_S_allocateERS3_m, symObjAddr: 0x34E4, symBinAddr: 0x100007008, symSize: 0x44 }
  - { offsetInCU: 0x2ECFD, offset: 0x2ECFD, size: 0x8, addend: 0x0, symName: __ZNSt10_HashtableIiSt4pairIKiiESaIS2_ENSt8__detail10_Select1stESt8equal_toIiESt4hashIiENS4_18_Mod_range_hashingENS4_20_Default_ranged_hashENS4_20_Prime_rehash_policyENS4_17_Hashtable_traitsILb0ELb0ELb1EEEE21_M_deallocate_bucketsEPPNS4_15_Hash_node_baseEm, symObjAddr: 0x3528, symBinAddr: 0x10000704C, symSize: 0x50 }
  - { offsetInCU: 0x2EDE4, offset: 0x2EDE4, size: 0x8, addend: 0x0, symName: __ZNSt7__cxx1112basic_stringIcSt11char_traitsIcESaIcEE6appendEPKcm, symObjAddr: 0x34A0, symBinAddr: 0x100006FC4, symSize: 0x44 }
  - { offsetInCU: 0x2EDEC, offset: 0x2EDEC, size: 0x8, addend: 0x0, symName: __ZNSt7__cxx1112basic_stringIcSt11char_traitsIcESaIcEE11_S_allocateERS3_m, symObjAddr: 0x34E4, symBinAddr: 0x100007008, symSize: 0x44 }
  - { offsetInCU: 0x2EE3F, offset: 0x2EE3F, size: 0x8, addend: 0x0, symName: __ZNSt7__cxx1112basic_stringIcSt11char_traitsIcESaIcEE13_S_copy_charsEPcPKcS7_, symObjAddr: 0x3464, symBinAddr: 0x100006F88, symSize: 0x3C }
  - { offsetInCU: 0x2EE47, offset: 0x2EE47, size: 0x8, addend: 0x0, symName: __ZNSt7__cxx1112basic_stringIcSt11char_traitsIcESaIcEE6appendEPKcm, symObjAddr: 0x34A0, symBinAddr: 0x100006FC4, symSize: 0x44 }
  - { offsetInCU: 0x2EEE4, offset: 0x2EEE4, size: 0x8, addend: 0x0, symName: __ZNKSt7__cxx1112basic_stringIcSt11char_traitsIcESaIcEE13_M_local_dataEv, symObjAddr: 0x3444, symBinAddr: 0x100006F68, symSize: 0x20 }
  - { offsetInCU: 0x2EEEC, offset: 0x2EEEC, size: 0x8, addend: 0x0, symName: __ZNSt7__cxx1112basic_stringIcSt11char_traitsIcESaIcEE13_S_copy_charsEPcPKcS7_, symObjAddr: 0x3464, symBinAddr: 0x100006F88, symSize: 0x3C }
  - { offsetInCU: 0x2EF19, offset: 0x2EF19, size: 0x8, addend: 0x0, symName: __ZNSt7__cxx1112basic_stringIcSt11char_traitsIcESaIcEE9_M_createERmm, symObjAddr: 0x3350, symBinAddr: 0x100006E74, symSize: 0xF4 }
  - { offsetInCU: 0x2EF21, offset: 0x2EF21, size: 0x8, addend: 0x0, symName: __ZNKSt7__cxx1112basic_stringIcSt11char_traitsIcESaIcEE13_M_local_dataEv, symObjAddr: 0x3444, symBinAddr: 0x100006F68, symSize: 0x20 }
  - { offsetInCU: 0x2EF9D, offset: 0x2EF9D, size: 0x8, addend: 0x0, symName: __ZNSt19__ptr_traits_ptr_toIPccLb0EE10pointer_toERc, symObjAddr: 0x3334, symBinAddr: 0x100006E58, symSize: 0x1C }
  - { offsetInCU: 0x2EFA5, offset: 0x2EFA5, size: 0x8, addend: 0x0, symName: __ZNSt7__cxx1112basic_stringIcSt11char_traitsIcESaIcEE9_M_createERmm, symObjAddr: 0x3350, symBinAddr: 0x100006E74, symSize: 0xF4 }
  - { offsetInCU: 0x2EFD0, offset: 0x2EFD0, size: 0x8, addend: 0x0, symName: __ZNKSt8__detail14_Node_iteratorISt4pairIKiiELb0ELb0EEdeEv, symObjAddr: 0x3310, symBinAddr: 0x100006E34, symSize: 0x24 }
  - { offsetInCU: 0x2EFD8, offset: 0x2EFD8, size: 0x8, addend: 0x0, symName: __ZNSt19__ptr_traits_ptr_toIPccLb0EE10pointer_toERc, symObjAddr: 0x3334, symBinAddr: 0x100006E58, symSize: 0x1C }
  - { offsetInCU: 0x2F001, offset: 0x2F001, size: 0x8, addend: 0x0, symName: __ZNK11__gnu_debug14_Safe_iteratorINSt8__detail14_Node_iteratorISt4pairIKiiELb0ELb0EEENSt7__debug13unordered_mapIiiSt4hashIiESt8equal_toIiESaIS5_EEESt20forward_iterator_tagE18_M_dereferenceableEv, symObjAddr: 0x328C, symBinAddr: 0x100006DB0, symSize: 0x84 }
  - { offsetInCU: 0x2F009, offset: 0x2F009, size: 0x8, addend: 0x0, symName: __ZNKSt8__detail14_Node_iteratorISt4pairIKiiELb0ELb0EEdeEv, symObjAddr: 0x3310, symBinAddr: 0x100006E34, symSize: 0x24 }
  - { offsetInCU: 0x2F032, offset: 0x2F032, size: 0x8, addend: 0x0, symName: __ZNSt8__detail14_Node_iteratorISt4pairIKiiELb0ELb0EEppEv, symObjAddr: 0x326C, symBinAddr: 0x100006D90, symSize: 0x20 }
  - { offsetInCU: 0x2F03A, offset: 0x2F03A, size: 0x8, addend: 0x0, symName: __ZNK11__gnu_debug14_Safe_iteratorINSt8__detail14_Node_iteratorISt4pairIKiiELb0ELb0EEENSt7__debug13unordered_mapIiiSt4hashIiESt8equal_toIiESaIS5_EEESt20forward_iterator_tagE18_M_dereferenceableEv, symObjAddr: 0x328C, symBinAddr: 0x100006DB0, symSize: 0x84 }
  - { offsetInCU: 0x2F063, offset: 0x2F063, size: 0x8, addend: 0x0, symName: __ZN11__gnu_debug14_Safe_iteratorINSt8__detail14_Node_iteratorISt4pairIKiiELb0ELb0EEENSt7__debug13unordered_mapIiiSt4hashIiESt8equal_toIiESaIS5_EEESt20forward_iterator_tagE4baseEv, symObjAddr: 0x3258, symBinAddr: 0x100006D7C, symSize: 0x14 }
  - { offsetInCU: 0x2F06B, offset: 0x2F06B, size: 0x8, addend: 0x0, symName: __ZNSt8__detail14_Node_iteratorISt4pairIKiiELb0ELb0EEppEv, symObjAddr: 0x326C, symBinAddr: 0x100006D90, symSize: 0x20 }
  - { offsetInCU: 0x2F094, offset: 0x2F094, size: 0x8, addend: 0x0, symName: __ZNK11__gnu_debug14_Safe_iteratorINSt8__detail14_Node_iteratorISt4pairIKiiELb0ELb0EEENSt7__debug13unordered_mapIiiSt4hashIiESt8equal_toIiESaIS5_EEESt20forward_iterator_tagE16_M_incrementableEv, symObjAddr: 0x31F4, symBinAddr: 0x100006D18, symSize: 0x64 }
  - { offsetInCU: 0x2F09C, offset: 0x2F09C, size: 0x8, addend: 0x0, symName: __ZN11__gnu_debug14_Safe_iteratorINSt8__detail14_Node_iteratorISt4pairIKiiELb0ELb0EEENSt7__debug13unordered_mapIiiSt4hashIiESt8equal_toIiESaIS5_EEESt20forward_iterator_tagE4baseEv, symObjAddr: 0x3258, symBinAddr: 0x100006D7C, symSize: 0x14 }
  - { offsetInCU: 0x2F111, offset: 0x2F111, size: 0x8, addend: 0x0, symName: __ZNSt8__detailneERKNS_19_Node_iterator_baseISt4pairIKiiELb0EEES6_, symObjAddr: 0x31C4, symBinAddr: 0x100006CE8, symSize: 0x30 }
  - { offsetInCU: 0x2F119, offset: 0x2F119, size: 0x8, addend: 0x0, symName: __ZNK11__gnu_debug14_Safe_iteratorINSt8__detail14_Node_iteratorISt4pairIKiiELb0ELb0EEENSt7__debug13unordered_mapIiiSt4hashIiESt8equal_toIiESaIS5_EEESt20forward_iterator_tagE16_M_incrementableEv, symObjAddr: 0x31F4, symBinAddr: 0x100006D18, symSize: 0x64 }
  - { offsetInCU: 0x2F125, offset: 0x2F125, size: 0x8, addend: 0x0, symName: __ZNSt9__cxx199813unordered_mapIiiSt4hashIiESt8equal_toIiESaISt4pairIKiiEEE5beginEv, symObjAddr: 0x31A8, symBinAddr: 0x100006CCC, symSize: 0x1C }
  - { offsetInCU: 0x2F12D, offset: 0x2F12D, size: 0x8, addend: 0x0, symName: __ZNSt8__detailneERKNS_19_Node_iterator_baseISt4pairIKiiELb0EEES6_, symObjAddr: 0x31C4, symBinAddr: 0x100006CE8, symSize: 0x30 }
  - { offsetInCU: 0x2F156, offset: 0x2F156, size: 0x8, addend: 0x0, symName: __ZNSt10_HashtableIiSt4pairIKiiESaIS2_ENSt8__detail10_Select1stESt8equal_toIiESt4hashIiENS4_18_Mod_range_hashingENS4_20_Default_ranged_hashENS4_20_Prime_rehash_policyENS4_17_Hashtable_traitsILb0ELb0ELb1EEEE18_M_assign_elementsIRKSF_EEvOT_, symObjAddr: 0x2FBC, symBinAddr: 0x100006AE0, symSize: 0x1EC }
  - { offsetInCU: 0x2F15E, offset: 0x2F15E, size: 0x8, addend: 0x0, symName: __ZNSt9__cxx199813unordered_mapIiiSt4hashIiESt8equal_toIiESaISt4pairIKiiEEE5beginEv, symObjAddr: 0x31A8, symBinAddr: 0x100006CCC, symSize: 0x1C }
  - { offsetInCU: 0x2F210, offset: 0x2F210, size: 0x8, addend: 0x0, symName: __ZNSt10_HashtableIiSt4pairIKiiESaIS2_ENSt8__detail10_Select1stESt8equal_toIiESt4hashIiENS4_18_Mod_range_hashingENS4_20_Default_ranged_hashENS4_20_Prime_rehash_policyENS4_17_Hashtable_traitsILb0ELb0ELb1EEEE8_M_resetEv, symObjAddr: 0x2F64, symBinAddr: 0x100006A88, symSize: 0x58 }
  - { offsetInCU: 0x2F218, offset: 0x2F218, size: 0x8, addend: 0x0, symName: __ZNSt10_HashtableIiSt4pairIKiiESaIS2_ENSt8__detail10_Select1stESt8equal_toIiESt4hashIiENS4_18_Mod_range_hashingENS4_20_Default_ranged_hashENS4_20_Prime_rehash_policyENS4_17_Hashtable_traitsILb0ELb0ELb1EEEE18_M_assign_elementsIRKSF_EEvOT_, symObjAddr: 0x2FBC, symBinAddr: 0x100006AE0, symSize: 0x1EC }
  - { offsetInCU: 0x2F24B, offset: 0x2F24B, size: 0x8, addend: 0x0, symName: __ZNSt10_HashtableIiSt4pairIKiiESaIS2_ENSt8__detail10_Select1stESt8equal_toIiESt4hashIiENS4_18_Mod_range_hashingENS4_20_Default_ranged_hashENS4_20_Prime_rehash_policyENS4_17_Hashtable_traitsILb0ELb0ELb1EEEE9_M_assignIRKSF_NS4_10_AllocNodeISaINS4_10_Hash_nodeIS2_Lb0EEEEEEEEvOT_RKT0_, symObjAddr: 0x2D94, symBinAddr: 0x1000068B8, symSize: 0x1D0 }
  - { offsetInCU: 0x2F253, offset: 0x2F253, size: 0x8, addend: 0x0, symName: __ZNSt10_HashtableIiSt4pairIKiiESaIS2_ENSt8__detail10_Select1stESt8equal_toIiESt4hashIiENS4_18_Mod_range_hashingENS4_20_Default_ranged_hashENS4_20_Prime_rehash_policyENS4_17_Hashtable_traitsILb0ELb0ELb1EEEE8_M_resetEv, symObjAddr: 0x2F64, symBinAddr: 0x100006A88, symSize: 0x58 }
  - { offsetInCU: 0x2F3DE, offset: 0x2F3DE, size: 0x8, addend: 0x0, symName: __ZNSt8__detail10_AllocNodeISaINS_10_Hash_nodeISt4pairIKiiELb0EEEEEC1ERNS_16_Hashtable_allocIS6_EE, symObjAddr: 0x2D70, symBinAddr: 0x100006894, symSize: 0x24 }
  - { offsetInCU: 0x2F3E6, offset: 0x2F3E6, size: 0x8, addend: 0x0, symName: __ZNSt10_HashtableIiSt4pairIKiiESaIS2_ENSt8__detail10_Select1stESt8equal_toIiESt4hashIiENS4_18_Mod_range_hashingENS4_20_Default_ranged_hashENS4_20_Prime_rehash_policyENS4_17_Hashtable_traitsILb0ELb0ELb1EEEE9_M_assignIRKSF_NS4_10_AllocNodeISaINS4_10_Hash_nodeIS2_Lb0EEEEEEEEvOT_RKT0_, symObjAddr: 0x2D94, symBinAddr: 0x1000068B8, symSize: 0x1D0 }
  - { offsetInCU: 0x2F3FB, offset: 0x2F3FB, size: 0x8, addend: 0x0, symName: __ZNSt8__detail16_Hashtable_allocISaINS_10_Hash_nodeISt4pairIKiiELb0EEEEE19_M_deallocate_nodesEPS5_, symObjAddr: 0x2D20, symBinAddr: 0x100006844, symSize: 0x50 }
  - { offsetInCU: 0x2F403, offset: 0x2F403, size: 0x8, addend: 0x0, symName: __ZNSt8__detail10_AllocNodeISaINS_10_Hash_nodeISt4pairIKiiELb0EEEEEC1ERNS_16_Hashtable_allocIS6_EE, symObjAddr: 0x2D70, symBinAddr: 0x100006894, symSize: 0x24 }
  - { offsetInCU: 0x2F469, offset: 0x2F469, size: 0x8, addend: 0x0, symName: __ZNKSt10_HashtableIiSt4pairIKiiESaIS2_ENSt8__detail10_Select1stESt8equal_toIiESt4hashIiENS4_18_Mod_range_hashingENS4_20_Default_ranged_hashENS4_20_Prime_rehash_policyENS4_17_Hashtable_traitsILb0ELb0ELb1EEEE8_M_beginEv, symObjAddr: 0x2D08, symBinAddr: 0x10000682C, symSize: 0x18 }
  - { offsetInCU: 0x2F471, offset: 0x2F471, size: 0x8, addend: 0x0, symName: __ZNSt8__detail16_Hashtable_allocISaINS_10_Hash_nodeISt4pairIKiiELb0EEEEE19_M_deallocate_nodesEPS5_, symObjAddr: 0x2D20, symBinAddr: 0x100006844, symSize: 0x50 }
  - { offsetInCU: 0x2F4C4, offset: 0x2F4C4, size: 0x8, addend: 0x0, symName: __ZNKSt8__detail16_Hashtable_allocISaINS_10_Hash_nodeISt4pairIKiiELb0EEEEE17_M_node_allocatorEv, symObjAddr: 0x2CEC, symBinAddr: 0x100006810, symSize: 0x1C }
  - { offsetInCU: 0x2F4CC, offset: 0x2F4CC, size: 0x8, addend: 0x0, symName: __ZNKSt10_HashtableIiSt4pairIKiiESaIS2_ENSt8__detail10_Select1stESt8equal_toIiESt4hashIiENS4_18_Mod_range_hashingENS4_20_Default_ranged_hashENS4_20_Prime_rehash_policyENS4_17_Hashtable_traitsILb0ELb0ELb1EEEE8_M_beginEv, symObjAddr: 0x2D08, symBinAddr: 0x10000682C, symSize: 0x18 }
  - { offsetInCU: 0x2F4F5, offset: 0x2F4F5, size: 0x8, addend: 0x0, symName: __ZN11__gnu_debug25_Safe_unordered_containerINSt7__debug13unordered_mapIiiSt4hashIiESt8equal_toIiESaISt4pairIKiiEEEEE17_M_invalidate_allEv, symObjAddr: 0x2CA8, symBinAddr: 0x1000067CC, symSize: 0x44 }
  - { offsetInCU: 0x2F4FD, offset: 0x2F4FD, size: 0x8, addend: 0x0, symName: __ZNKSt8__detail16_Hashtable_allocISaINS_10_Hash_nodeISt4pairIKiiELb0EEEEE17_M_node_allocatorEv, symObjAddr: 0x2CEC, symBinAddr: 0x100006810, symSize: 0x1C }
  - { offsetInCU: 0x2F640, offset: 0x2F640, size: 0x8, addend: 0x0, symName: __ZZN11__gnu_debug25_Safe_unordered_containerINSt7__debug13unordered_mapIiiSt4hashIiESt8equal_toIiESaISt4pairIKiiEEEEE17_M_invalidate_allEvENKUlNSt8__detail20_Node_const_iteratorIS9_Lb0ELb0EEEE_clESF_, symObjAddr: 0x2C80, symBinAddr: 0x1000067A4, symSize: 0x28 }
  - { offsetInCU: 0x2F648, offset: 0x2F648, size: 0x8, addend: 0x0, symName: __ZN11__gnu_debug25_Safe_unordered_containerINSt7__debug13unordered_mapIiiSt4hashIiESt8equal_toIiESaISt4pairIKiiEEEEE17_M_invalidate_allEv, symObjAddr: 0x2CA8, symBinAddr: 0x1000067CC, symSize: 0x44 }
  - { offsetInCU: 0x2F5E7, offset: 0x2F5E7, size: 0x8, addend: 0x0, symName: __ZNSt8__detail16_Hashtable_allocISaINS_10_Hash_nodeISt4pairIKiiELb0EEEEE17_M_node_allocatorEv, symObjAddr: 0x2C64, symBinAddr: 0x100006788, symSize: 0x1C }
  - { offsetInCU: 0x2F5EF, offset: 0x2F5EF, size: 0x8, addend: 0x0, symName: __ZZN11__gnu_debug25_Safe_unordered_containerINSt7__debug13unordered_mapIiiSt4hashIiESt8equal_toIiESaISt4pairIKiiEEEEE17_M_invalidate_allEvENKUlNSt8__detail20_Node_const_iteratorIS9_Lb0ELb0EEEE_clESF_, symObjAddr: 0x2C80, symBinAddr: 0x1000067A4, symSize: 0x28 }
  - { offsetInCU: 0x2F618, offset: 0x2F618, size: 0x8, addend: 0x0, symName: __ZNSt8__detail9_Map_baseIiSt4pairIKiiESaIS3_ENS_10_Select1stESt8equal_toIiESt4hashIiENS_18_Mod_range_hashingENS_20_Default_ranged_hashENS_20_Prime_rehash_policyENS_17_Hashtable_traitsILb0ELb0ELb1EEELb1EEixERS2_, symObjAddr: 0x2B5C, symBinAddr: 0x100006680, symSize: 0x108 }
  - { offsetInCU: 0x2F620, offset: 0x2F620, size: 0x8, addend: 0x0, symName: __ZNSt8__detail16_Hashtable_allocISaINS_10_Hash_nodeISt4pairIKiiELb0EEEEE17_M_node_allocatorEv, symObjAddr: 0x2C64, symBinAddr: 0x100006788, symSize: 0x1C }
  - { offsetInCU: 0x2F81F, offset: 0x2F81F, size: 0x8, addend: 0x0, symName: __ZNSt4pairIN11__gnu_debug14_Safe_iteratorINSt8__detail14_Node_iteratorIS_IKiiELb0ELb0EEENSt7__debug13unordered_mapIiiSt4hashIiESt8equal_toIiESaIS5_EEESt20forward_iterator_tagEEbEC1ISG_bLb1EEERKSG_RKb, symObjAddr: 0x2B20, symBinAddr: 0x100006644, symSize: 0x3C }
  - { offsetInCU: 0x2F827, offset: 0x2F827, size: 0x8, addend: 0x0, symName: __ZNSt8__detail9_Map_baseIiSt4pairIKiiESaIS3_ENS_10_Select1stESt8equal_toIiESt4hashIiENS_18_Mod_range_hashingENS_20_Default_ranged_hashENS_20_Prime_rehash_policyENS_17_Hashtable_traitsILb0ELb0ELb1EEELb1EEixERS2_, symObjAddr: 0x2B5C, symBinAddr: 0x100006680, symSize: 0x108 }
  - { offsetInCU: 0x2F7BD, offset: 0x2F7BD, size: 0x8, addend: 0x0, symName: __ZNSt7__debug13unordered_mapIiiSt4hashIiESt8equal_toIiESaISt4pairIKiiEEE17_M_check_rehashedEm, symObjAddr: 0x2AD0, symBinAddr: 0x1000065F4, symSize: 0x50 }
  - { offsetInCU: 0x2F7C5, offset: 0x2F7C5, size: 0x8, addend: 0x0, symName: __ZNSt4pairIN11__gnu_debug14_Safe_iteratorINSt8__detail14_Node_iteratorIS_IKiiELb0ELb0EEENSt7__debug13unordered_mapIiiSt4hashIiESt8equal_toIiESaIS5_EEESt20forward_iterator_tagEEbEC1ISG_bLb1EEERKSG_RKb, symObjAddr: 0x2B20, symBinAddr: 0x100006644, symSize: 0x3C }
  - { offsetInCU: 0x2F813, offset: 0x2F813, size: 0x8, addend: 0x0, symName: __ZNSt9__cxx199813unordered_mapIiiSt4hashIiESt8equal_toIiESaISt4pairIKiiEEE6insertIS5_IiiEEENSt9enable_ifIXsrSt16is_constructibleIS7_JOT_EE5valueES5_INSt8__detail14_Node_iteratorIS7_Lb0ELb0EEEbEE4typeESF_, symObjAddr: 0x2A98, symBinAddr: 0x1000065BC, symSize: 0x38 }
  - { offsetInCU: 0x2F81B, offset: 0x2F81B, size: 0x8, addend: 0x0, symName: __ZNSt7__debug13unordered_mapIiiSt4hashIiESt8equal_toIiESaISt4pairIKiiEEE17_M_check_rehashedEm, symObjAddr: 0x2AD0, symBinAddr: 0x1000065F4, symSize: 0x50 }
  - { offsetInCU: 0x2F8C6, offset: 0x2F8C6, size: 0x8, addend: 0x0, symName: __ZSt7forwardISt4pairIiiEEOT_RNSt16remove_referenceIS2_E4typeE, symObjAddr: 0x2A84, symBinAddr: 0x1000065A8, symSize: 0x14 }
  - { offsetInCU: 0x2F8CE, offset: 0x2F8CE, size: 0x8, addend: 0x0, symName: __ZNSt9__cxx199813unordered_mapIiiSt4hashIiESt8equal_toIiESaISt4pairIKiiEEE6insertIS5_IiiEEENSt9enable_ifIXsrSt16is_constructibleIS7_JOT_EE5valueES5_INSt8__detail14_Node_iteratorIS7_Lb0ELb0EEEbEE4typeESF_, symObjAddr: 0x2A98, symBinAddr: 0x1000065BC, symSize: 0x38 }
  - { offsetInCU: 0x2F8BC, offset: 0x2F8BC, size: 0x8, addend: 0x0, symName: __ZNKSt9__cxx199813unordered_mapIiiSt4hashIiESt8equal_toIiESaISt4pairIKiiEEE12bucket_countEv, symObjAddr: 0x2A68, symBinAddr: 0x10000658C, symSize: 0x1C }
  - { offsetInCU: 0x2F8C4, offset: 0x2F8C4, size: 0x8, addend: 0x0, symName: __ZSt7forwardISt4pairIiiEEOT_RNSt16remove_referenceIS2_E4typeE, symObjAddr: 0x2A84, symBinAddr: 0x1000065A8, symSize: 0x14 }
  - { offsetInCU: 0x2F968, offset: 0x2F968, size: 0x8, addend: 0x0, symName: __ZNSt4pairIiiEC1IRiiLb1EEEOT_OT0_, symObjAddr: 0x2A20, symBinAddr: 0x100006544, symSize: 0x48 }
  - { offsetInCU: 0x2F970, offset: 0x2F970, size: 0x8, addend: 0x0, symName: __ZNKSt9__cxx199813unordered_mapIiiSt4hashIiESt8equal_toIiESaISt4pairIKiiEEE12bucket_countEv, symObjAddr: 0x2A68, symBinAddr: 0x10000658C, symSize: 0x1C }
  - { offsetInCU: 0x2F9F1, offset: 0x2F9F1, size: 0x8, addend: 0x0, symName: __ZSt7forwardIRiEOT_RNSt16remove_referenceIS1_E4typeE, symObjAddr: 0x2A0C, symBinAddr: 0x100006530, symSize: 0x14 }
  - { offsetInCU: 0x2F9F9, offset: 0x2F9F9, size: 0x8, addend: 0x0, symName: __ZNSt4pairIiiEC1IRiiLb1EEEOT_OT0_, symObjAddr: 0x2A20, symBinAddr: 0x100006544, symSize: 0x48 }
  - { offsetInCU: 0x2FA4C, offset: 0x2FA4C, size: 0x8, addend: 0x0, symName: __ZNSt8__detaileqERKNS_19_Node_iterator_baseISt4pairIKiiELb0EEES6_, symObjAddr: 0x29DC, symBinAddr: 0x100006500, symSize: 0x30 }
  - { offsetInCU: 0x2FA54, offset: 0x2FA54, size: 0x8, addend: 0x0, symName: __ZSt7forwardIRiEOT_RNSt16remove_referenceIS1_E4typeE, symObjAddr: 0x2A0C, symBinAddr: 0x100006530, symSize: 0x14 }
  - { offsetInCU: 0x2FA56, offset: 0x2FA56, size: 0x8, addend: 0x0, symName: __ZNK11__gnu_debug14_Safe_iteratorINSt8__detail14_Node_iteratorISt4pairIKiiELb0ELb0EEENSt7__debug13unordered_mapIiiSt4hashIiESt8equal_toIiESaIS5_EEESt20forward_iterator_tagE4baseEv, symObjAddr: 0x29C8, symBinAddr: 0x1000064EC, symSize: 0x14 }
  - { offsetInCU: 0x2FA5E, offset: 0x2FA5E, size: 0x8, addend: 0x0, symName: __ZNSt8__detaileqERKNS_19_Node_iterator_baseISt4pairIKiiELb0EEES6_, symObjAddr: 0x29DC, symBinAddr: 0x100006500, symSize: 0x30 }
  - { offsetInCU: 0x2FA87, offset: 0x2FA87, size: 0x8, addend: 0x0, symName: __ZN11__gnu_debug16_Error_formatter11_M_iteratorINS_14_Safe_iteratorINSt8__detail14_Node_iteratorISt4pairIKiiELb0ELb0EEENSt7__debug13unordered_mapIiiSt4hashIiESt8equal_toIiESaIS7_EEESt20forward_iterator_tagEEEERS0_RKT_PKc, symObjAddr: 0x2934, symBinAddr: 0x100006458, symSize: 0x94 }
  - { offsetInCU: 0x2FA8F, offset: 0x2FA8F, size: 0x8, addend: 0x0, symName: __ZNK11__gnu_debug14_Safe_iteratorINSt8__detail14_Node_iteratorISt4pairIKiiELb0ELb0EEENSt7__debug13unordered_mapIiiSt4hashIiESt8equal_toIiESaIS5_EEESt20forward_iterator_tagE4baseEv, symObjAddr: 0x29C8, symBinAddr: 0x1000064EC, symSize: 0x14 }
  - { offsetInCU: 0x2FAF2, offset: 0x2FAF2, size: 0x8, addend: 0x0, symName: __ZNK11__gnu_debug14_Safe_iteratorINSt8__detail14_Node_iteratorISt4pairIKiiELb0ELb0EEENSt7__debug13unordered_mapIiiSt4hashIiESt8equal_toIiESaIS5_EEESt20forward_iterator_tagE20_M_value_initializedEv, symObjAddr: 0x28C4, symBinAddr: 0x1000063E8, symSize: 0x70 }
  - { offsetInCU: 0x2FAFA, offset: 0x2FAFA, size: 0x8, addend: 0x0, symName: __ZN11__gnu_debug16_Error_formatter11_M_iteratorINS_14_Safe_iteratorINSt8__detail14_Node_iteratorISt4pairIKiiELb0ELb0EEENSt7__debug13unordered_mapIiiSt4hashIiESt8equal_toIiESaIS7_EEESt20forward_iterator_tagEEEERS0_RKT_PKc, symObjAddr: 0x2934, symBinAddr: 0x100006458, symSize: 0x94 }
  - { offsetInCU: 0x2FB77, offset: 0x2FB77, size: 0x8, addend: 0x0, symName: __ZNSt8__detail14_Node_iteratorISt4pairIKiiELb0ELb0EEC1Ev, symObjAddr: 0x28A4, symBinAddr: 0x1000063C8, symSize: 0x20 }
  - { offsetInCU: 0x2FB7F, offset: 0x2FB7F, size: 0x8, addend: 0x0, symName: __ZNK11__gnu_debug14_Safe_iteratorINSt8__detail14_Node_iteratorISt4pairIKiiELb0ELb0EEENSt7__debug13unordered_mapIiiSt4hashIiESt8equal_toIiESaIS5_EEESt20forward_iterator_tagE20_M_value_initializedEv, symObjAddr: 0x28C4, symBinAddr: 0x1000063E8, symSize: 0x70 }
  - { offsetInCU: 0x2FB6E, offset: 0x2FB6E, size: 0x8, addend: 0x0, symName: __ZNSt9__cxx199813unordered_mapIiiSt4hashIiESt8equal_toIiESaISt4pairIKiiEEE3endEv, symObjAddr: 0x2888, symBinAddr: 0x1000063AC, symSize: 0x1C }
  - { offsetInCU: 0x2FB76, offset: 0x2FB76, size: 0x8, addend: 0x0, symName: __ZNSt8__detail14_Node_iteratorISt4pairIKiiELb0ELb0EEC1Ev, symObjAddr: 0x28A4, symBinAddr: 0x1000063C8, symSize: 0x20 }
  - { offsetInCU: 0x2FCA9, offset: 0x2FCA9, size: 0x8, addend: 0x0, symName: __ZN11__gnu_debug14_Safe_iteratorINSt8__detail14_Node_iteratorISt4pairIKiiELb0ELb0EEENSt7__debug13unordered_mapIiiSt4hashIiESt8equal_toIiESaIS5_EEESt20forward_iterator_tagEC1ES6_PKNS_19_Safe_sequence_baseE, symObjAddr: 0x2834, symBinAddr: 0x100006358, symSize: 0x54 }
  - { offsetInCU: 0x2FCB1, offset: 0x2FCB1, size: 0x8, addend: 0x0, symName: __ZNSt9__cxx199813unordered_mapIiiSt4hashIiESt8equal_toIiESaISt4pairIKiiEEE3endEv, symObjAddr: 0x2888, symBinAddr: 0x1000063AC, symSize: 0x1C }
  - { offsetInCU: 0x2FC26, offset: 0x2FC26, size: 0x8, addend: 0x0, symName: __ZNSt9__cxx199813unordered_mapIiiSt4hashIiESt8equal_toIiESaISt4pairIKiiEEE4findERS6_, symObjAddr: 0x2810, symBinAddr: 0x100006334, symSize: 0x24 }
  - { offsetInCU: 0x2FC2E, offset: 0x2FC2E, size: 0x8, addend: 0x0, symName: __ZN11__gnu_debug14_Safe_iteratorINSt8__detail14_Node_iteratorISt4pairIKiiELb0ELb0EEENSt7__debug13unordered_mapIiiSt4hashIiESt8equal_toIiESaIS5_EEESt20forward_iterator_tagEC1ES6_PKNS_19_Safe_sequence_baseE, symObjAddr: 0x2834, symBinAddr: 0x100006358, symSize: 0x54 }
  - { offsetInCU: 0x2FCDE, offset: 0x2FCDE, size: 0x8, addend: 0x0, symName: __ZNSt15__new_allocatorINSt8__detail10_Hash_nodeISt4pairIKiiELb0EEEED2Ev, symObjAddr: 0x27FC, symBinAddr: 0x100006320, symSize: 0x14 }
  - { offsetInCU: 0x2FCE6, offset: 0x2FCE6, size: 0x8, addend: 0x0, symName: __ZNSt9__cxx199813unordered_mapIiiSt4hashIiESt8equal_toIiESaISt4pairIKiiEEE4findERS6_, symObjAddr: 0x2810, symBinAddr: 0x100006334, symSize: 0x24 }
  - { offsetInCU: 0x2FCE1, offset: 0x2FCE1, size: 0x8, addend: 0x0, symName: __ZNSt10_HashtableIiSt4pairIKiiESaIS2_ENSt8__detail10_Select1stESt8equal_toIiESt4hashIiENS4_18_Mod_range_hashingENS4_20_Default_ranged_hashENS4_20_Prime_rehash_policyENS4_17_Hashtable_traitsILb0ELb0ELb1EEEE21_M_deallocate_bucketsEv, symObjAddr: 0x27C8, symBinAddr: 0x1000062EC, symSize: 0x34 }
  - { offsetInCU: 0x2FCE9, offset: 0x2FCE9, size: 0x8, addend: 0x0, symName: __ZNSt15__new_allocatorINSt8__detail10_Hash_nodeISt4pairIKiiELb0EEEED2Ev, symObjAddr: 0x27FC, symBinAddr: 0x100006320, symSize: 0x14 }
  - { offsetInCU: 0x2FD12, offset: 0x2FD12, size: 0x8, addend: 0x0, symName: __ZNSt10_HashtableIiSt4pairIKiiESaIS2_ENSt8__detail10_Select1stESt8equal_toIiESt4hashIiENS4_18_Mod_range_hashingENS4_20_Default_ranged_hashENS4_20_Prime_rehash_policyENS4_17_Hashtable_traitsILb0ELb0ELb1EEEE5clearEv, symObjAddr: 0x2764, symBinAddr: 0x100006288, symSize: 0x64 }
  - { offsetInCU: 0x2FD1A, offset: 0x2FD1A, size: 0x8, addend: 0x0, symName: __ZNSt10_HashtableIiSt4pairIKiiESaIS2_ENSt8__detail10_Select1stESt8equal_toIiESt4hashIiENS4_18_Mod_range_hashingENS4_20_Default_ranged_hashENS4_20_Prime_rehash_policyENS4_17_Hashtable_traitsILb0ELb0ELb1EEEE21_M_deallocate_bucketsEv, symObjAddr: 0x27C8, symBinAddr: 0x1000062EC, symSize: 0x34 }
  - { offsetInCU: 0x2FD48, offset: 0x2FD48, size: 0x8, addend: 0x0, symName: __ZNSt7__cxx1112basic_stringIcSt11char_traitsIcESaIcEE7reserveEm, symObjAddr: 0x26BC, symBinAddr: 0x1000061E0, symSize: 0xA8 }
  - { offsetInCU: 0x2FD50, offset: 0x2FD50, size: 0x8, addend: 0x0, symName: __ZNSt10_HashtableIiSt4pairIKiiESaIS2_ENSt8__detail10_Select1stESt8equal_toIiESt4hashIiENS4_18_Mod_range_hashingENS4_20_Default_ranged_hashENS4_20_Prime_rehash_policyENS4_17_Hashtable_traitsILb0ELb0ELb1EEEE5clearEv, symObjAddr: 0x2764, symBinAddr: 0x100006288, symSize: 0x64 }
  - { offsetInCU: 0x2FE22, offset: 0x2FE22, size: 0x8, addend: 0x0, symName: __ZNSt7__cxx1112basic_stringIcSt11char_traitsIcESaIcEEC1ERKS3_, symObjAddr: 0x265C, symBinAddr: 0x100006180, symSize: 0x60 }
  - { offsetInCU: 0x2FE2A, offset: 0x2FE2A, size: 0x8, addend: 0x0, symName: __ZNSt7__cxx1112basic_stringIcSt11char_traitsIcESaIcEE7reserveEm, symObjAddr: 0x26BC, symBinAddr: 0x1000061E0, symSize: 0xA8 }
  - { offsetInCU: 0x2FE49, offset: 0x2FE49, size: 0x8, addend: 0x0, symName: __ZNSt7__cxx1112basic_stringIcSt11char_traitsIcESaIcEE7_S_copyEPcPKcm, symObjAddr: 0x2610, symBinAddr: 0x100006134, symSize: 0x4C }
  - { offsetInCU: 0x2FE51, offset: 0x2FE51, size: 0x8, addend: 0x0, symName: __ZNSt7__cxx1112basic_stringIcSt11char_traitsIcESaIcEEC1ERKS3_, symObjAddr: 0x265C, symBinAddr: 0x100006180, symSize: 0x60 }
  - { offsetInCU: 0x2FEA7, offset: 0x2FEA7, size: 0x8, addend: 0x0, symName: __ZNSt7__cxx1112basic_stringIcSt11char_traitsIcESaIcEE10_M_destroyEm, symObjAddr: 0x25AC, symBinAddr: 0x1000060D0, symSize: 0x64 }
  - { offsetInCU: 0x2FEAF, offset: 0x2FEAF, size: 0x8, addend: 0x0, symName: __ZNSt7__cxx1112basic_stringIcSt11char_traitsIcESaIcEE7_S_copyEPcPKcm, symObjAddr: 0x2610, symBinAddr: 0x100006134, symSize: 0x4C }
  - { offsetInCU: 0x2FF4C, offset: 0x2FF4C, size: 0x8, addend: 0x0, symName: __ZNKSt7__cxx1112basic_stringIcSt11char_traitsIcESaIcEE16_M_get_allocatorEv, symObjAddr: 0x2598, symBinAddr: 0x1000060BC, symSize: 0x14 }
  - { offsetInCU: 0x2FF54, offset: 0x2FF54, size: 0x8, addend: 0x0, symName: __ZNSt7__cxx1112basic_stringIcSt11char_traitsIcESaIcEE10_M_destroyEm, symObjAddr: 0x25AC, symBinAddr: 0x1000060D0, symSize: 0x64 }
  - { offsetInCU: 0x2FF98, offset: 0x2FF98, size: 0x8, addend: 0x0, symName: __ZNKSt7__cxx1112basic_stringIcSt11char_traitsIcESaIcEE8capacityEv, symObjAddr: 0x255C, symBinAddr: 0x100006080, symSize: 0x3C }
  - { offsetInCU: 0x2FFA0, offset: 0x2FFA0, size: 0x8, addend: 0x0, symName: __ZNKSt7__cxx1112basic_stringIcSt11char_traitsIcESaIcEE16_M_get_allocatorEv, symObjAddr: 0x2598, symBinAddr: 0x1000060BC, symSize: 0x14 }
  - { offsetInCU: 0x30089, offset: 0x30089, size: 0x8, addend: 0x0, symName: __ZSt12__str_concatINSt7__cxx1112basic_stringIcSt11char_traitsIcESaIcEEEET_PKNS6_10value_typeENS6_9size_typeES9_SA_RKNS6_14allocator_typeE, symObjAddr: 0x247C, symBinAddr: 0x100005FA0, symSize: 0xE0 }
  - { offsetInCU: 0x30091, offset: 0x30091, size: 0x8, addend: 0x0, symName: __ZNKSt7__cxx1112basic_stringIcSt11char_traitsIcESaIcEE8capacityEv, symObjAddr: 0x255C, symBinAddr: 0x100006080, symSize: 0x3C }
  - { offsetInCU: 0x3016E, offset: 0x3016E, size: 0x8, addend: 0x0, symName: __ZNKSt7__cxx1112basic_stringIcSt11char_traitsIcESaIcEE13get_allocatorEv, symObjAddr: 0x242C, symBinAddr: 0x100005F50, symSize: 0x50 }
  - { offsetInCU: 0x30176, offset: 0x30176, size: 0x8, addend: 0x0, symName: __ZSt12__str_concatINSt7__cxx1112basic_stringIcSt11char_traitsIcESaIcEEEET_PKNS6_10value_typeENS6_9size_typeES9_SA_RKNS6_14allocator_typeE, symObjAddr: 0x247C, symBinAddr: 0x100005FA0, symSize: 0xE0 }
  - { offsetInCU: 0x3024E, offset: 0x3024E, size: 0x8, addend: 0x0, symName: __ZSt7forwardIiEOT_RNSt16remove_referenceIS0_E4typeE, symObjAddr: 0x2418, symBinAddr: 0x100005F3C, symSize: 0x14 }
  - { offsetInCU: 0x30256, offset: 0x30256, size: 0x8, addend: 0x0, symName: __ZNKSt7__cxx1112basic_stringIcSt11char_traitsIcESaIcEE13get_allocatorEv, symObjAddr: 0x242C, symBinAddr: 0x100005F50, symSize: 0x50 }
  - { offsetInCU: 0x302A5, offset: 0x302A5, size: 0x8, addend: 0x0, symName: __ZSt7forwardIbEOT_RNSt16remove_referenceIS0_E4typeE, symObjAddr: 0x2404, symBinAddr: 0x100005F28, symSize: 0x14 }
  - { offsetInCU: 0x302AD, offset: 0x302AD, size: 0x8, addend: 0x0, symName: __ZSt7forwardIiEOT_RNSt16remove_referenceIS0_E4typeE, symObjAddr: 0x2418, symBinAddr: 0x100005F3C, symSize: 0x14 }
  - { offsetInCU: 0x302B5, offset: 0x302B5, size: 0x8, addend: 0x0, symName: __ZNSt7__cxx1112basic_stringIcSt11char_traitsIcESaIcEE12_M_constructIPKcEEvT_S8_St20forward_iterator_tag, symObjAddr: 0x231C, symBinAddr: 0x100005E40, symSize: 0xE8 }
  - { offsetInCU: 0x302BD, offset: 0x302BD, size: 0x8, addend: 0x0, symName: __ZSt7forwardIbEOT_RNSt16remove_referenceIS0_E4typeE, symObjAddr: 0x2404, symBinAddr: 0x100005F28, symSize: 0x14 }
  - { offsetInCU: 0x30477, offset: 0x30477, size: 0x8, addend: 0x0, symName: __ZZNSt7__cxx1112basic_stringIcSt11char_traitsIcESaIcEE12_M_constructIPKcEEvT_S8_St20forward_iterator_tagEN6_GuardC1EPS4_, symObjAddr: 0x22C4, symBinAddr: 0x100005DE8, symSize: 0x24 }
  - { offsetInCU: 0x3047F, offset: 0x3047F, size: 0x8, addend: 0x0, symName: __ZZNSt7__cxx1112basic_stringIcSt11char_traitsIcESaIcEE12_M_constructIPKcEEvT_S8_St20forward_iterator_tagEN6_GuardD1Ev, symObjAddr: 0x22E8, symBinAddr: 0x100005E0C, symSize: 0x34 }
  - { offsetInCU: 0x304B2, offset: 0x304B2, size: 0x8, addend: 0x0, symName: __ZZNSt7__cxx1112basic_stringIcSt11char_traitsIcESaIcEE12_M_constructIPKcEEvT_S8_St20forward_iterator_tagEN6_GuardD1Ev, symObjAddr: 0x22E8, symBinAddr: 0x100005E0C, symSize: 0x34 }
  - { offsetInCU: 0x304BA, offset: 0x304BA, size: 0x8, addend: 0x0, symName: __ZNSt7__cxx1112basic_stringIcSt11char_traitsIcESaIcEE12_M_constructIPKcEEvT_S8_St20forward_iterator_tag, symObjAddr: 0x231C, symBinAddr: 0x100005E40, symSize: 0xE8 }
  - { offsetInCU: 0x30544, offset: 0x30544, size: 0x8, addend: 0x0, symName: __ZNSt7__cxx1112basic_stringIcSt11char_traitsIcESaIcEE13_M_set_lengthEm, symObjAddr: 0x227C, symBinAddr: 0x100005DA0, symSize: 0x48 }
  - { offsetInCU: 0x3054C, offset: 0x3054C, size: 0x8, addend: 0x0, symName: __ZZNSt7__cxx1112basic_stringIcSt11char_traitsIcESaIcEE12_M_constructIPKcEEvT_S8_St20forward_iterator_tagEN6_GuardC1EPS4_, symObjAddr: 0x22C4, symBinAddr: 0x100005DE8, symSize: 0x24 }
  - { offsetInCU: 0x30589, offset: 0x30589, size: 0x8, addend: 0x0, symName: __ZNSt7__cxx1112basic_stringIcSt11char_traitsIcESaIcEE9_M_lengthEm, symObjAddr: 0x2258, symBinAddr: 0x100005D7C, symSize: 0x24 }
  - { offsetInCU: 0x30591, offset: 0x30591, size: 0x8, addend: 0x0, symName: __ZNSt7__cxx1112basic_stringIcSt11char_traitsIcESaIcEE13_M_set_lengthEm, symObjAddr: 0x227C, symBinAddr: 0x100005DA0, symSize: 0x48 }
  - { offsetInCU: 0x305CE, offset: 0x305CE, size: 0x8, addend: 0x0, symName: __ZNSt7__cxx1112basic_stringIcSt11char_traitsIcESaIcEE11_M_capacityEm, symObjAddr: 0x2234, symBinAddr: 0x100005D58, symSize: 0x24 }
  - { offsetInCU: 0x305D6, offset: 0x305D6, size: 0x8, addend: 0x0, symName: __ZNSt7__cxx1112basic_stringIcSt11char_traitsIcESaIcEE9_M_lengthEm, symObjAddr: 0x2258, symBinAddr: 0x100005D7C, symSize: 0x24 }
  - { offsetInCU: 0x30613, offset: 0x30613, size: 0x8, addend: 0x0, symName: __ZNSt7__cxx1112basic_stringIcSt11char_traitsIcESaIcEE7_M_dataEPc, symObjAddr: 0x2210, symBinAddr: 0x100005D34, symSize: 0x24 }
  - { offsetInCU: 0x3061B, offset: 0x3061B, size: 0x8, addend: 0x0, symName: __ZNSt7__cxx1112basic_stringIcSt11char_traitsIcESaIcEE11_M_capacityEm, symObjAddr: 0x2234, symBinAddr: 0x100005D58, symSize: 0x24 }
  - { offsetInCU: 0x30658, offset: 0x30658, size: 0x8, addend: 0x0, symName: __ZNKSt7__cxx1112basic_stringIcSt11char_traitsIcESaIcEE6lengthEv, symObjAddr: 0x21F8, symBinAddr: 0x100005D1C, symSize: 0x18 }
  - { offsetInCU: 0x30660, offset: 0x30660, size: 0x8, addend: 0x0, symName: __ZNSt7__cxx1112basic_stringIcSt11char_traitsIcESaIcEE7_M_dataEPc, symObjAddr: 0x2210, symBinAddr: 0x100005D34, symSize: 0x24 }
  - { offsetInCU: 0x30689, offset: 0x30689, size: 0x8, addend: 0x0, symName: __ZNKSt7__cxx1112basic_stringIcSt11char_traitsIcESaIcEE11_M_is_localEv, symObjAddr: 0x2198, symBinAddr: 0x100005CBC, symSize: 0x60 }
  - { offsetInCU: 0x30691, offset: 0x30691, size: 0x8, addend: 0x0, symName: __ZNKSt7__cxx1112basic_stringIcSt11char_traitsIcESaIcEE6lengthEv, symObjAddr: 0x21F8, symBinAddr: 0x100005D1C, symSize: 0x18 }
  - { offsetInCU: 0x306BA, offset: 0x306BA, size: 0x8, addend: 0x0, symName: __ZNSt7__cxx1112basic_stringIcSt11char_traitsIcESaIcEE16_M_get_allocatorEv, symObjAddr: 0x2184, symBinAddr: 0x100005CA8, symSize: 0x14 }
  - { offsetInCU: 0x306C2, offset: 0x306C2, size: 0x8, addend: 0x0, symName: __ZNKSt7__cxx1112basic_stringIcSt11char_traitsIcESaIcEE11_M_is_localEv, symObjAddr: 0x2198, symBinAddr: 0x100005CBC, symSize: 0x60 }
  - { offsetInCU: 0x306EB, offset: 0x306EB, size: 0x8, addend: 0x0, symName: __ZNSt7__cxx1112basic_stringIcSt11char_traitsIcESaIcEE10_M_disposeEv, symObjAddr: 0x2138, symBinAddr: 0x100005C5C, symSize: 0x4C }
  - { offsetInCU: 0x306F3, offset: 0x306F3, size: 0x8, addend: 0x0, symName: __ZNSt7__cxx1112basic_stringIcSt11char_traitsIcESaIcEE16_M_get_allocatorEv, symObjAddr: 0x2184, symBinAddr: 0x100005CA8, symSize: 0x14 }
  - { offsetInCU: 0x307A7, offset: 0x307A7, size: 0x8, addend: 0x0, symName: __ZNSt7__cxx1112basic_stringIcSt11char_traitsIcESaIcEE12_Alloc_hiderC1EPcRKS3_, symObjAddr: 0x20E8, symBinAddr: 0x100005C0C, symSize: 0x50 }
  - { offsetInCU: 0x307AF, offset: 0x307AF, size: 0x8, addend: 0x0, symName: __ZNSt7__cxx1112basic_stringIcSt11char_traitsIcESaIcEE10_M_disposeEv, symObjAddr: 0x2138, symBinAddr: 0x100005C5C, symSize: 0x4C }
  - { offsetInCU: 0x3080D, offset: 0x3080D, size: 0x8, addend: 0x0, symName: __ZNSt7__cxx1112basic_stringIcSt11char_traitsIcESaIcEE13_M_local_dataEv, symObjAddr: 0x20C8, symBinAddr: 0x100005BEC, symSize: 0x20 }
  - { offsetInCU: 0x30815, offset: 0x30815, size: 0x8, addend: 0x0, symName: __ZNSt7__cxx1112basic_stringIcSt11char_traitsIcESaIcEE12_Alloc_hiderC1EPcRKS3_, symObjAddr: 0x20E8, symBinAddr: 0x100005C0C, symSize: 0x50 }
  - { offsetInCU: 0x30886, offset: 0x30886, size: 0x8, addend: 0x0, symName: __ZNSt15__new_allocatorIcED2Ev, symObjAddr: 0x20B4, symBinAddr: 0x100005BD8, symSize: 0x14 }
  - { offsetInCU: 0x3088E, offset: 0x3088E, size: 0x8, addend: 0x0, symName: __ZNSt7__cxx1112basic_stringIcSt11char_traitsIcESaIcEE13_M_local_dataEv, symObjAddr: 0x20C8, symBinAddr: 0x100005BEC, symSize: 0x20 }
  - { offsetInCU: 0x308B3, offset: 0x308B3, size: 0x8, addend: 0x0, symName: __ZNKSt7__cxx1112basic_stringIcSt11char_traitsIcESaIcEE7_M_dataEv, symObjAddr: 0x209C, symBinAddr: 0x100005BC0, symSize: 0x18 }
  - { offsetInCU: 0x308BB, offset: 0x308BB, size: 0x8, addend: 0x0, symName: __ZNSt15__new_allocatorIcED2Ev, symObjAddr: 0x20B4, symBinAddr: 0x100005BD8, symSize: 0x14 }
  - { offsetInCU: 0x308E4, offset: 0x308E4, size: 0x8, addend: 0x0, symName: __ZN9__gnu_cxx11char_traitsIcE2eqERKcS3_, symObjAddr: 0x206C, symBinAddr: 0x100005B90, symSize: 0x30 }
  - { offsetInCU: 0x308EC, offset: 0x308EC, size: 0x8, addend: 0x0, symName: __ZNKSt7__cxx1112basic_stringIcSt11char_traitsIcESaIcEE7_M_dataEv, symObjAddr: 0x209C, symBinAddr: 0x100005BC0, symSize: 0x18 }
  - { offsetInCU: 0x3092B, offset: 0x3092B, size: 0x8, addend: 0x0, symName: __ZNK11__gnu_debug14_Safe_iteratorINSt8__detail14_Node_iteratorISt4pairIKiiELb0ELb0EEENSt7__debug13unordered_mapIiiSt4hashIiESt8equal_toIiESaIS5_EEESt20forward_iterator_tagEdeEv, symObjAddr: 0x1F98, symBinAddr: 0x100005ABC, symSize: 0xD4 }
  - { offsetInCU: 0x30933, offset: 0x30933, size: 0x8, addend: 0x0, symName: __ZN9__gnu_cxx11char_traitsIcE2eqERKcS3_, symObjAddr: 0x206C, symBinAddr: 0x100005B90, symSize: 0x30 }
  - { offsetInCU: 0x30994, offset: 0x30994, size: 0x8, addend: 0x0, symName: __ZN11__gnu_debug14_Safe_iteratorINSt8__detail14_Node_iteratorISt4pairIKiiELb0ELb0EEENSt7__debug13unordered_mapIiiSt4hashIiESt8equal_toIiESaIS5_EEESt20forward_iterator_tagEppEv, symObjAddr: 0x1E94, symBinAddr: 0x1000059B8, symSize: 0x104 }
  - { offsetInCU: 0x3099C, offset: 0x3099C, size: 0x8, addend: 0x0, symName: __ZNK11__gnu_debug14_Safe_iteratorINSt8__detail14_Node_iteratorISt4pairIKiiELb0ELb0EEENSt7__debug13unordered_mapIiiSt4hashIiESt8equal_toIiESaIS5_EEESt20forward_iterator_tagEdeEv, symObjAddr: 0x1F98, symBinAddr: 0x100005ABC, symSize: 0xD4 }
  - { offsetInCU: 0x30AD4, offset: 0x30AD4, size: 0x8, addend: 0x0, symName: __ZN11__gnu_debugneERKNS_14_Safe_iteratorINSt8__detail14_Node_iteratorISt4pairIKiiELb0ELb0EEENSt7__debug13unordered_mapIiiSt4hashIiESt8equal_toIiESaIS5_EEESt20forward_iterator_tagEESI_, symObjAddr: 0x1BA8, symBinAddr: 0x1000056CC, symSize: 0x2EC }
  - { offsetInCU: 0x30ADC, offset: 0x30ADC, size: 0x8, addend: 0x0, symName: __ZN11__gnu_debug14_Safe_iteratorINSt8__detail14_Node_iteratorISt4pairIKiiELb0ELb0EEENSt7__debug13unordered_mapIiiSt4hashIiESt8equal_toIiESaIS5_EEESt20forward_iterator_tagEppEv, symObjAddr: 0x1E94, symBinAddr: 0x1000059B8, symSize: 0x104 }
  - { offsetInCU: 0x30AAA, offset: 0x30AAA, size: 0x8, addend: 0x0, symName: __ZNSt7__debug13unordered_mapIiiSt4hashIiESt8equal_toIiESaISt4pairIKiiEEE5beginEv, symObjAddr: 0x1B64, symBinAddr: 0x100005688, symSize: 0x44 }
  - { offsetInCU: 0x30AB2, offset: 0x30AB2, size: 0x8, addend: 0x0, symName: __ZN11__gnu_debugneERKNS_14_Safe_iteratorINSt8__detail14_Node_iteratorISt4pairIKiiELb0ELb0EEENSt7__debug13unordered_mapIiiSt4hashIiESt8equal_toIiESaIS5_EEESt20forward_iterator_tagEESI_, symObjAddr: 0x1BA8, symBinAddr: 0x1000056CC, symSize: 0x2EC }
  - { offsetInCU: 0x30ADB, offset: 0x30ADB, size: 0x8, addend: 0x0, symName: __ZNSt10_HashtableIiSt4pairIKiiESaIS2_ENSt8__detail10_Select1stESt8equal_toIiESt4hashIiENS4_18_Mod_range_hashingENS4_20_Default_ranged_hashENS4_20_Prime_rehash_policyENS4_17_Hashtable_traitsILb0ELb0ELb1EEEEaSERKSF_, symObjAddr: 0x19D4, symBinAddr: 0x1000054F8, symSize: 0x190 }
  - { offsetInCU: 0x30AE3, offset: 0x30AE3, size: 0x8, addend: 0x0, symName: __ZNSt7__debug13unordered_mapIiiSt4hashIiESt8equal_toIiESaISt4pairIKiiEEE5beginEv, symObjAddr: 0x1B64, symBinAddr: 0x100005688, symSize: 0x44 }
  - { offsetInCU: 0x30C72, offset: 0x30C72, size: 0x8, addend: 0x0, symName: __ZN11__gnu_debug15_Safe_containerINSt7__debug13unordered_mapIiiSt4hashIiESt8equal_toIiESaISt4pairIKiiEEEESA_NS_25_Safe_unordered_containerELb1EEaSERKSD_, symObjAddr: 0x19B0, symBinAddr: 0x1000054D4, symSize: 0x24 }
  - { offsetInCU: 0x30C7A, offset: 0x30C7A, size: 0x8, addend: 0x0, symName: __ZNSt10_HashtableIiSt4pairIKiiESaIS2_ENSt8__detail10_Select1stESt8equal_toIiESt4hashIiENS4_18_Mod_range_hashingENS4_20_Default_ranged_hashENS4_20_Prime_rehash_policyENS4_17_Hashtable_traitsILb0ELb0ELb1EEEEaSERKSF_, symObjAddr: 0x19D4, symBinAddr: 0x1000054F8, symSize: 0x190 }
  - { offsetInCU: 0x30CB0, offset: 0x30CB0, size: 0x8, addend: 0x0, symName: __ZNSt9__cxx199813unordered_mapIiiSt4hashIiESt8equal_toIiESaISt4pairIKiiEEEixERS6_, symObjAddr: 0x198C, symBinAddr: 0x1000054B0, symSize: 0x24 }
  - { offsetInCU: 0x30CB8, offset: 0x30CB8, size: 0x8, addend: 0x0, symName: __ZN11__gnu_debug15_Safe_containerINSt7__debug13unordered_mapIiiSt4hashIiESt8equal_toIiESaISt4pairIKiiEEEESA_NS_25_Safe_unordered_containerELb1EEaSERKSD_, symObjAddr: 0x19B0, symBinAddr: 0x1000054D4, symSize: 0x24 }
  - { offsetInCU: 0x30CF6, offset: 0x30CF6, size: 0x8, addend: 0x0, symName: __ZNSt7__debug13unordered_mapIiiSt4hashIiESt8equal_toIiESaISt4pairIKiiEEE6insertIS5_IiiEvEES5_IN11__gnu_debug14_Safe_iteratorINSt8__detail14_Node_iteratorIS7_Lb0ELb0EEES9_St20forward_iterator_tagEEbEOT_, symObjAddr: 0x18F0, symBinAddr: 0x100005414, symSize: 0x9C }
  - { offsetInCU: 0x30CFE, offset: 0x30CFE, size: 0x8, addend: 0x0, symName: __ZNSt9__cxx199813unordered_mapIiiSt4hashIiESt8equal_toIiESaISt4pairIKiiEEEixERS6_, symObjAddr: 0x198C, symBinAddr: 0x1000054B0, symSize: 0x24 }
  - { offsetInCU: 0x30E0D, offset: 0x30E0D, size: 0x8, addend: 0x0, symName: __ZSt9make_pairIRiiESt4pairINSt25__strip_reference_wrapperINSt5decayIT_E4typeEE6__typeENS2_INS3_IT0_E4typeEE6__typeEEOS4_OS9_, symObjAddr: 0x18A4, symBinAddr: 0x1000053C8, symSize: 0x4C }
  - { offsetInCU: 0x30E15, offset: 0x30E15, size: 0x8, addend: 0x0, symName: __ZNSt7__debug13unordered_mapIiiSt4hashIiESt8equal_toIiESaISt4pairIKiiEEE6insertIS5_IiiEvEES5_IN11__gnu_debug14_Safe_iteratorINSt8__detail14_Node_iteratorIS7_Lb0ELb0EEES9_St20forward_iterator_tagEEbEOT_, symObjAddr: 0x18F0, symBinAddr: 0x100005414, symSize: 0x9C }
  - { offsetInCU: 0x30EA7, offset: 0x30EA7, size: 0x8, addend: 0x0, symName: __ZN11__gnu_debugeqERKNS_14_Safe_iteratorINSt8__detail14_Node_iteratorISt4pairIKiiELb0ELb0EEENSt7__debug13unordered_mapIiiSt4hashIiESt8equal_toIiESaIS5_EEESt20forward_iterator_tagEESI_, symObjAddr: 0x15B8, symBinAddr: 0x1000050DC, symSize: 0x2EC }
  - { offsetInCU: 0x30EAF, offset: 0x30EAF, size: 0x8, addend: 0x0, symName: __ZSt9make_pairIRiiESt4pairINSt25__strip_reference_wrapperINSt5decayIT_E4typeEE6__typeENS2_INS3_IT0_E4typeEE6__typeEEOS4_OS9_, symObjAddr: 0x18A4, symBinAddr: 0x1000053C8, symSize: 0x4C }
  - { offsetInCU: 0x30E54, offset: 0x30E54, size: 0x8, addend: 0x0, symName: __ZNSt7__debug13unordered_mapIiiSt4hashIiESt8equal_toIiESaISt4pairIKiiEEE3endEv, symObjAddr: 0x1574, symBinAddr: 0x100005098, symSize: 0x44 }
  - { offsetInCU: 0x30E5C, offset: 0x30E5C, size: 0x8, addend: 0x0, symName: __ZN11__gnu_debugeqERKNS_14_Safe_iteratorINSt8__detail14_Node_iteratorISt4pairIKiiELb0ELb0EEENSt7__debug13unordered_mapIiiSt4hashIiESt8equal_toIiESaIS5_EEESt20forward_iterator_tagEESI_, symObjAddr: 0x15B8, symBinAddr: 0x1000050DC, symSize: 0x2EC }
  - { offsetInCU: 0x30E85, offset: 0x30E85, size: 0x8, addend: 0x0, symName: __ZNSt7__debug13unordered_mapIiiSt4hashIiESt8equal_toIiESaISt4pairIKiiEEE4findERS6_, symObjAddr: 0x1528, symBinAddr: 0x10000504C, symSize: 0x4C }
  - { offsetInCU: 0x30E8D, offset: 0x30E8D, size: 0x8, addend: 0x0, symName: __ZNSt7__debug13unordered_mapIiiSt4hashIiESt8equal_toIiESaISt4pairIKiiEEE3endEv, symObjAddr: 0x1574, symBinAddr: 0x100005098, symSize: 0x44 }
  - { offsetInCU: 0x30F6A, offset: 0x30F6A, size: 0x8, addend: 0x0, symName: __ZNSt8__detail21_Hashtable_ebo_helperILi0ESaINS_10_Hash_nodeISt4pairIKiiELb0EEEELb1EEC2Ev, symObjAddr: 0x14FC, symBinAddr: 0x100005020, symSize: 0x2C }
  - { offsetInCU: 0x30F72, offset: 0x30F72, size: 0x8, addend: 0x0, symName: __ZNSt7__debug13unordered_mapIiiSt4hashIiESt8equal_toIiESaISt4pairIKiiEEE4findERS6_, symObjAddr: 0x1528, symBinAddr: 0x10000504C, symSize: 0x4C }
  - { offsetInCU: 0x30FED, offset: 0x30FED, size: 0x8, addend: 0x0, symName: __ZNSt8__detail21_Hashtable_ebo_helperILi0ESt8equal_toIiELb1EEC2Ev, symObjAddr: 0x14E8, symBinAddr: 0x10000500C, symSize: 0x14 }
  - { offsetInCU: 0x30FF5, offset: 0x30FF5, size: 0x8, addend: 0x0, symName: __ZNSt8__detail21_Hashtable_ebo_helperILi0ESaINS_10_Hash_nodeISt4pairIKiiELb0EEEELb1EEC2Ev, symObjAddr: 0x14FC, symBinAddr: 0x100005020, symSize: 0x2C }
  - { offsetInCU: 0x31034, offset: 0x31034, size: 0x8, addend: 0x0, symName: __ZNSt8__detail21_Hashtable_ebo_helperILi1ESt4hashIiELb1EEC2Ev, symObjAddr: 0x14D4, symBinAddr: 0x100004FF8, symSize: 0x14 }
  - { offsetInCU: 0x3103C, offset: 0x3103C, size: 0x8, addend: 0x0, symName: __ZNSt8__detail21_Hashtable_ebo_helperILi0ESt8equal_toIiELb1EEC2Ev, symObjAddr: 0x14E8, symBinAddr: 0x10000500C, symSize: 0x14 }
  - { offsetInCU: 0x31122, offset: 0x31122, size: 0x8, addend: 0x0, symName: __ZNSt10_HashtableIiSt4pairIKiiESaIS2_ENSt8__detail10_Select1stESt8equal_toIiESt4hashIiENS4_18_Mod_range_hashingENS4_20_Default_ranged_hashENS4_20_Prime_rehash_policyENS4_17_Hashtable_traitsILb0ELb0ELb1EEEED1Ev, symObjAddr: 0x14A4, symBinAddr: 0x100004FC8, symSize: 0x30 }
  - { offsetInCU: 0x3112A, offset: 0x3112A, size: 0x8, addend: 0x0, symName: __ZNSt8__detail21_Hashtable_ebo_helperILi1ESt4hashIiELb1EEC2Ev, symObjAddr: 0x14D4, symBinAddr: 0x100004FF8, symSize: 0x14 }
  - { offsetInCU: 0x3111A, offset: 0x3111A, size: 0x8, addend: 0x0, symName: __ZNSt7__cxx1112basic_stringIcSt11char_traitsIcESaIcEEC1IS3_EEPKcRKS3_, symObjAddr: 0x1408, symBinAddr: 0x100004F2C, symSize: 0x9C }
  - { offsetInCU: 0x31122, offset: 0x31122, size: 0x8, addend: 0x0, symName: __ZNSt10_HashtableIiSt4pairIKiiESaIS2_ENSt8__detail10_Select1stESt8equal_toIiESt4hashIiENS4_18_Mod_range_hashingENS4_20_Default_ranged_hashENS4_20_Prime_rehash_policyENS4_17_Hashtable_traitsILb0ELb0ELb1EEEED1Ev, symObjAddr: 0x14A4, symBinAddr: 0x100004FC8, symSize: 0x30 }
  - { offsetInCU: 0x311EF, offset: 0x311EF, size: 0x8, addend: 0x0, symName: __ZStplIcSt11char_traitsIcESaIcEENSt7__cxx1112basic_stringIT_T0_T1_EERKS8_PKS5_, symObjAddr: 0x135C, symBinAddr: 0x100004E80, symSize: 0xAC }
  - { offsetInCU: 0x311F7, offset: 0x311F7, size: 0x8, addend: 0x0, symName: __ZNSt7__cxx1112basic_stringIcSt11char_traitsIcESaIcEEC1IS3_EEPKcRKS3_, symObjAddr: 0x1408, symBinAddr: 0x100004F2C, symSize: 0x9C }
  - { offsetInCU: 0x31222, offset: 0x31222, size: 0x8, addend: 0x0, symName: __ZNKSt7__cxx1112basic_stringIcSt11char_traitsIcESaIcEE4sizeEv, symObjAddr: 0x1344, symBinAddr: 0x100004E68, symSize: 0x18 }
  - { offsetInCU: 0x3122A, offset: 0x3122A, size: 0x8, addend: 0x0, symName: __ZStplIcSt11char_traitsIcESaIcEENSt7__cxx1112basic_stringIT_T0_T1_EERKS8_PKS5_, symObjAddr: 0x135C, symBinAddr: 0x100004E80, symSize: 0xAC }
  - { offsetInCU: 0x312B7, offset: 0x312B7, size: 0x8, addend: 0x0, symName: __ZNSt7__cxx1112basic_stringIcSt11char_traitsIcESaIcEED1Ev, symObjAddr: 0x131C, symBinAddr: 0x100004E40, symSize: 0x28 }
  - { offsetInCU: 0x312BF, offset: 0x312BF, size: 0x8, addend: 0x0, symName: __ZNKSt7__cxx1112basic_stringIcSt11char_traitsIcESaIcEE4sizeEv, symObjAddr: 0x1344, symBinAddr: 0x100004E68, symSize: 0x18 }
  - { offsetInCU: 0x31322, offset: 0x31322, size: 0x8, addend: 0x0, symName: __ZNSt7__cxx1112basic_stringIcSt11char_traitsIcESaIcEE12_Alloc_hiderD1Ev, symObjAddr: 0x12F0, symBinAddr: 0x100004E14, symSize: 0x2C }
  - { offsetInCU: 0x3132A, offset: 0x3132A, size: 0x8, addend: 0x0, symName: __ZNSt7__cxx1112basic_stringIcSt11char_traitsIcESaIcEED1Ev, symObjAddr: 0x131C, symBinAddr: 0x100004E40, symSize: 0x28 }
  - { offsetInCU: 0x31377, offset: 0x31377, size: 0x8, addend: 0x0, symName: __ZNKSt7__cxx1112basic_stringIcSt11char_traitsIcESaIcEE5c_strEv, symObjAddr: 0x12D4, symBinAddr: 0x100004DF8, symSize: 0x1C }
  - { offsetInCU: 0x3137F, offset: 0x3137F, size: 0x8, addend: 0x0, symName: __ZNSt7__cxx1112basic_stringIcSt11char_traitsIcESaIcEE12_Alloc_hiderD1Ev, symObjAddr: 0x12F0, symBinAddr: 0x100004E14, symSize: 0x2C }
  - { offsetInCU: 0x313A8, offset: 0x313A8, size: 0x8, addend: 0x0, symName: __ZN9__gnu_cxx11char_traitsIcE6lengthEPKc, symObjAddr: 0x1278, symBinAddr: 0x100004D9C, symSize: 0x5C }
  - { offsetInCU: 0x313B0, offset: 0x313B0, size: 0x8, addend: 0x0, symName: __ZNKSt7__cxx1112basic_stringIcSt11char_traitsIcESaIcEE5c_strEv, symObjAddr: 0x12D4, symBinAddr: 0x100004DF8, symSize: 0x1C }
  - { offsetInCU: 0x313F8, offset: 0x313F8, size: 0x8, addend: 0x0, symName: _main, symObjAddr: 0xD40, symBinAddr: 0x100004864, symSize: 0x538 }
  - { offsetInCU: 0x31400, offset: 0x31400, size: 0x8, addend: 0x0, symName: __ZN9__gnu_cxx11char_traitsIcE6lengthEPKc, symObjAddr: 0x1278, symBinAddr: 0x100004D9C, symSize: 0x5C }
  - { offsetInCU: 0x31675, offset: 0x31675, size: 0x8, addend: 0x0, symName: __ZNSt7__debug13unordered_mapIiiSt4hashIiESt8equal_toIiESaISt4pairIKiiEEEaSERKS9_, symObjAddr: 0xCFC, symBinAddr: 0x100004820, symSize: 0x44 }
  - { offsetInCU: 0x3167D, offset: 0x3167D, size: 0x8, addend: 0x0, symName: _main, symObjAddr: 0xD40, symBinAddr: 0x100004864, symSize: 0x538 }
  - { offsetInCU: 0x316B3, offset: 0x316B3, size: 0x8, addend: 0x0, symName: __ZNSt9__cxx199813unordered_mapIiiSt4hashIiESt8equal_toIiESaISt4pairIKiiEEEaSERKS9_, symObjAddr: 0xCD4, symBinAddr: 0x1000047F8, symSize: 0x28 }
  - { offsetInCU: 0x316BB, offset: 0x316BB, size: 0x8, addend: 0x0, symName: __ZNSt7__debug13unordered_mapIiiSt4hashIiESt8equal_toIiESaISt4pairIKiiEEEaSERKS9_, symObjAddr: 0xCFC, symBinAddr: 0x100004820, symSize: 0x44 }
  - { offsetInCU: 0x31707, offset: 0x31707, size: 0x8, addend: 0x0, symName: __Z6factori, symObjAddr: 0xB4C, symBinAddr: 0x100004670, symSize: 0x188 }
  - { offsetInCU: 0x3170F, offset: 0x3170F, size: 0x8, addend: 0x0, symName: __ZNSt9__cxx199813unordered_mapIiiSt4hashIiESt8equal_toIiESaISt4pairIKiiEEEaSERKS9_, symObjAddr: 0xCD4, symBinAddr: 0x1000047F8, symSize: 0x28 }
  - { offsetInCU: 0x3184F, offset: 0x3184F, size: 0x8, addend: 0x0, symName: __ZNSt4pairIN11__gnu_debug14_Safe_iteratorINSt8__detail14_Node_iteratorIS_IKiiELb0ELb0EEENSt7__debug13unordered_mapIiiSt4hashIiESt8equal_toIiESaIS5_EEESt20forward_iterator_tagEEbED1Ev, symObjAddr: 0xB2C, symBinAddr: 0x100004650, symSize: 0x20 }
  - { offsetInCU: 0x31857, offset: 0x31857, size: 0x8, addend: 0x0, symName: __Z6factori, symObjAddr: 0xB4C, symBinAddr: 0x100004670, symSize: 0x188 }
  - { offsetInCU: 0x318A5, offset: 0x318A5, size: 0x8, addend: 0x0, symName: __ZN11__gnu_debug14_Safe_iteratorINSt8__detail14_Node_iteratorISt4pairIKiiELb0ELb0EEENSt7__debug13unordered_mapIiiSt4hashIiESt8equal_toIiESaIS5_EEESt20forward_iterator_tagED1Ev, symObjAddr: 0xB08, symBinAddr: 0x10000462C, symSize: 0x24 }
  - { offsetInCU: 0x318AD, offset: 0x318AD, size: 0x8, addend: 0x0, symName: __ZNSt4pairIN11__gnu_debug14_Safe_iteratorINSt8__detail14_Node_iteratorIS_IKiiELb0ELb0EEENSt7__debug13unordered_mapIiiSt4hashIiESt8equal_toIiESaIS5_EEESt20forward_iterator_tagEEbED1Ev, symObjAddr: 0xB2C, symBinAddr: 0x100004650, symSize: 0x20 }
  - { offsetInCU: 0x3188D, offset: 0x3188D, size: 0x8, addend: 0x0, symName: __ZNSt7__debug13unordered_mapIiiSt4hashIiESt8equal_toIiESaISt4pairIKiiEEEC1Ev, symObjAddr: 0xADC, symBinAddr: 0x100004600, symSize: 0x2C }
  - { offsetInCU: 0x31895, offset: 0x31895, size: 0x8, addend: 0x0, symName: __ZN11__gnu_debug14_Safe_iteratorINSt8__detail14_Node_iteratorISt4pairIKiiELb0ELb0EEENSt7__debug13unordered_mapIiiSt4hashIiESt8equal_toIiESaIS5_EEESt20forward_iterator_tagED1Ev, symObjAddr: 0xB08, symBinAddr: 0x10000462C, symSize: 0x24 }
  - { offsetInCU: 0x318DA, offset: 0x318DA, size: 0x8, addend: 0x0, symName: __ZNSt9__cxx199813unordered_mapIiiSt4hashIiESt8equal_toIiESaISt4pairIKiiEEEC2Ev, symObjAddr: 0xABC, symBinAddr: 0x1000045E0, symSize: 0x20 }
  - { offsetInCU: 0x318E2, offset: 0x318E2, size: 0x8, addend: 0x0, symName: __ZNSt7__debug13unordered_mapIiiSt4hashIiESt8equal_toIiESaISt4pairIKiiEEEC1Ev, symObjAddr: 0xADC, symBinAddr: 0x100004600, symSize: 0x2C }
  - { offsetInCU: 0x319A8, offset: 0x319A8, size: 0x8, addend: 0x0, symName: __ZNSt10_HashtableIiSt4pairIKiiESaIS2_ENSt8__detail10_Select1stESt8equal_toIiESt4hashIiENS4_18_Mod_range_hashingENS4_20_Default_ranged_hashENS4_20_Prime_rehash_policyENS4_17_Hashtable_traitsILb0ELb0ELb1EEEEC1Ev, symObjAddr: 0xA4C, symBinAddr: 0x100004570, symSize: 0x70 }
  - { offsetInCU: 0x319B0, offset: 0x319B0, size: 0x8, addend: 0x0, symName: __ZNSt9__cxx199813unordered_mapIiiSt4hashIiESt8equal_toIiESaISt4pairIKiiEEEC2Ev, symObjAddr: 0xABC, symBinAddr: 0x1000045E0, symSize: 0x20 }
  - { offsetInCU: 0x31981, offset: 0x31981, size: 0x8, addend: 0x0, symName: __ZNSt8__detail16_Hashtable_allocISaINS_10_Hash_nodeISt4pairIKiiELb0EEEEED2Ev, symObjAddr: 0xA2C, symBinAddr: 0x100004550, symSize: 0x20 }
  - { offsetInCU: 0x31989, offset: 0x31989, size: 0x8, addend: 0x0, symName: __ZNSt10_HashtableIiSt4pairIKiiESaIS2_ENSt8__detail10_Select1stESt8equal_toIiESt4hashIiENS4_18_Mod_range_hashingENS4_20_Default_ranged_hashENS4_20_Prime_rehash_policyENS4_17_Hashtable_traitsILb0ELb0ELb1EEEEC1Ev, symObjAddr: 0xA4C, symBinAddr: 0x100004570, symSize: 0x70 }
  - { offsetInCU: 0x319CC, offset: 0x319CC, size: 0x8, addend: 0x0, symName: __ZNSt8__detail16_Hashtable_allocISaINS_10_Hash_nodeISt4pairIKiiELb0EEEEEC2Ev, symObjAddr: 0xA0C, symBinAddr: 0x100004530, symSize: 0x20 }
  - { offsetInCU: 0x319D4, offset: 0x319D4, size: 0x8, addend: 0x0, symName: __ZNSt8__detail16_Hashtable_allocISaINS_10_Hash_nodeISt4pairIKiiELb0EEEEED2Ev, symObjAddr: 0xA2C, symBinAddr: 0x100004550, symSize: 0x20 }
  - { offsetInCU: 0x31A37, offset: 0x31A37, size: 0x8, addend: 0x0, symName: __ZNSt8__detail21_Hashtable_ebo_helperILi0ESaINS_10_Hash_nodeISt4pairIKiiELb0EEEELb1EED2Ev, symObjAddr: 0x9E0, symBinAddr: 0x100004504, symSize: 0x2C }
  - { offsetInCU: 0x31A3F, offset: 0x31A3F, size: 0x8, addend: 0x0, symName: __ZNSt8__detail16_Hashtable_allocISaINS_10_Hash_nodeISt4pairIKiiELb0EEEEEC2Ev, symObjAddr: 0xA0C, symBinAddr: 0x100004530, symSize: 0x20 }
  - { offsetInCU: 0x31B02, offset: 0x31B02, size: 0x8, addend: 0x0, symName: __ZNSt8__detail15_Hashtable_baseIiSt4pairIKiiENS_10_Select1stESt8equal_toIiESt4hashIiENS_18_Mod_range_hashingENS_20_Default_ranged_hashENS_17_Hashtable_traitsILb0ELb0ELb1EEEEC2Ev, symObjAddr: 0x9B8, symBinAddr: 0x1000044DC, symSize: 0x28 }
  - { offsetInCU: 0x31B0A, offset: 0x31B0A, size: 0x8, addend: 0x0, symName: __ZNSt8__detail21_Hashtable_ebo_helperILi0ESaINS_10_Hash_nodeISt4pairIKiiELb0EEEELb1EED2Ev, symObjAddr: 0x9E0, symBinAddr: 0x100004504, symSize: 0x2C }
  - { offsetInCU: 0x31B1E, offset: 0x31B1E, size: 0x8, addend: 0x0, symName: __ZNSt8__detail15_Hash_code_baseIiSt4pairIKiiENS_10_Select1stESt4hashIiENS_18_Mod_range_hashingENS_20_Default_ranged_hashELb0EEC2Ev, symObjAddr: 0x998, symBinAddr: 0x1000044BC, symSize: 0x20 }
  - { offsetInCU: 0x31B26, offset: 0x31B26, size: 0x8, addend: 0x0, symName: __ZNSt8__detail15_Hashtable_baseIiSt4pairIKiiENS_10_Select1stESt8equal_toIiESt4hashIiENS_18_Mod_range_hashingENS_20_Default_ranged_hashENS_17_Hashtable_traitsILb0ELb0ELb1EEEEC2Ev, symObjAddr: 0x9B8, symBinAddr: 0x1000044DC, symSize: 0x28 }
  - { offsetInCU: 0x31B7B, offset: 0x31B7B, size: 0x8, addend: 0x0, symName: __ZN11__gnu_debug15_Safe_containerINSt7__debug13unordered_mapIiiSt4hashIiESt8equal_toIiESaISt4pairIKiiEEEESA_NS_25_Safe_unordered_containerELb1EEC2Ev, symObjAddr: 0x978, symBinAddr: 0x10000449C, symSize: 0x20 }
  - { offsetInCU: 0x31B83, offset: 0x31B83, size: 0x8, addend: 0x0, symName: __ZNSt8__detail15_Hash_code_baseIiSt4pairIKiiENS_10_Select1stESt4hashIiENS_18_Mod_range_hashingENS_20_Default_ranged_hashELb0EEC2Ev, symObjAddr: 0x998, symBinAddr: 0x1000044BC, symSize: 0x20 }
  - { offsetInCU: 0x31BAD, offset: 0x31BAD, size: 0x8, addend: 0x0, symName: __ZN11__gnu_debug25_Safe_unordered_containerINSt7__debug13unordered_mapIiiSt4hashIiESt8equal_toIiESaISt4pairIKiiEEEEEC2Ev, symObjAddr: 0x958, symBinAddr: 0x10000447C, symSize: 0x20 }
  - { offsetInCU: 0x31BB5, offset: 0x31BB5, size: 0x8, addend: 0x0, symName: __ZN11__gnu_debug15_Safe_containerINSt7__debug13unordered_mapIiiSt4hashIiESt8equal_toIiESaISt4pairIKiiEEEESA_NS_25_Safe_unordered_containerELb1EEC2Ev, symObjAddr: 0x978, symBinAddr: 0x10000449C, symSize: 0x20 }
  - { offsetInCU: 0x31BDB, offset: 0x31BDB, size: 0x8, addend: 0x0, symName: __ZNSt7__debug13unordered_mapIiiSt4hashIiESt8equal_toIiESaISt4pairIKiiEEED1Ev, symObjAddr: 0x92C, symBinAddr: 0x100004450, symSize: 0x2C }
  - { offsetInCU: 0x31BE3, offset: 0x31BE3, size: 0x8, addend: 0x0, symName: __ZN11__gnu_debug25_Safe_unordered_containerINSt7__debug13unordered_mapIiiSt4hashIiESt8equal_toIiESaISt4pairIKiiEEEEEC2Ev, symObjAddr: 0x958, symBinAddr: 0x10000447C, symSize: 0x20 }
  - { offsetInCU: 0x31C3A, offset: 0x31C3A, size: 0x8, addend: 0x0, symName: __ZNSt9__cxx199813unordered_mapIiiSt4hashIiESt8equal_toIiESaISt4pairIKiiEEED2Ev, symObjAddr: 0x90C, symBinAddr: 0x100004430, symSize: 0x20 }
  - { offsetInCU: 0x31C42, offset: 0x31C42, size: 0x8, addend: 0x0, symName: __ZNSt7__debug13unordered_mapIiiSt4hashIiESt8equal_toIiESaISt4pairIKiiEEED1Ev, symObjAddr: 0x92C, symBinAddr: 0x100004450, symSize: 0x2C }
  - { offsetInCU: 0x31CDD, offset: 0x31CDD, size: 0x8, addend: 0x0, symName: __ZN11__gnu_debug15_Safe_containerINSt7__debug13unordered_mapIiiSt4hashIiESt8equal_toIiESaISt4pairIKiiEEEESA_NS_25_Safe_unordered_containerELb1EED2Ev, symObjAddr: 0x8EC, symBinAddr: 0x100004410, symSize: 0x20 }
  - { offsetInCU: 0x31CE5, offset: 0x31CE5, size: 0x8, addend: 0x0, symName: __ZNSt9__cxx199813unordered_mapIiiSt4hashIiESt8equal_toIiESaISt4pairIKiiEEED2Ev, symObjAddr: 0x90C, symBinAddr: 0x100004430, symSize: 0x20 }
  - { offsetInCU: 0x31D1E, offset: 0x31D1E, size: 0x8, addend: 0x0, symName: __ZN11__gnu_debug25_Safe_unordered_containerINSt7__debug13unordered_mapIiiSt4hashIiESt8equal_toIiESaISt4pairIKiiEEEEED2Ev, symObjAddr: 0x8CC, symBinAddr: 0x1000043F0, symSize: 0x20 }
  - { offsetInCU: 0x31D26, offset: 0x31D26, size: 0x8, addend: 0x0, symName: __ZN11__gnu_debug15_Safe_containerINSt7__debug13unordered_mapIiiSt4hashIiESt8equal_toIiESaISt4pairIKiiEEEESA_NS_25_Safe_unordered_containerELb1EED2Ev, symObjAddr: 0x8EC, symBinAddr: 0x100004410, symSize: 0x20 }
  - { offsetInCU: 0x31D19, offset: 0x31D19, size: 0x8, addend: 0x0, symName: __Z5setIONSt7__cxx1112basic_stringIcSt11char_traitsIcESaIcEEE, symObjAddr: 0x830, symBinAddr: 0x100004354, symSize: 0x9C }
  - { offsetInCU: 0x31D21, offset: 0x31D21, size: 0x8, addend: 0x0, symName: __ZN11__gnu_debug25_Safe_unordered_containerINSt7__debug13unordered_mapIiiSt4hashIiESt8equal_toIiESaISt4pairIKiiEEEEED2Ev, symObjAddr: 0x8CC, symBinAddr: 0x1000043F0, symSize: 0x20 }
  - { offsetInCU: 0x31D6C, offset: 0x31D6C, size: 0x8, addend: 0x0, symName: __ZN11__gnu_debug30_Safe_unordered_container_baseD2Ev, symObjAddr: 0x808, symBinAddr: 0x10000432C, symSize: 0x28 }
  - { offsetInCU: 0x31D74, offset: 0x31D74, size: 0x8, addend: 0x0, symName: __Z5setIONSt7__cxx1112basic_stringIcSt11char_traitsIcESaIcEEE, symObjAddr: 0x830, symBinAddr: 0x100004354, symSize: 0x9C }
  - { offsetInCU: 0x31DB7, offset: 0x31DB7, size: 0x8, addend: 0x0, symName: __ZN11__gnu_debug30_Safe_unordered_container_baseC2Ev, symObjAddr: 0x7D8, symBinAddr: 0x1000042FC, symSize: 0x30 }
  - { offsetInCU: 0x31DBF, offset: 0x31DBF, size: 0x8, addend: 0x0, symName: __ZN11__gnu_debug30_Safe_unordered_container_baseD2Ev, symObjAddr: 0x808, symBinAddr: 0x10000432C, symSize: 0x28 }
  - { offsetInCU: 0x31DB2, offset: 0x31DB2, size: 0x8, addend: 0x0, symName: __ZNSt8__detail20_Prime_rehash_policy8_M_resetEm, symObjAddr: 0x7B4, symBinAddr: 0x1000042D8, symSize: 0x24 }
  - { offsetInCU: 0x31DBA, offset: 0x31DBA, size: 0x8, addend: 0x0, symName: __ZN11__gnu_debug30_Safe_unordered_container_baseC2Ev, symObjAddr: 0x7D8, symBinAddr: 0x1000042FC, symSize: 0x30 }
  - { offsetInCU: 0x31DF8, offset: 0x31DF8, size: 0x8, addend: 0x0, symName: __ZNSt8__detail20_Prime_rehash_policy8_M_resetEv, symObjAddr: 0x798, symBinAddr: 0x1000042BC, symSize: 0x1C }
  - { offsetInCU: 0x31E00, offset: 0x31E00, size: 0x8, addend: 0x0, symName: __ZNSt8__detail20_Prime_rehash_policy8_M_resetEm, symObjAddr: 0x7B4, symBinAddr: 0x1000042D8, symSize: 0x24 }
  - { offsetInCU: 0x31E29, offset: 0x31E29, size: 0x8, addend: 0x0, symName: __ZNKSt8__detail20_Prime_rehash_policy8_M_stateEv, symObjAddr: 0x780, symBinAddr: 0x1000042A4, symSize: 0x18 }
  - { offsetInCU: 0x31E31, offset: 0x31E31, size: 0x8, addend: 0x0, symName: __ZNSt8__detail20_Prime_rehash_policy8_M_resetEv, symObjAddr: 0x798, symBinAddr: 0x1000042BC, symSize: 0x1C }
  - { offsetInCU: 0x31EB0, offset: 0x31EB0, size: 0x8, addend: 0x0, symName: __ZNSt8__detail20_Prime_rehash_policyC1Ef, symObjAddr: 0x754, symBinAddr: 0x100004278, symSize: 0x2C }
  - { offsetInCU: 0x31EB8, offset: 0x31EB8, size: 0x8, addend: 0x0, symName: __ZNKSt8__detail20_Prime_rehash_policy8_M_stateEv, symObjAddr: 0x780, symBinAddr: 0x1000042A4, symSize: 0x18 }
  - { offsetInCU: 0x31EC4, offset: 0x31EC4, size: 0x8, addend: 0x0, symName: __ZNKSt8__detail18_Mod_range_hashingclEmm, symObjAddr: 0x724, symBinAddr: 0x100004248, symSize: 0x30 }
  - { offsetInCU: 0x31ECC, offset: 0x31ECC, size: 0x8, addend: 0x0, symName: __ZNSt8__detail20_Prime_rehash_policyC1Ef, symObjAddr: 0x754, symBinAddr: 0x100004278, symSize: 0x2C }
  - { offsetInCU: 0x31F5E, offset: 0x31F5E, size: 0x8, addend: 0x0, symName: __ZNSt8__detail15_Hash_node_baseC1Ev, symObjAddr: 0x708, symBinAddr: 0x10000422C, symSize: 0x1C }
  - { offsetInCU: 0x31F66, offset: 0x31F66, size: 0x8, addend: 0x0, symName: __ZNKSt8__detail18_Mod_range_hashingclEmm, symObjAddr: 0x724, symBinAddr: 0x100004248, symSize: 0x30 }
  - { offsetInCU: 0x31F8E, offset: 0x31F8E, size: 0x8, addend: 0x0, symName: __ZNSt8__detail15_Hash_node_baseC2Ev, symObjAddr: 0x6EC, symBinAddr: 0x100004210, symSize: 0x1C }
  - { offsetInCU: 0x31F96, offset: 0x31F96, size: 0x8, addend: 0x0, symName: __ZNSt8__detail15_Hash_node_baseC1Ev, symObjAddr: 0x708, symBinAddr: 0x10000422C, symSize: 0x1C }
  - { offsetInCU: 0x31FEE, offset: 0x31FEE, size: 0x8, addend: 0x0, symName: __ZN11__gnu_debug19_Safe_sequence_baseD2Ev, symObjAddr: 0x6CC, symBinAddr: 0x1000041F0, symSize: 0x20 }
  - { offsetInCU: 0x31FF6, offset: 0x31FF6, size: 0x8, addend: 0x0, symName: __ZNSt8__detail15_Hash_node_baseC2Ev, symObjAddr: 0x6EC, symBinAddr: 0x100004210, symSize: 0x1C }
  - { offsetInCU: 0x32039, offset: 0x32039, size: 0x8, addend: 0x0, symName: __ZN11__gnu_debug19_Safe_sequence_baseC2Ev, symObjAddr: 0x69C, symBinAddr: 0x1000041C0, symSize: 0x30 }
  - { offsetInCU: 0x32041, offset: 0x32041, size: 0x8, addend: 0x0, symName: __ZN11__gnu_debug19_Safe_sequence_baseD2Ev, symObjAddr: 0x6CC, symBinAddr: 0x1000041F0, symSize: 0x20 }
  - { offsetInCU: 0x3203F, offset: 0x3203F, size: 0x8, addend: 0x0, symName: __ZN11__gnu_debug19_Safe_iterator_base13_M_invalidateEv, symObjAddr: 0x680, symBinAddr: 0x1000041A4, symSize: 0x1C }
  - { offsetInCU: 0x32047, offset: 0x32047, size: 0x8, addend: 0x0, symName: __ZN11__gnu_debug19_Safe_sequence_baseC2Ev, symObjAddr: 0x69C, symBinAddr: 0x1000041C0, symSize: 0x30 }
  - { offsetInCU: 0x320C4, offset: 0x320C4, size: 0x8, addend: 0x0, symName: __ZN11__gnu_debug19_Safe_iterator_baseD2Ev, symObjAddr: 0x660, symBinAddr: 0x100004184, symSize: 0x20 }
  - { offsetInCU: 0x320CC, offset: 0x320CC, size: 0x8, addend: 0x0, symName: __ZN11__gnu_debug19_Safe_iterator_base13_M_invalidateEv, symObjAddr: 0x680, symBinAddr: 0x1000041A4, symSize: 0x1C }
  - { offsetInCU: 0x3214C, offset: 0x3214C, size: 0x8, addend: 0x0, symName: __ZN11__gnu_debug19_Safe_iterator_baseC2EPKNS_19_Safe_sequence_baseEb, symObjAddr: 0x610, symBinAddr: 0x100004134, symSize: 0x50 }
  - { offsetInCU: 0x32154, offset: 0x32154, size: 0x8, addend: 0x0, symName: __ZN11__gnu_debug19_Safe_iterator_baseD2Ev, symObjAddr: 0x660, symBinAddr: 0x100004184, symSize: 0x20 }
  - { offsetInCU: 0x32196, offset: 0x32196, size: 0x8, addend: 0x0, symName: __ZN11__gnu_debug19_Safe_iterator_baseC2Ev, symObjAddr: 0x5DC, symBinAddr: 0x100004100, symSize: 0x34 }
  - { offsetInCU: 0x3219E, offset: 0x3219E, size: 0x8, addend: 0x0, symName: __ZN11__gnu_debug19_Safe_iterator_baseC2EPKNS_19_Safe_sequence_baseEb, symObjAddr: 0x610, symBinAddr: 0x100004134, symSize: 0x50 }
  - { offsetInCU: 0x321E7, offset: 0x321E7, size: 0x8, addend: 0x0, symName: __ZN9__gnu_cxx13__scoped_lockD1Ev, symObjAddr: 0x5B8, symBinAddr: 0x1000040DC, symSize: 0x24 }
  - { offsetInCU: 0x321EF, offset: 0x321EF, size: 0x8, addend: 0x0, symName: __ZN11__gnu_debug19_Safe_iterator_baseC2Ev, symObjAddr: 0x5DC, symBinAddr: 0x100004100, symSize: 0x34 }
  - { offsetInCU: 0x3224F, offset: 0x3224F, size: 0x8, addend: 0x0, symName: __ZN9__gnu_cxx13__scoped_lockC1ERNS_7__mutexE, symObjAddr: 0x584, symBinAddr: 0x1000040A8, symSize: 0x34 }
  - { offsetInCU: 0x32257, offset: 0x32257, size: 0x8, addend: 0x0, symName: __ZN9__gnu_cxx13__scoped_lockD1Ev, symObjAddr: 0x5B8, symBinAddr: 0x1000040DC, symSize: 0x24 }
  - { offsetInCU: 0x3225F, offset: 0x3225F, size: 0x8, addend: 0x0, symName: __ZN9__gnu_cxx7__mutex6unlockEv, symObjAddr: 0x52C, symBinAddr: 0x100004050, symSize: 0x58 }
  - { offsetInCU: 0x32267, offset: 0x32267, size: 0x8, addend: 0x0, symName: __ZN9__gnu_cxx13__scoped_lockC1ERNS_7__mutexE, symObjAddr: 0x584, symBinAddr: 0x1000040A8, symSize: 0x34 }
  - { offsetInCU: 0x32290, offset: 0x32290, size: 0x8, addend: 0x0, symName: __ZN9__gnu_cxx7__mutex4lockEv, symObjAddr: 0x4D4, symBinAddr: 0x100003FF8, symSize: 0x58 }
  - { offsetInCU: 0x32298, offset: 0x32298, size: 0x8, addend: 0x0, symName: __ZN9__gnu_cxx7__mutex6unlockEv, symObjAddr: 0x52C, symBinAddr: 0x100004050, symSize: 0x58 }
  - { offsetInCU: 0x32315, offset: 0x32315, size: 0x8, addend: 0x0, symName: __ZN9__gnu_cxx32__throw_concurrence_unlock_errorEv, symObjAddr: 0x498, symBinAddr: 0x100003FBC, symSize: 0x3C }
  - { offsetInCU: 0x3231D, offset: 0x3231D, size: 0x8, addend: 0x0, symName: __ZN9__gnu_cxx7__mutex4lockEv, symObjAddr: 0x4D4, symBinAddr: 0x100003FF8, symSize: 0x58 }
  - { offsetInCU: 0x3233E, offset: 0x3233E, size: 0x8, addend: 0x0, symName: __ZN9__gnu_cxx26__concurrence_unlock_errorD0Ev, symObjAddr: 0x470, symBinAddr: 0x100003F94, symSize: 0x28 }
  - { offsetInCU: 0x32346, offset: 0x32346, size: 0x8, addend: 0x0, symName: __ZN9__gnu_cxx32__throw_concurrence_unlock_errorEv, symObjAddr: 0x498, symBinAddr: 0x100003FBC, symSize: 0x3C }
  - { offsetInCU: 0x3236E, offset: 0x3236E, size: 0x8, addend: 0x0, symName: __ZN9__gnu_cxx26__concurrence_unlock_errorD1Ev, symObjAddr: 0x43C, symBinAddr: 0x100003F60, symSize: 0x34 }
  - { offsetInCU: 0x32376, offset: 0x32376, size: 0x8, addend: 0x0, symName: __ZN9__gnu_cxx26__concurrence_unlock_errorD0Ev, symObjAddr: 0x470, symBinAddr: 0x100003F94, symSize: 0x28 }
  - { offsetInCU: 0x323BC, offset: 0x323BC, size: 0x8, addend: 0x0, symName: __ZN9__gnu_cxx26__concurrence_unlock_errorC1Ev, symObjAddr: 0x408, symBinAddr: 0x100003F2C, symSize: 0x34 }
  - { offsetInCU: 0x323C4, offset: 0x323C4, size: 0x8, addend: 0x0, symName: __ZN9__gnu_cxx26__concurrence_unlock_errorD1Ev, symObjAddr: 0x43C, symBinAddr: 0x100003F60, symSize: 0x34 }
  - { offsetInCU: 0x3240E, offset: 0x3240E, size: 0x8, addend: 0x0, symName: __ZN9__gnu_cxx30__throw_concurrence_lock_errorEv, symObjAddr: 0x3CC, symBinAddr: 0x100003EF0, symSize: 0x3C }
  - { offsetInCU: 0x32416, offset: 0x32416, size: 0x8, addend: 0x0, symName: __ZN9__gnu_cxx26__concurrence_unlock_errorC1Ev, symObjAddr: 0x408, symBinAddr: 0x100003F2C, symSize: 0x34 }
  - { offsetInCU: 0x32439, offset: 0x32439, size: 0x8, addend: 0x0, symName: __ZN9__gnu_cxx24__concurrence_lock_errorD0Ev, symObjAddr: 0x3A4, symBinAddr: 0x100003EC8, symSize: 0x28 }
  - { offsetInCU: 0x32441, offset: 0x32441, size: 0x8, addend: 0x0, symName: __ZN9__gnu_cxx30__throw_concurrence_lock_errorEv, symObjAddr: 0x3CC, symBinAddr: 0x100003EF0, symSize: 0x3C }
  - { offsetInCU: 0x32469, offset: 0x32469, size: 0x8, addend: 0x0, symName: __ZN9__gnu_cxx24__concurrence_lock_errorD1Ev, symObjAddr: 0x370, symBinAddr: 0x100003E94, symSize: 0x34 }
  - { offsetInCU: 0x32471, offset: 0x32471, size: 0x8, addend: 0x0, symName: __ZN9__gnu_cxx24__concurrence_lock_errorD0Ev, symObjAddr: 0x3A4, symBinAddr: 0x100003EC8, symSize: 0x28 }
  - { offsetInCU: 0x324B7, offset: 0x324B7, size: 0x8, addend: 0x0, symName: __ZN9__gnu_cxx24__concurrence_lock_errorC1Ev, symObjAddr: 0x33C, symBinAddr: 0x100003E60, symSize: 0x34 }
  - { offsetInCU: 0x324BF, offset: 0x324BF, size: 0x8, addend: 0x0, symName: __ZN9__gnu_cxx24__concurrence_lock_errorD1Ev, symObjAddr: 0x370, symBinAddr: 0x100003E94, symSize: 0x34 }
  - { offsetInCU: 0x324BB, offset: 0x324BB, size: 0x8, addend: 0x0, symName: __ZNK9__gnu_cxx26__concurrence_unlock_error4whatEv, symObjAddr: 0x324, symBinAddr: 0x100003E48, symSize: 0x18 }
  - { offsetInCU: 0x324C3, offset: 0x324C3, size: 0x8, addend: 0x0, symName: __ZN9__gnu_cxx24__concurrence_lock_errorC1Ev, symObjAddr: 0x33C, symBinAddr: 0x100003E60, symSize: 0x34 }
  - { offsetInCU: 0x324EC, offset: 0x324EC, size: 0x8, addend: 0x0, symName: __ZNK9__gnu_cxx24__concurrence_lock_error4whatEv, symObjAddr: 0x30C, symBinAddr: 0x100003E30, symSize: 0x18 }
  - { offsetInCU: 0x324F4, offset: 0x324F4, size: 0x8, addend: 0x0, symName: __ZNK9__gnu_cxx26__concurrence_unlock_error4whatEv, symObjAddr: 0x324, symBinAddr: 0x100003E48, symSize: 0x18 }
  - { offsetInCU: 0x32539, offset: 0x32539, size: 0x8, addend: 0x0, symName: __ZL22__gthread_mutex_unlockP23_opaque_pthread_mutex_t, symObjAddr: 0x2CC, symBinAddr: 0x100003DF0, symSize: 0x40 }
  - { offsetInCU: 0x32541, offset: 0x32541, size: 0x8, addend: 0x0, symName: __ZNK9__gnu_cxx24__concurrence_lock_error4whatEv, symObjAddr: 0x30C, symBinAddr: 0x100003E30, symSize: 0x18 }
  - { offsetInCU: 0x32573, offset: 0x32573, size: 0x8, addend: 0x0, symName: __ZL20__gthread_mutex_lockP23_opaque_pthread_mutex_t, symObjAddr: 0x28C, symBinAddr: 0x100003DB0, symSize: 0x40 }
  - { offsetInCU: 0x3257B, offset: 0x3257B, size: 0x8, addend: 0x0, symName: __ZL22__gthread_mutex_unlockP23_opaque_pthread_mutex_t, symObjAddr: 0x2CC, symBinAddr: 0x100003DF0, symSize: 0x40 }
  - { offsetInCU: 0x325AD, offset: 0x325AD, size: 0x8, addend: 0x0, symName: __ZL18__gthread_active_pv, symObjAddr: 0x284, symBinAddr: 0x100003DA8, symSize: 0x8 }
  - { offsetInCU: 0x325B5, offset: 0x325B5, size: 0x8, addend: 0x0, symName: __ZL20__gthread_mutex_lockP23_opaque_pthread_mutex_t, symObjAddr: 0x28C, symBinAddr: 0x100003DB0, symSize: 0x40 }
  - { offsetInCU: 0x325BA, offset: 0x325BA, size: 0x8, addend: 0x0, symName: __ZNKSt4hashIiEclEi, symObjAddr: 0x26C, symBinAddr: 0x100003D90, symSize: 0x18 }
  - { offsetInCU: 0x325C2, offset: 0x325C2, size: 0x8, addend: 0x0, symName: __ZL18__gthread_active_pv, symObjAddr: 0x284, symBinAddr: 0x100003DA8, symSize: 0x8 }
  - { offsetInCU: 0x325FF, offset: 0x325FF, size: 0x8, addend: 0x0, symName: __ZNSt11char_traitsIcE4copyEPcPKcm, symObjAddr: 0x218, symBinAddr: 0x100003D3C, symSize: 0x54 }
  - { offsetInCU: 0x32607, offset: 0x32607, size: 0x8, addend: 0x0, symName: __ZNKSt4hashIiEclEi, symObjAddr: 0x26C, symBinAddr: 0x100003D90, symSize: 0x18 }
  - { offsetInCU: 0x3265D, offset: 0x3265D, size: 0x8, addend: 0x0, symName: __ZNSt11char_traitsIcE6lengthEPKc, symObjAddr: 0x1D8, symBinAddr: 0x100003CFC, symSize: 0x40 }
  - { offsetInCU: 0x32665, offset: 0x32665, size: 0x8, addend: 0x0, symName: __ZNSt11char_traitsIcE4copyEPcPKcm, symObjAddr: 0x218, symBinAddr: 0x100003D3C, symSize: 0x54 }
  - { offsetInCU: 0x32691, offset: 0x32691, size: 0x8, addend: 0x0, symName: __ZNSt11char_traitsIcE6assignERcRKc, symObjAddr: 0x1B0, symBinAddr: 0x100003CD4, symSize: 0x28 }
  - { offsetInCU: 0x32699, offset: 0x32699, size: 0x8, addend: 0x0, symName: __ZNSt11char_traitsIcE6lengthEPKc, symObjAddr: 0x1D8, symBinAddr: 0x100003CFC, symSize: 0x40 }
  - { offsetInCU: 0x326E8, offset: 0x326E8, size: 0x8, addend: 0x0, symName: __ZdlPvS_, symObjAddr: 0x198, symBinAddr: 0x100003CBC, symSize: 0x18 }
  - { offsetInCU: 0x326F0, offset: 0x326F0, size: 0x8, addend: 0x0, symName: __ZNSt11char_traitsIcE6assignERcRKc, symObjAddr: 0x1B0, symBinAddr: 0x100003CD4, symSize: 0x28 }
  - { offsetInCU: 0x32728, offset: 0x32728, size: 0x8, addend: 0x0, symName: __ZnwmPv, symObjAddr: 0x180, symBinAddr: 0x100003CA4, symSize: 0x18 }
  - { offsetInCU: 0x32730, offset: 0x32730, size: 0x8, addend: 0x0, symName: __ZdlPvS_, symObjAddr: 0x198, symBinAddr: 0x100003CBC, symSize: 0x18 }
  - { offsetInCU: 0x32763, offset: 0x32763, size: 0x8, addend: 0x0, symName: __ZN11__gnu_debug16_Error_formatter5_S_atEPKcjS2_, symObjAddr: 0xEC, symBinAddr: 0x100003C10, symSize: 0x94 }
  - { offsetInCU: 0x3276B, offset: 0x3276B, size: 0x8, addend: 0x0, symName: __ZnwmPv, symObjAddr: 0x180, symBinAddr: 0x100003CA4, symSize: 0x18 }
  - { offsetInCU: 0x32814, offset: 0x32814, size: 0x8, addend: 0x0, symName: __ZZN11__gnu_debug16_Error_formatter5_S_atEPKcjS2_E11__formatter, symObjAddr: 0x6920, symBinAddr: 0x100014000, symSize: 0x0 }
  - { offsetInCU: 0x32860, offset: 0x32860, size: 0x8, addend: 0x0, symName: __ZN11__gnu_debug16_Error_formatterC1EPKcjS2_, symObjAddr: 0x60, symBinAddr: 0x100003B84, symSize: 0x8C }
  - { offsetInCU: 0x32868, offset: 0x32868, size: 0x8, addend: 0x0, symName: __ZN11__gnu_debug16_Error_formatter5_S_atEPKcjS2_, symObjAddr: 0xEC, symBinAddr: 0x100003C10, symSize: 0x94 }
  - { offsetInCU: 0x328D8, offset: 0x328D8, size: 0x8, addend: 0x0, symName: __ZN11__gnu_debug16_Error_formatter10_ParameterC1Ev, symObjAddr: 0x30, symBinAddr: 0x100003B54, symSize: 0x30 }
  - { offsetInCU: 0x328E0, offset: 0x328E0, size: 0x8, addend: 0x0, symName: __ZN11__gnu_debug16_Error_formatterC1EPKcjS2_, symObjAddr: 0x60, symBinAddr: 0x100003B84, symSize: 0x8C }
  - { offsetInCU: 0x32904, offset: 0x32904, size: 0x8, addend: 0x0, symName: __ZNSt9exceptionC2Ev, symObjAddr: 0x8, symBinAddr: 0x100003B2C, symSize: 0x28 }
  - { offsetInCU: 0x3290C, offset: 0x3290C, size: 0x8, addend: 0x0, symName: __ZN11__gnu_debug16_Error_formatter10_ParameterC1Ev, symObjAddr: 0x30, symBinAddr: 0x100003B54, symSize: 0x30 }
  - { offsetInCU: 0x3295D, offset: 0x3295D, size: 0x8, addend: 0x0, symName: __ZSt23__is_constant_evaluatedv, symObjAddr: 0x0, symBinAddr: 0x100003B24, symSize: 0x8 }
  - { offsetInCU: 0x32965, offset: 0x32965, size: 0x8, addend: 0x0, symName: __ZNSt9exceptionC2Ev, symObjAddr: 0x8, symBinAddr: 0x100003B2C, symSize: 0x28 }
...
