---
triple:          'arm64-apple-darwin'
binary-path:     d
relocations:
  - { offsetInCU: 0x99, offset: 0x99, size: 0x8, addend: 0x0, symName: __ZSt23__is_constant_evaluatedv, symObjAddr: 0x0, symBinAddr: 0x100003EBC, symSize: 0x8 }
  - { offsetInCU: 0xA1, offset: 0xA1, size: 0x8, addend: 0x0, symName: __ZSt19piecewise_construct, symObjAddr: 0x12118, symBinAddr: 0x100018B28, symSize: 0x0 }
  - { offsetInCU: 0x19C9, offset: 0x19C9, size: 0x8, addend: 0x0, symName: __ZSt19piecewise_construct, symObjAddr: 0x12118, symBinAddr: 0x100018B28, symSize: 0x0 }
  - { offsetInCU: 0x1EB7A, offset: 0x1EB7A, size: 0x8, addend: 0x0, symName: __ZStL8__ioinit, symObjAddr: 0x1BCF80, symBinAddr: 0x10002C6E8, symSize: 0x0 }
  - { offsetInCU: 0x242D9, offset: 0x242D9, size: 0x8, addend: 0x0, symName: __ZL3INF, symObjAddr: 0x1211C, symBinAddr: 0x100018B2C, symSize: 0x0 }
  - { offsetInCU: 0x242F6, offset: 0x242F6, size: 0x8, addend: 0x0, symName: __ZL6INF_LL, symObjAddr: 0x12120, symBinAddr: 0x100018B30, symSize: 0x0 }
  - { offsetInCU: 0x429E6, offset: 0x429E6, size: 0x8, addend: 0x0, symName: __ZNSt8__detail30__integer_to_chars_is_unsignedIjEE, symObjAddr: 0x126CF, symBinAddr: 0x1000190DF, symSize: 0x0 }
  - { offsetInCU: 0x42A00, offset: 0x42A00, size: 0x8, addend: 0x0, symName: __ZNSt8__detail30__integer_to_chars_is_unsignedImEE, symObjAddr: 0x126D0, symBinAddr: 0x1000190E0, symSize: 0x0 }
  - { offsetInCU: 0x42A1A, offset: 0x42A1A, size: 0x8, addend: 0x0, symName: __ZNSt8__detail30__integer_to_chars_is_unsignedIyEE, symObjAddr: 0x126D1, symBinAddr: 0x1000190E1, symSize: 0x0 }
  - { offsetInCU: 0x42B83, offset: 0x42B83, size: 0x8, addend: 0x0, symName: __GLOBAL__sub_I_d.cpp, symObjAddr: 0x12104, symBinAddr: 0x100015FC0, symSize: 0x14 }
  - { offsetInCU: 0x42B8B, offset: 0x42B8B, size: 0x8, addend: 0x0, symName: __ZSt19piecewise_construct, symObjAddr: 0x12118, symBinAddr: 0x100018B28, symSize: 0x0 }
  - { offsetInCU: 0x42BB3, offset: 0x42BB3, size: 0x8, addend: 0x0, symName: __Z41__static_initialization_and_destruction_0v, symObjAddr: 0x120C8, symBinAddr: 0x100015F84, symSize: 0x3C }
  - { offsetInCU: 0x42BBB, offset: 0x42BBB, size: 0x8, addend: 0x0, symName: __GLOBAL__sub_I_d.cpp, symObjAddr: 0x12104, symBinAddr: 0x100015FC0, symSize: 0x14 }
  - { offsetInCU: 0x42C45, offset: 0x42C45, size: 0x8, addend: 0x0, symName: __ZNSt4pairIlN11__gnu_debug19_Distance_precisionEEC1IlS1_Lb1EEEOT_OT0_, symObjAddr: 0x12080, symBinAddr: 0x100015F3C, symSize: 0x48 }
  - { offsetInCU: 0x42C4D, offset: 0x42C4D, size: 0x8, addend: 0x0, symName: __Z41__static_initialization_and_destruction_0v, symObjAddr: 0x120C8, symBinAddr: 0x100015F84, symSize: 0x3C }
  - { offsetInCU: 0x42C63, offset: 0x42C63, size: 0x8, addend: 0x0, symName: __ZNSt10_Head_baseILm0ERKiLb0EE7_M_headERS2_, symObjAddr: 0x12068, symBinAddr: 0x100015F24, symSize: 0x18 }
  - { offsetInCU: 0x42C6B, offset: 0x42C6B, size: 0x8, addend: 0x0, symName: __ZNSt4pairIlN11__gnu_debug19_Distance_precisionEEC1IlS1_Lb1EEEOT_OT0_, symObjAddr: 0x12080, symBinAddr: 0x100015F3C, symSize: 0x48 }
  - { offsetInCU: 0x42C96, offset: 0x42C96, size: 0x8, addend: 0x0, symName: __ZNSt10_Head_baseILm0EOiLb0EE7_M_headERS1_, symObjAddr: 0x12050, symBinAddr: 0x100015F0C, symSize: 0x18 }
  - { offsetInCU: 0x42C9E, offset: 0x42C9E, size: 0x8, addend: 0x0, symName: __ZNSt10_Head_baseILm0ERKiLb0EE7_M_headERS2_, symObjAddr: 0x12068, symBinAddr: 0x100015F24, symSize: 0x18 }
  - { offsetInCU: 0x42CC9, offset: 0x42CC9, size: 0x8, addend: 0x0, symName: __ZNSt10_Head_baseILm0ERKNSt7__cxx1112basic_stringIcSt11char_traitsIcESaIcEEELb0EE7_M_headERS8_, symObjAddr: 0x12038, symBinAddr: 0x100015EF4, symSize: 0x18 }
  - { offsetInCU: 0x42CD1, offset: 0x42CD1, size: 0x8, addend: 0x0, symName: __ZNSt10_Head_baseILm0EOiLb0EE7_M_headERS1_, symObjAddr: 0x12050, symBinAddr: 0x100015F0C, symSize: 0x18 }
  - { offsetInCU: 0x42CFC, offset: 0x42CFC, size: 0x8, addend: 0x0, symName: __ZNSt11__copy_moveILb0ELb0ESt26random_access_iterator_tagE12__assign_oneIiKiEEvPT_PT0_, symObjAddr: 0x12010, symBinAddr: 0x100015ECC, symSize: 0x28 }
  - { offsetInCU: 0x42D04, offset: 0x42D04, size: 0x8, addend: 0x0, symName: __ZNSt10_Head_baseILm0ERKNSt7__cxx1112basic_stringIcSt11char_traitsIcESaIcEEELb0EE7_M_headERS8_, symObjAddr: 0x12038, symBinAddr: 0x100015EF4, symSize: 0x18 }
  - { offsetInCU: 0x42E39, offset: 0x42E39, size: 0x8, addend: 0x0, symName: __ZSt9make_pairIlN11__gnu_debug19_Distance_precisionEESt4pairINSt25__strip_reference_wrapperINSt5decayIT_E4typeEE6__typeENS3_INS4_IT0_E4typeEE6__typeEEOS5_OSA_, symObjAddr: 0x11FC4, symBinAddr: 0x100015E80, symSize: 0x4C }
  - { offsetInCU: 0x42E41, offset: 0x42E41, size: 0x8, addend: 0x0, symName: __ZNSt11__copy_moveILb0ELb0ESt26random_access_iterator_tagE12__assign_oneIiKiEEvPT_PT0_, symObjAddr: 0x12010, symBinAddr: 0x100015ECC, symSize: 0x28 }
  - { offsetInCU: 0x42DCF, offset: 0x42DCF, size: 0x8, addend: 0x0, symName: __ZNSt11_Tuple_implILm0EJRKiEE7_M_headERS2_, symObjAddr: 0x11FA8, symBinAddr: 0x100015E64, symSize: 0x1C }
  - { offsetInCU: 0x42DD7, offset: 0x42DD7, size: 0x8, addend: 0x0, symName: __ZSt9make_pairIlN11__gnu_debug19_Distance_precisionEESt4pairINSt25__strip_reference_wrapperINSt5decayIT_E4typeEE6__typeENS3_INS4_IT0_E4typeEE6__typeEEOS5_OSA_, symObjAddr: 0x11FC4, symBinAddr: 0x100015E80, symSize: 0x4C }
  - { offsetInCU: 0x42E03, offset: 0x42E03, size: 0x8, addend: 0x0, symName: __ZNSt11_Tuple_implILm0EJOiEE7_M_headERS1_, symObjAddr: 0x11F8C, symBinAddr: 0x100015E48, symSize: 0x1C }
  - { offsetInCU: 0x42E0B, offset: 0x42E0B, size: 0x8, addend: 0x0, symName: __ZNSt11_Tuple_implILm0EJRKiEE7_M_headERS2_, symObjAddr: 0x11FA8, symBinAddr: 0x100015E64, symSize: 0x1C }
  - { offsetInCU: 0x42E37, offset: 0x42E37, size: 0x8, addend: 0x0, symName: __ZNSt11_Tuple_implILm0EJRKNSt7__cxx1112basic_stringIcSt11char_traitsIcESaIcEEEEE7_M_headERS8_, symObjAddr: 0x11F70, symBinAddr: 0x100015E2C, symSize: 0x1C }
  - { offsetInCU: 0x42E3F, offset: 0x42E3F, size: 0x8, addend: 0x0, symName: __ZNSt11_Tuple_implILm0EJOiEE7_M_headERS1_, symObjAddr: 0x11F8C, symBinAddr: 0x100015E48, symSize: 0x1C }
  - { offsetInCU: 0x42E6B, offset: 0x42E6B, size: 0x8, addend: 0x0, symName: __ZNSt11__copy_moveILb0ELb1ESt26random_access_iterator_tagE8__copy_mIKiiEEPT0_PT_S7_S5_, symObjAddr: 0x11EE0, symBinAddr: 0x100015D9C, symSize: 0x90 }
  - { offsetInCU: 0x42E73, offset: 0x42E73, size: 0x8, addend: 0x0, symName: __ZNSt11_Tuple_implILm0EJRKNSt7__cxx1112basic_stringIcSt11char_traitsIcESaIcEEEEE7_M_headERS8_, symObjAddr: 0x11F70, symBinAddr: 0x100015E2C, symSize: 0x1C }
  - { offsetInCU: 0x42F7D, offset: 0x42F7D, size: 0x8, addend: 0x0, symName: __ZSt7forwardIN11__gnu_debug19_Distance_precisionEEOT_RNSt16remove_referenceIS2_E4typeE, symObjAddr: 0x11ECC, symBinAddr: 0x100015D88, symSize: 0x14 }
  - { offsetInCU: 0x42F85, offset: 0x42F85, size: 0x8, addend: 0x0, symName: __ZNSt11__copy_moveILb0ELb1ESt26random_access_iterator_tagE8__copy_mIKiiEEPT0_PT_S7_S5_, symObjAddr: 0x11EE0, symBinAddr: 0x100015D9C, symSize: 0x90 }
  - { offsetInCU: 0x42F98, offset: 0x42F98, size: 0x8, addend: 0x0, symName: __ZSt7forwardIlEOT_RNSt16remove_referenceIS0_E4typeE, symObjAddr: 0x11EB8, symBinAddr: 0x100015D74, symSize: 0x14 }
  - { offsetInCU: 0x42FA0, offset: 0x42FA0, size: 0x8, addend: 0x0, symName: __ZSt7forwardIN11__gnu_debug19_Distance_precisionEEOT_RNSt16remove_referenceIS2_E4typeE, symObjAddr: 0x11ECC, symBinAddr: 0x100015D88, symSize: 0x14 }
  - { offsetInCU: 0x43037, offset: 0x43037, size: 0x8, addend: 0x0, symName: __ZN11__gnu_debug14__get_distanceIPKiEENS_16_Distance_traitsIT_NSt12__is_integerIS4_E6__typeEE6__typeES4_S4_St26random_access_iterator_tag, symObjAddr: 0x11E74, symBinAddr: 0x100015D30, symSize: 0x44 }
  - { offsetInCU: 0x4303F, offset: 0x4303F, size: 0x8, addend: 0x0, symName: __ZSt7forwardIlEOT_RNSt16remove_referenceIS0_E4typeE, symObjAddr: 0x11EB8, symBinAddr: 0x100015D74, symSize: 0x14 }
  - { offsetInCU: 0x43074, offset: 0x43074, size: 0x8, addend: 0x0, symName: __ZSt12__get_helperILm0ERKiJEERT0_RSt11_Tuple_implIXT_EJS2_DpT1_EE, symObjAddr: 0x11E58, symBinAddr: 0x100015D14, symSize: 0x1C }
  - { offsetInCU: 0x4307C, offset: 0x4307C, size: 0x8, addend: 0x0, symName: __ZN11__gnu_debug14__get_distanceIPKiEENS_16_Distance_traitsIT_NSt12__is_integerIS4_E6__typeEE6__typeES4_S4_St26random_access_iterator_tag, symObjAddr: 0x11E74, symBinAddr: 0x100015D30, symSize: 0x44 }
  - { offsetInCU: 0x430CF, offset: 0x430CF, size: 0x8, addend: 0x0, symName: __ZSt12__get_helperILm0EOiJEERT0_RSt11_Tuple_implIXT_EJS1_DpT1_EE, symObjAddr: 0x11E3C, symBinAddr: 0x100015CF8, symSize: 0x1C }
  - { offsetInCU: 0x430D7, offset: 0x430D7, size: 0x8, addend: 0x0, symName: __ZSt12__get_helperILm0ERKiJEERT0_RSt11_Tuple_implIXT_EJS2_DpT1_EE, symObjAddr: 0x11E58, symBinAddr: 0x100015D14, symSize: 0x1C }
  - { offsetInCU: 0x43186, offset: 0x43186, size: 0x8, addend: 0x0, symName: __ZSt12__get_helperILm0ERKNSt7__cxx1112basic_stringIcSt11char_traitsIcESaIcEEEJEERT0_RSt11_Tuple_implIXT_EJS8_DpT1_EE, symObjAddr: 0x11E20, symBinAddr: 0x100015CDC, symSize: 0x1C }
  - { offsetInCU: 0x4318E, offset: 0x4318E, size: 0x8, addend: 0x0, symName: __ZSt12__get_helperILm0EOiJEERT0_RSt11_Tuple_implIXT_EJS1_DpT1_EE, symObjAddr: 0x11E3C, symBinAddr: 0x100015CF8, symSize: 0x1C }
  - { offsetInCU: 0x4318D, offset: 0x4318D, size: 0x8, addend: 0x0, symName: __ZSt14__copy_move_a2ILb0EPKiPiET1_T0_S4_S3_, symObjAddr: 0x11DF4, symBinAddr: 0x100015CB0, symSize: 0x2C }
  - { offsetInCU: 0x43195, offset: 0x43195, size: 0x8, addend: 0x0, symName: __ZSt12__get_helperILm0ERKNSt7__cxx1112basic_stringIcSt11char_traitsIcESaIcEEEJEERT0_RSt11_Tuple_implIXT_EJS8_DpT1_EE, symObjAddr: 0x11E20, symBinAddr: 0x100015CDC, symSize: 0x1C }
  - { offsetInCU: 0x43201, offset: 0x43201, size: 0x8, addend: 0x0, symName: __ZSt11__addressofIKPiEPT_RS2_, symObjAddr: 0x11DE0, symBinAddr: 0x100015C9C, symSize: 0x14 }
  - { offsetInCU: 0x43209, offset: 0x43209, size: 0x8, addend: 0x0, symName: __ZSt14__copy_move_a2ILb0EPKiPiET1_T0_S4_S3_, symObjAddr: 0x11DF4, symBinAddr: 0x100015CB0, symSize: 0x2C }
  - { offsetInCU: 0x4325E, offset: 0x4325E, size: 0x8, addend: 0x0, symName: __ZSt11__addressofIKPKiEPT_RS3_, symObjAddr: 0x11DCC, symBinAddr: 0x100015C88, symSize: 0x14 }
  - { offsetInCU: 0x43266, offset: 0x43266, size: 0x8, addend: 0x0, symName: __ZSt11__addressofIKPiEPT_RS2_, symObjAddr: 0x11DE0, symBinAddr: 0x100015C9C, symSize: 0x14 }
  - { offsetInCU: 0x43273, offset: 0x43273, size: 0x8, addend: 0x0, symName: __ZNSt4pairIlN11__gnu_debug19_Distance_precisionEEaSEOS2_, symObjAddr: 0x11D84, symBinAddr: 0x100015C40, symSize: 0x48 }
  - { offsetInCU: 0x4327B, offset: 0x4327B, size: 0x8, addend: 0x0, symName: __ZSt11__addressofIKPKiEPT_RS3_, symObjAddr: 0x11DCC, symBinAddr: 0x100015C88, symSize: 0x14 }
  - { offsetInCU: 0x4332E, offset: 0x4332E, size: 0x8, addend: 0x0, symName: __ZN11__gnu_debug14__get_distanceIPKiEENS_16_Distance_traitsIT_NSt12__is_integerIS4_E6__typeEE6__typeES4_S4_, symObjAddr: 0x11D5C, symBinAddr: 0x100015C18, symSize: 0x28 }
  - { offsetInCU: 0x43336, offset: 0x43336, size: 0x8, addend: 0x0, symName: __ZNSt4pairIlN11__gnu_debug19_Distance_precisionEEaSEOS2_, symObjAddr: 0x11D84, symBinAddr: 0x100015C40, symSize: 0x48 }
  - { offsetInCU: 0x4338D, offset: 0x4338D, size: 0x8, addend: 0x0, symName: __ZN11__gnu_debug17__valid_range_auxIPKiEEbT_S3_St18input_iterator_tag, symObjAddr: 0x11CE4, symBinAddr: 0x100015BA0, symSize: 0x78 }
  - { offsetInCU: 0x43395, offset: 0x43395, size: 0x8, addend: 0x0, symName: __ZN11__gnu_debug14__get_distanceIPKiEENS_16_Distance_traitsIT_NSt12__is_integerIS4_E6__typeEE6__typeES4_S4_, symObjAddr: 0x11D5C, symBinAddr: 0x100015C18, symSize: 0x28 }
  - { offsetInCU: 0x433F9, offset: 0x433F9, size: 0x8, addend: 0x0, symName: __ZN11__gnu_debug16__check_singularIKiEEbRKPT_, symObjAddr: 0x11CC0, symBinAddr: 0x100015B7C, symSize: 0x24 }
  - { offsetInCU: 0x43401, offset: 0x43401, size: 0x8, addend: 0x0, symName: __ZN11__gnu_debug17__valid_range_auxIPKiEEbT_S3_St18input_iterator_tag, symObjAddr: 0x11CE4, symBinAddr: 0x100015BA0, symSize: 0x78 }
  - { offsetInCU: 0x43445, offset: 0x43445, size: 0x8, addend: 0x0, symName: __ZSt7forwardIRKiEOT_RNSt16remove_referenceIS2_E4typeE, symObjAddr: 0x11CAC, symBinAddr: 0x100015B68, symSize: 0x14 }
  - { offsetInCU: 0x4344D, offset: 0x4344D, size: 0x8, addend: 0x0, symName: __ZN11__gnu_debug16__check_singularIKiEEbRKPT_, symObjAddr: 0x11CC0, symBinAddr: 0x100015B7C, symSize: 0x24 }
  - { offsetInCU: 0x434AD, offset: 0x434AD, size: 0x8, addend: 0x0, symName: __ZSt3getILm0EJRKiEERNSt13tuple_elementIXT_ESt5tupleIJDpT0_EEE4typeERS6_, symObjAddr: 0x11C90, symBinAddr: 0x100015B4C, symSize: 0x1C }
  - { offsetInCU: 0x434B5, offset: 0x434B5, size: 0x8, addend: 0x0, symName: __ZSt7forwardIRKiEOT_RNSt16remove_referenceIS2_E4typeE, symObjAddr: 0x11CAC, symBinAddr: 0x100015B68, symSize: 0x14 }
  - { offsetInCU: 0x43598, offset: 0x43598, size: 0x8, addend: 0x0, symName: __ZSt7forwardINSt7__cxx1112basic_stringIcSt11char_traitsIcESaIcEEEEOT_RNSt16remove_referenceIS6_E4typeE, symObjAddr: 0x11C7C, symBinAddr: 0x100015B38, symSize: 0x14 }
  - { offsetInCU: 0x435A0, offset: 0x435A0, size: 0x8, addend: 0x0, symName: __ZSt3getILm0EJRKiEERNSt13tuple_elementIXT_ESt5tupleIJDpT0_EEE4typeERS6_, symObjAddr: 0x11C90, symBinAddr: 0x100015B4C, symSize: 0x1C }
  - { offsetInCU: 0x43558, offset: 0x43558, size: 0x8, addend: 0x0, symName: __ZNSt10_HashtableINSt7__cxx1112basic_stringIcSt11char_traitsIcESaIcEEES5_SaIS5_ENSt8__detail9_IdentityESt8equal_toIS5_ESt4hashIS5_ENS7_18_Mod_range_hashingENS7_20_Default_ranged_hashENS7_20_Prime_rehash_policyENS7_17_Hashtable_traitsILb1ELb1ELb1EEEE13_M_rehash_auxEmSt17integral_constantIbLb1EE, symObjAddr: 0x11B10, symBinAddr: 0x1000159CC, symSize: 0x16C }
  - { offsetInCU: 0x43560, offset: 0x43560, size: 0x8, addend: 0x0, symName: __ZSt7forwardINSt7__cxx1112basic_stringIcSt11char_traitsIcESaIcEEEEOT_RNSt16remove_referenceIS6_E4typeE, symObjAddr: 0x11C7C, symBinAddr: 0x100015B38, symSize: 0x14 }
  - { offsetInCU: 0x43628, offset: 0x43628, size: 0x8, addend: 0x0, symName: __ZNKSt8__detail15_Hashtable_baseINSt7__cxx1112basic_stringIcSt11char_traitsIcESaIcEEES6_NS_9_IdentityESt8equal_toIS6_ESt4hashIS6_ENS_18_Mod_range_hashingENS_20_Default_ranged_hashENS_17_Hashtable_traitsILb1ELb1ELb1EEEE12_M_equals_trIS6_EEbRKT_mRKNS_16_Hash_node_valueIS6_Lb1EEE, symObjAddr: 0x11AA0, symBinAddr: 0x10001595C, symSize: 0x70 }
  - { offsetInCU: 0x43630, offset: 0x43630, size: 0x8, addend: 0x0, symName: __ZNSt10_HashtableINSt7__cxx1112basic_stringIcSt11char_traitsIcESaIcEEES5_SaIS5_ENSt8__detail9_IdentityESt8equal_toIS5_ESt4hashIS5_ENS7_18_Mod_range_hashingENS7_20_Default_ranged_hashENS7_20_Prime_rehash_policyENS7_17_Hashtable_traitsILb1ELb1ELb1EEEE13_M_rehash_auxEmSt17integral_constantIbLb1EE, symObjAddr: 0x11B10, symBinAddr: 0x1000159CC, symSize: 0x16C }
  - { offsetInCU: 0x436ED, offset: 0x436ED, size: 0x8, addend: 0x0, symName: __ZSt7forwardIOiEOT_RNSt16remove_referenceIS1_E4typeE, symObjAddr: 0x11A8C, symBinAddr: 0x100015948, symSize: 0x14 }
  - { offsetInCU: 0x436F5, offset: 0x436F5, size: 0x8, addend: 0x0, symName: __ZNKSt8__detail15_Hashtable_baseINSt7__cxx1112basic_stringIcSt11char_traitsIcESaIcEEES6_NS_9_IdentityESt8equal_toIS6_ESt4hashIS6_ENS_18_Mod_range_hashingENS_20_Default_ranged_hashENS_17_Hashtable_traitsILb1ELb1ELb1EEEE12_M_equals_trIS6_EEbRKT_mRKNS_16_Hash_node_valueIS6_Lb1EEE, symObjAddr: 0x11AA0, symBinAddr: 0x10001595C, symSize: 0x70 }
  - { offsetInCU: 0x43755, offset: 0x43755, size: 0x8, addend: 0x0, symName: __ZSt3getILm0EJOiEERNSt13tuple_elementIXT_ESt5tupleIJDpT0_EEE4typeERS5_, symObjAddr: 0x11A70, symBinAddr: 0x10001592C, symSize: 0x1C }
  - { offsetInCU: 0x4375D, offset: 0x4375D, size: 0x8, addend: 0x0, symName: __ZSt7forwardIOiEOT_RNSt16remove_referenceIS1_E4typeE, symObjAddr: 0x11A8C, symBinAddr: 0x100015948, symSize: 0x14 }
  - { offsetInCU: 0x43838, offset: 0x43838, size: 0x8, addend: 0x0, symName: __ZSt3getILm0EJRKNSt7__cxx1112basic_stringIcSt11char_traitsIcESaIcEEEEERNSt13tuple_elementIXT_ESt5tupleIJDpT0_EEE4typeERSC_, symObjAddr: 0x11A54, symBinAddr: 0x100015910, symSize: 0x1C }
  - { offsetInCU: 0x43840, offset: 0x43840, size: 0x8, addend: 0x0, symName: __ZSt3getILm0EJOiEERNSt13tuple_elementIXT_ESt5tupleIJDpT0_EEE4typeERS5_, symObjAddr: 0x11A70, symBinAddr: 0x10001592C, symSize: 0x1C }
  - { offsetInCU: 0x437F0, offset: 0x437F0, size: 0x8, addend: 0x0, symName: __ZSt12__niter_wrapIPiET_RKS1_S1_, symObjAddr: 0x11A3C, symBinAddr: 0x1000158F8, symSize: 0x18 }
  - { offsetInCU: 0x437F8, offset: 0x437F8, size: 0x8, addend: 0x0, symName: __ZSt3getILm0EJRKNSt7__cxx1112basic_stringIcSt11char_traitsIcESaIcEEEEERNSt13tuple_elementIXT_ESt5tupleIJDpT0_EEE4typeERSC_, symObjAddr: 0x11A54, symBinAddr: 0x100015910, symSize: 0x1C }
  - { offsetInCU: 0x4386B, offset: 0x4386B, size: 0x8, addend: 0x0, symName: __ZSt14__copy_move_a1ILb0EPKiPiET1_T0_S4_S3_, symObjAddr: 0x11A10, symBinAddr: 0x1000158CC, symSize: 0x2C }
  - { offsetInCU: 0x43873, offset: 0x43873, size: 0x8, addend: 0x0, symName: __ZSt12__niter_wrapIPiET_RKS1_S1_, symObjAddr: 0x11A3C, symBinAddr: 0x1000158F8, symSize: 0x18 }
  - { offsetInCU: 0x438D9, offset: 0x438D9, size: 0x8, addend: 0x0, symName: __ZSt12__niter_baseIPiET_S1_, symObjAddr: 0x119FC, symBinAddr: 0x1000158B8, symSize: 0x14 }
  - { offsetInCU: 0x438E1, offset: 0x438E1, size: 0x8, addend: 0x0, symName: __ZSt14__copy_move_a1ILb0EPKiPiET1_T0_S4_S3_, symObjAddr: 0x11A10, symBinAddr: 0x1000158CC, symSize: 0x2C }
  - { offsetInCU: 0x4392E, offset: 0x4392E, size: 0x8, addend: 0x0, symName: __ZSt12__niter_baseIPKiET_S2_, symObjAddr: 0x119E8, symBinAddr: 0x1000158A4, symSize: 0x14 }
  - { offsetInCU: 0x43936, offset: 0x43936, size: 0x8, addend: 0x0, symName: __ZSt12__niter_baseIPiET_S1_, symObjAddr: 0x119FC, symBinAddr: 0x1000158B8, symSize: 0x14 }
  - { offsetInCU: 0x439E6, offset: 0x439E6, size: 0x8, addend: 0x0, symName: __ZN11__gnu_debug16_Error_formatter10_ParameterC1IiEERKPT_PKcNS0_12_Is_iteratorE, symObjAddr: 0x11938, symBinAddr: 0x1000157F4, symSize: 0xB0 }
  - { offsetInCU: 0x439EE, offset: 0x439EE, size: 0x8, addend: 0x0, symName: __ZSt12__niter_baseIPKiET_S2_, symObjAddr: 0x119E8, symBinAddr: 0x1000158A4, symSize: 0x14 }
  - { offsetInCU: 0x43AA0, offset: 0x43AA0, size: 0x8, addend: 0x0, symName: __ZN11__gnu_debug16_Error_formatter10_ParameterC1IiEERKPKT_PKcNS0_12_Is_iteratorE, symObjAddr: 0x11888, symBinAddr: 0x100015744, symSize: 0xB0 }
  - { offsetInCU: 0x43AA8, offset: 0x43AA8, size: 0x8, addend: 0x0, symName: __ZN11__gnu_debug16_Error_formatter10_ParameterC1IiEERKPT_PKcNS0_12_Is_iteratorE, symObjAddr: 0x11938, symBinAddr: 0x1000157F4, symSize: 0xB0 }
  - { offsetInCU: 0x43B3D, offset: 0x43B3D, size: 0x8, addend: 0x0, symName: __ZN11__gnu_debug17__valid_range_auxIPKiEEbT_S3_RNS_16_Distance_traitsIS3_NSt12__is_integerIS3_E6__typeEE6__typeESt12__false_type, symObjAddr: 0x117B0, symBinAddr: 0x10001566C, symSize: 0xD8 }
  - { offsetInCU: 0x43B45, offset: 0x43B45, size: 0x8, addend: 0x0, symName: __ZN11__gnu_debug16_Error_formatter10_ParameterC1IiEERKPKT_PKcNS0_12_Is_iteratorE, symObjAddr: 0x11888, symBinAddr: 0x100015744, symSize: 0xB0 }
  - { offsetInCU: 0x43B96, offset: 0x43B96, size: 0x8, addend: 0x0, symName: __ZSt7forwardIRKPKcEOT_RNSt16remove_referenceIS4_E4typeE, symObjAddr: 0x1179C, symBinAddr: 0x100015658, symSize: 0x14 }
  - { offsetInCU: 0x43B9E, offset: 0x43B9E, size: 0x8, addend: 0x0, symName: __ZN11__gnu_debug17__valid_range_auxIPKiEEbT_S3_RNS_16_Distance_traitsIS3_NSt12__is_integerIS3_E6__typeEE6__typeESt12__false_type, symObjAddr: 0x117B0, symBinAddr: 0x10001566C, symSize: 0xD8 }
  - { offsetInCU: 0x43CCF, offset: 0x43CCF, size: 0x8, addend: 0x0, symName: __ZNSt4pairIKiNSt7__debug6vectorINSt7__cxx1112basic_stringIcSt11char_traitsIcESaIcEEESaIS8_EEEEC1IJRS0_EJLm0EEJEJEEERSt5tupleIJDpT_EERSE_IJDpT1_EESt12_Index_tupleIJXspT0_EEESN_IJXspT2_EEE, symObjAddr: 0x11734, symBinAddr: 0x1000155F0, symSize: 0x68 }
  - { offsetInCU: 0x43CD7, offset: 0x43CD7, size: 0x8, addend: 0x0, symName: __ZSt7forwardIRKPKcEOT_RNSt16remove_referenceIS4_E4typeE, symObjAddr: 0x1179C, symBinAddr: 0x100015658, symSize: 0x14 }
  - { offsetInCU: 0x43E3C, offset: 0x43E3C, size: 0x8, addend: 0x0, symName: __ZNSt4pairIKiNSt7__debug6vectorINSt7__cxx1112basic_stringIcSt11char_traitsIcESaIcEEESaIS8_EEEEC1IJOiEJLm0EEJEJEEERSt5tupleIJDpT_EERSE_IJDpT1_EESt12_Index_tupleIJXspT0_EEESN_IJXspT2_EEE, symObjAddr: 0x116CC, symBinAddr: 0x100015588, symSize: 0x68 }
  - { offsetInCU: 0x43E44, offset: 0x43E44, size: 0x8, addend: 0x0, symName: __ZNSt4pairIKiNSt7__debug6vectorINSt7__cxx1112basic_stringIcSt11char_traitsIcESaIcEEESaIS8_EEEEC1IJRS0_EJLm0EEJEJEEERSt5tupleIJDpT_EERSE_IJDpT1_EESt12_Index_tupleIJXspT0_EEESN_IJXspT2_EEE, symObjAddr: 0x11734, symBinAddr: 0x1000155F0, symSize: 0x68 }
  - { offsetInCU: 0x43E1B, offset: 0x43E1B, size: 0x8, addend: 0x0, symName: __ZNK9__gnu_cxx16__aligned_bufferISt4pairIKiNSt7__debug6vectorINSt7__cxx1112basic_stringIcSt11char_traitsIcESaIcEEESaISA_EEEEE7_M_addrEv, symObjAddr: 0x116B8, symBinAddr: 0x100015574, symSize: 0x14 }
  - { offsetInCU: 0x43E23, offset: 0x43E23, size: 0x8, addend: 0x0, symName: __ZNSt4pairIKiNSt7__debug6vectorINSt7__cxx1112basic_stringIcSt11char_traitsIcESaIcEEESaIS8_EEEEC1IJOiEJLm0EEJEJEEERSt5tupleIJDpT_EERSE_IJDpT1_EESt12_Index_tupleIJXspT0_EEESN_IJXspT2_EEE, symObjAddr: 0x116CC, symBinAddr: 0x100015588, symSize: 0x68 }
  - { offsetInCU: 0x43E54, offset: 0x43E54, size: 0x8, addend: 0x0, symName: __ZNK9__gnu_cxx16__aligned_bufferINSt7__cxx1112basic_stringIcSt11char_traitsIcESaIcEEEE7_M_addrEv, symObjAddr: 0x116A4, symBinAddr: 0x100015560, symSize: 0x14 }
  - { offsetInCU: 0x43E5C, offset: 0x43E5C, size: 0x8, addend: 0x0, symName: __ZNK9__gnu_cxx16__aligned_bufferISt4pairIKiNSt7__debug6vectorINSt7__cxx1112basic_stringIcSt11char_traitsIcESaIcEEESaISA_EEEEE7_M_addrEv, symObjAddr: 0x116B8, symBinAddr: 0x100015574, symSize: 0x14 }
  - { offsetInCU: 0x43E88, offset: 0x43E88, size: 0x8, addend: 0x0, symName: __ZNSt10_HashtableINSt7__cxx1112basic_stringIcSt11char_traitsIcESaIcEEES5_SaIS5_ENSt8__detail9_IdentityESt8equal_toIS5_ESt4hashIS5_ENS7_18_Mod_range_hashingENS7_20_Default_ranged_hashENS7_20_Prime_rehash_policyENS7_17_Hashtable_traitsILb1ELb1ELb1EEEE22_M_insert_bucket_beginEmPNS7_10_Hash_nodeIS5_Lb1EEE, symObjAddr: 0x11598, symBinAddr: 0x100015454, symSize: 0x10C }
  - { offsetInCU: 0x43E90, offset: 0x43E90, size: 0x8, addend: 0x0, symName: __ZNK9__gnu_cxx16__aligned_bufferINSt7__cxx1112basic_stringIcSt11char_traitsIcESaIcEEEE7_M_addrEv, symObjAddr: 0x116A4, symBinAddr: 0x100015560, symSize: 0x14 }
  - { offsetInCU: 0x43EE3, offset: 0x43EE3, size: 0x8, addend: 0x0, symName: __ZNKSt8__detail15_Hash_code_baseINSt7__cxx1112basic_stringIcSt11char_traitsIcESaIcEEES6_NS_9_IdentityESt4hashIS6_ENS_18_Mod_range_hashingENS_20_Default_ranged_hashELb1EE13_M_store_codeERNS_21_Hash_node_code_cacheILb1EEEm, symObjAddr: 0x11570, symBinAddr: 0x10001542C, symSize: 0x28 }
  - { offsetInCU: 0x43EEB, offset: 0x43EEB, size: 0x8, addend: 0x0, symName: __ZNSt10_HashtableINSt7__cxx1112basic_stringIcSt11char_traitsIcESaIcEEES5_SaIS5_ENSt8__detail9_IdentityESt8equal_toIS5_ESt4hashIS5_ENS7_18_Mod_range_hashingENS7_20_Default_ranged_hashENS7_20_Prime_rehash_policyENS7_17_Hashtable_traitsILb1ELb1ELb1EEEE22_M_insert_bucket_beginEmPNS7_10_Hash_nodeIS5_Lb1EEE, symObjAddr: 0x11598, symBinAddr: 0x100015454, symSize: 0x10C }
  - { offsetInCU: 0x43F3E, offset: 0x43F3E, size: 0x8, addend: 0x0, symName: __ZNSt10_HashtableINSt7__cxx1112basic_stringIcSt11char_traitsIcESaIcEEES5_SaIS5_ENSt8__detail9_IdentityESt8equal_toIS5_ESt4hashIS5_ENS7_18_Mod_range_hashingENS7_20_Default_ranged_hashENS7_20_Prime_rehash_policyENS7_17_Hashtable_traitsILb1ELb1ELb1EEEE9_M_rehashEmRKm, symObjAddr: 0x11504, symBinAddr: 0x1000153C0, symSize: 0x6C }
  - { offsetInCU: 0x43F46, offset: 0x43F46, size: 0x8, addend: 0x0, symName: __ZNKSt8__detail15_Hash_code_baseINSt7__cxx1112basic_stringIcSt11char_traitsIcESaIcEEES6_NS_9_IdentityESt4hashIS6_ENS_18_Mod_range_hashingENS_20_Default_ranged_hashELb1EE13_M_store_codeERNS_21_Hash_node_code_cacheILb1EEEm, symObjAddr: 0x11570, symBinAddr: 0x10001542C, symSize: 0x28 }
  - { offsetInCU: 0x44081, offset: 0x44081, size: 0x8, addend: 0x0, symName: __ZSt7forwardINSt8__detail14_Node_iteratorINSt7__cxx1112basic_stringIcSt11char_traitsIcESaIcEEELb1ELb1EEEEOT_RNSt16remove_referenceIS9_E4typeE, symObjAddr: 0x114F0, symBinAddr: 0x1000153AC, symSize: 0x14 }
  - { offsetInCU: 0x44089, offset: 0x44089, size: 0x8, addend: 0x0, symName: __ZNSt10_HashtableINSt7__cxx1112basic_stringIcSt11char_traitsIcESaIcEEES5_SaIS5_ENSt8__detail9_IdentityESt8equal_toIS5_ESt4hashIS5_ENS7_18_Mod_range_hashingENS7_20_Default_ranged_hashENS7_20_Prime_rehash_policyENS7_17_Hashtable_traitsILb1ELb1ELb1EEEE9_M_rehashEmRKm, symObjAddr: 0x11504, symBinAddr: 0x1000153C0, symSize: 0x6C }
  - { offsetInCU: 0x43FEF, offset: 0x43FEF, size: 0x8, addend: 0x0, symName: __ZNKSt10_HashtableINSt7__cxx1112basic_stringIcSt11char_traitsIcESaIcEEES5_SaIS5_ENSt8__detail9_IdentityESt8equal_toIS5_ESt4hashIS5_ENS7_18_Mod_range_hashingENS7_20_Default_ranged_hashENS7_20_Prime_rehash_policyENS7_17_Hashtable_traitsILb1ELb1ELb1EEEE22_M_find_before_node_trIS5_EEPNS7_15_Hash_node_baseEmRKT_m, symObjAddr: 0x113F0, symBinAddr: 0x1000152AC, symSize: 0x100 }
  - { offsetInCU: 0x43FF7, offset: 0x43FF7, size: 0x8, addend: 0x0, symName: __ZSt7forwardINSt8__detail14_Node_iteratorINSt7__cxx1112basic_stringIcSt11char_traitsIcESaIcEEELb1ELb1EEEEOT_RNSt16remove_referenceIS9_E4typeE, symObjAddr: 0x114F0, symBinAddr: 0x1000153AC, symSize: 0x14 }
  - { offsetInCU: 0x44192, offset: 0x44192, size: 0x8, addend: 0x0, symName: __ZSt7forwardIRNSt8__detail14_Node_iteratorINSt7__cxx1112basic_stringIcSt11char_traitsIcESaIcEEELb1ELb1EEEEOT_RNSt16remove_referenceISA_E4typeE, symObjAddr: 0x113DC, symBinAddr: 0x100015298, symSize: 0x14 }
  - { offsetInCU: 0x4419A, offset: 0x4419A, size: 0x8, addend: 0x0, symName: __ZNKSt10_HashtableINSt7__cxx1112basic_stringIcSt11char_traitsIcESaIcEEES5_SaIS5_ENSt8__detail9_IdentityESt8equal_toIS5_ESt4hashIS5_ENS7_18_Mod_range_hashingENS7_20_Default_ranged_hashENS7_20_Prime_rehash_policyENS7_17_Hashtable_traitsILb1ELb1ELb1EEEE22_M_find_before_node_trIS5_EEPNS7_15_Hash_node_baseEmRKT_m, symObjAddr: 0x113F0, symBinAddr: 0x1000152AC, symSize: 0x100 }
  - { offsetInCU: 0x441C1, offset: 0x441C1, size: 0x8, addend: 0x0, symName: __ZSt11__addressofINSt8__detail10_Hash_nodeINSt7__cxx1112basic_stringIcSt11char_traitsIcESaIcEEELb1EEEEPT_RS9_, symObjAddr: 0x113C8, symBinAddr: 0x100015284, symSize: 0x14 }
  - { offsetInCU: 0x441C9, offset: 0x441C9, size: 0x8, addend: 0x0, symName: __ZSt7forwardIRNSt8__detail14_Node_iteratorINSt7__cxx1112basic_stringIcSt11char_traitsIcESaIcEEELb1ELb1EEEEOT_RNSt16remove_referenceISA_E4typeE, symObjAddr: 0x113DC, symBinAddr: 0x100015298, symSize: 0x14 }
  - { offsetInCU: 0x442A8, offset: 0x442A8, size: 0x8, addend: 0x0, symName: __ZNSt4pairIKiNSt7__debug13unordered_setINSt7__cxx1112basic_stringIcSt11char_traitsIcESaIcEEESt4hashIS8_ESt8equal_toIS8_ESaIS8_EEEEC1IJOiEJLm0EEJEJEEERSt5tupleIJDpT_EERSI_IJDpT1_EESt12_Index_tupleIJXspT0_EEESR_IJXspT2_EEE, symObjAddr: 0x11364, symBinAddr: 0x100015220, symSize: 0x64 }
  - { offsetInCU: 0x442B0, offset: 0x442B0, size: 0x8, addend: 0x0, symName: __ZSt11__addressofINSt8__detail10_Hash_nodeINSt7__cxx1112basic_stringIcSt11char_traitsIcESaIcEEELb1EEEEPT_RS9_, symObjAddr: 0x113C8, symBinAddr: 0x100015284, symSize: 0x14 }
  - { offsetInCU: 0x44263, offset: 0x44263, size: 0x8, addend: 0x0, symName: __ZNK9__gnu_cxx16__aligned_bufferISt4pairIKiNSt7__debug13unordered_setINSt7__cxx1112basic_stringIcSt11char_traitsIcESaIcEEESt4hashISA_ESt8equal_toISA_ESaISA_EEEEE7_M_addrEv, symObjAddr: 0x11350, symBinAddr: 0x10001520C, symSize: 0x14 }
  - { offsetInCU: 0x4426B, offset: 0x4426B, size: 0x8, addend: 0x0, symName: __ZNSt4pairIKiNSt7__debug13unordered_setINSt7__cxx1112basic_stringIcSt11char_traitsIcESaIcEEESt4hashIS8_ESt8equal_toIS8_ESaIS8_EEEEC1IJOiEJLm0EEJEJEEERSt5tupleIJDpT_EERSI_IJDpT1_EESt12_Index_tupleIJXspT0_EEESR_IJXspT2_EEE, symObjAddr: 0x11364, symBinAddr: 0x100015220, symSize: 0x64 }
  - { offsetInCU: 0x443DA, offset: 0x443DA, size: 0x8, addend: 0x0, symName: __ZSt11__addressofINSt8__detail10_Hash_nodeISt4pairIKiNSt7__debug13unordered_setINSt7__cxx1112basic_stringIcSt11char_traitsIcESaIcEEESt4hashISB_ESt8equal_toISB_ESaISB_EEEELb0EEEEPT_RSK_, symObjAddr: 0x1133C, symBinAddr: 0x1000151F8, symSize: 0x14 }
  - { offsetInCU: 0x443E2, offset: 0x443E2, size: 0x8, addend: 0x0, symName: __ZNK9__gnu_cxx16__aligned_bufferISt4pairIKiNSt7__debug13unordered_setINSt7__cxx1112basic_stringIcSt11char_traitsIcESaIcEEESt4hashISA_ESt8equal_toISA_ESaISA_EEEEE7_M_addrEv, symObjAddr: 0x11350, symBinAddr: 0x10001520C, symSize: 0x14 }
  - { offsetInCU: 0x443FB, offset: 0x443FB, size: 0x8, addend: 0x0, symName: __ZSt11__addressofINSt8__detail10_Hash_nodeISt4pairIKiNSt7__debug6vectorINSt7__cxx1112basic_stringIcSt11char_traitsIcESaIcEEESaISB_EEEELb0EEEEPT_RSG_, symObjAddr: 0x11328, symBinAddr: 0x1000151E4, symSize: 0x14 }
  - { offsetInCU: 0x44403, offset: 0x44403, size: 0x8, addend: 0x0, symName: __ZSt11__addressofINSt8__detail10_Hash_nodeISt4pairIKiNSt7__debug13unordered_setINSt7__cxx1112basic_stringIcSt11char_traitsIcESaIcEEESt4hashISB_ESt8equal_toISB_ESaISB_EEEELb0EEEEPT_RSK_, symObjAddr: 0x1133C, symBinAddr: 0x1000151F8, symSize: 0x14 }
  - { offsetInCU: 0x4444E, offset: 0x4444E, size: 0x8, addend: 0x0, symName: __ZNSt4pairIKNSt7__cxx1112basic_stringIcSt11char_traitsIcESaIcEEEiEC1IJRS6_EJLm0EEJEJEEERSt5tupleIJDpT_EERSA_IJDpT1_EESt12_Index_tupleIJXspT0_EEESJ_IJXspT2_EEE, symObjAddr: 0x112D4, symBinAddr: 0x100015190, symSize: 0x54 }
  - { offsetInCU: 0x44456, offset: 0x44456, size: 0x8, addend: 0x0, symName: __ZSt11__addressofINSt8__detail10_Hash_nodeISt4pairIKiNSt7__debug6vectorINSt7__cxx1112basic_stringIcSt11char_traitsIcESaIcEEESaISB_EEEELb0EEEEPT_RSG_, symObjAddr: 0x11328, symBinAddr: 0x1000151E4, symSize: 0x14 }
  - { offsetInCU: 0x44447, offset: 0x44447, size: 0x8, addend: 0x0, symName: __ZNK9__gnu_cxx16__aligned_bufferISt4pairIKNSt7__cxx1112basic_stringIcSt11char_traitsIcESaIcEEEiEE7_M_addrEv, symObjAddr: 0x112C0, symBinAddr: 0x10001517C, symSize: 0x14 }
  - { offsetInCU: 0x4444F, offset: 0x4444F, size: 0x8, addend: 0x0, symName: __ZNSt4pairIKNSt7__cxx1112basic_stringIcSt11char_traitsIcESaIcEEEiEC1IJRS6_EJLm0EEJEJEEERSt5tupleIJDpT_EERSA_IJDpT1_EESt12_Index_tupleIJXspT0_EEESJ_IJXspT2_EEE, symObjAddr: 0x112D4, symBinAddr: 0x100015190, symSize: 0x54 }
  - { offsetInCU: 0x4455E, offset: 0x4455E, size: 0x8, addend: 0x0, symName: __ZSt11__addressofINSt8__detail10_Hash_nodeISt4pairIKNSt7__cxx1112basic_stringIcSt11char_traitsIcESaIcEEEiELb1EEEEPT_RSC_, symObjAddr: 0x112AC, symBinAddr: 0x100015168, symSize: 0x14 }
  - { offsetInCU: 0x44566, offset: 0x44566, size: 0x8, addend: 0x0, symName: __ZNK9__gnu_cxx16__aligned_bufferISt4pairIKNSt7__cxx1112basic_stringIcSt11char_traitsIcESaIcEEEiEE7_M_addrEv, symObjAddr: 0x112C0, symBinAddr: 0x10001517C, symSize: 0x14 }
  - { offsetInCU: 0x4451E, offset: 0x4451E, size: 0x8, addend: 0x0, symName: __ZSt13__copy_move_aILb0EPKiPiET1_T0_S4_S3_, symObjAddr: 0x1124C, symBinAddr: 0x100015108, symSize: 0x60 }
  - { offsetInCU: 0x44526, offset: 0x44526, size: 0x8, addend: 0x0, symName: __ZSt11__addressofINSt8__detail10_Hash_nodeISt4pairIKNSt7__cxx1112basic_stringIcSt11char_traitsIcESaIcEEEiELb1EEEEPT_RSC_, symObjAddr: 0x112AC, symBinAddr: 0x100015168, symSize: 0x14 }
  - { offsetInCU: 0x44595, offset: 0x44595, size: 0x8, addend: 0x0, symName: __ZSt12__miter_baseIPKiET_S2_, symObjAddr: 0x11238, symBinAddr: 0x1000150F4, symSize: 0x14 }
  - { offsetInCU: 0x4459D, offset: 0x4459D, size: 0x8, addend: 0x0, symName: __ZSt13__copy_move_aILb0EPKiPiET1_T0_S4_S3_, symObjAddr: 0x1124C, symBinAddr: 0x100015108, symSize: 0x60 }
  - { offsetInCU: 0x445A8, offset: 0x445A8, size: 0x8, addend: 0x0, symName: __ZN11__gnu_debug16_Error_formatter11_M_iteratorIPiEERS0_RKT_PKc, symObjAddr: 0x111A4, symBinAddr: 0x100015060, symSize: 0x94 }
  - { offsetInCU: 0x445B0, offset: 0x445B0, size: 0x8, addend: 0x0, symName: __ZSt12__miter_baseIPKiET_S2_, symObjAddr: 0x11238, symBinAddr: 0x1000150F4, symSize: 0x14 }
  - { offsetInCU: 0x44687, offset: 0x44687, size: 0x8, addend: 0x0, symName: __ZN11__gnu_debug13__can_advanceIPilEEbT_RKSt4pairIT0_NS_19_Distance_precisionEEi, symObjAddr: 0x11188, symBinAddr: 0x100015044, symSize: 0x1C }
  - { offsetInCU: 0x4468F, offset: 0x4468F, size: 0x8, addend: 0x0, symName: __ZN11__gnu_debug16_Error_formatter11_M_iteratorIPiEERS0_RKT_PKc, symObjAddr: 0x111A4, symBinAddr: 0x100015060, symSize: 0x94 }
  - { offsetInCU: 0x44680, offset: 0x44680, size: 0x8, addend: 0x0, symName: __ZN11__gnu_debug16_Error_formatter11_M_iteratorIPKiEERS0_RKT_PKc, symObjAddr: 0x110F4, symBinAddr: 0x100014FB0, symSize: 0x94 }
  - { offsetInCU: 0x44688, offset: 0x44688, size: 0x8, addend: 0x0, symName: __ZN11__gnu_debug13__can_advanceIPilEEbT_RKSt4pairIT0_NS_19_Distance_precisionEEi, symObjAddr: 0x11188, symBinAddr: 0x100015044, symSize: 0x1C }
  - { offsetInCU: 0x44776, offset: 0x44776, size: 0x8, addend: 0x0, symName: __ZN11__gnu_debug13__valid_rangeIPKiEEbT_S3_RNS_16_Distance_traitsIS3_NSt12__is_integerIS3_E6__typeEE6__typeE, symObjAddr: 0x110C4, symBinAddr: 0x100014F80, symSize: 0x30 }
  - { offsetInCU: 0x4477E, offset: 0x4477E, size: 0x8, addend: 0x0, symName: __ZN11__gnu_debug16_Error_formatter11_M_iteratorIPKiEERS0_RKT_PKc, symObjAddr: 0x110F4, symBinAddr: 0x100014FB0, symSize: 0x94 }
  - { offsetInCU: 0x447F9, offset: 0x447F9, size: 0x8, addend: 0x0, symName: __ZSt10_ConstructINSt7__cxx1112basic_stringIcSt11char_traitsIcESaIcEEEJRKPKcEEvPT_DpOT0_, symObjAddr: 0x11018, symBinAddr: 0x100014ED4, symSize: 0xAC }
  - { offsetInCU: 0x44801, offset: 0x44801, size: 0x8, addend: 0x0, symName: __ZN11__gnu_debug13__valid_rangeIPKiEEbT_S3_RNS_16_Distance_traitsIS3_NSt12__is_integerIS3_E6__typeEE6__typeE, symObjAddr: 0x110C4, symBinAddr: 0x100014F80, symSize: 0x30 }
  - { offsetInCU: 0x44959, offset: 0x44959, size: 0x8, addend: 0x0, symName: __ZNSt4pairIKiNSt7__debug6vectorINSt7__cxx1112basic_stringIcSt11char_traitsIcESaIcEEESaIS8_EEEEC1IJRS0_EJEEESt21piecewise_construct_tSt5tupleIJDpT_EESF_IJDpT0_EE, symObjAddr: 0x10FDC, symBinAddr: 0x100014E98, symSize: 0x3C }
  - { offsetInCU: 0x44961, offset: 0x44961, size: 0x8, addend: 0x0, symName: __ZSt10_ConstructINSt7__cxx1112basic_stringIcSt11char_traitsIcESaIcEEEJRKPKcEEvPT_DpOT0_, symObjAddr: 0x11018, symBinAddr: 0x100014ED4, symSize: 0xAC }
  - { offsetInCU: 0x44976, offset: 0x44976, size: 0x8, addend: 0x0, symName: __ZNSt11_Tuple_implILm0EJRKiEEC2EOS2_, symObjAddr: 0x10FB4, symBinAddr: 0x100014E70, symSize: 0x28 }
  - { offsetInCU: 0x4497E, offset: 0x4497E, size: 0x8, addend: 0x0, symName: __ZNSt4pairIKiNSt7__debug6vectorINSt7__cxx1112basic_stringIcSt11char_traitsIcESaIcEEESaIS8_EEEEC1IJRS0_EJEEESt21piecewise_construct_tSt5tupleIJDpT_EESF_IJDpT0_EE, symObjAddr: 0x10FDC, symBinAddr: 0x100014E98, symSize: 0x3C }
  - { offsetInCU: 0x44A82, offset: 0x44A82, size: 0x8, addend: 0x0, symName: __ZSt19__relocate_object_aINSt7__cxx1112basic_stringIcSt11char_traitsIcESaIcEEES5_SaIS5_EEvPT_PT0_RT1_, symObjAddr: 0x10EE4, symBinAddr: 0x100014DA0, symSize: 0xD0 }
  - { offsetInCU: 0x44A8A, offset: 0x44A8A, size: 0x8, addend: 0x0, symName: __ZNSt11_Tuple_implILm0EJRKiEEC2EOS2_, symObjAddr: 0x10FB4, symBinAddr: 0x100014E70, symSize: 0x28 }
  - { offsetInCU: 0x44B0B, offset: 0x44B0B, size: 0x8, addend: 0x0, symName: __ZNSt8__detail16_Hashtable_allocISaINS_10_Hash_nodeISt4pairIKiNSt7__debug6vectorINSt7__cxx1112basic_stringIcSt11char_traitsIcESaIcEEESaISB_EEEELb0EEEEE19_M_allocate_bucketsEm, symObjAddr: 0x10E2C, symBinAddr: 0x100014CE8, symSize: 0xB8 }
  - { offsetInCU: 0x44B13, offset: 0x44B13, size: 0x8, addend: 0x0, symName: __ZSt19__relocate_object_aINSt7__cxx1112basic_stringIcSt11char_traitsIcESaIcEEES5_SaIS5_EEvPT_PT0_RT1_, symObjAddr: 0x10EE4, symBinAddr: 0x100014DA0, symSize: 0xD0 }
  - { offsetInCU: 0x44D61, offset: 0x44D61, size: 0x8, addend: 0x0, symName: __ZNSt4pairIKiNSt7__debug6vectorINSt7__cxx1112basic_stringIcSt11char_traitsIcESaIcEEESaIS8_EEEEC1IJOiEJEEESt21piecewise_construct_tSt5tupleIJDpT_EESF_IJDpT0_EE, symObjAddr: 0x10DF0, symBinAddr: 0x100014CAC, symSize: 0x3C }
  - { offsetInCU: 0x44D69, offset: 0x44D69, size: 0x8, addend: 0x0, symName: __ZNSt8__detail16_Hashtable_allocISaINS_10_Hash_nodeISt4pairIKiNSt7__debug6vectorINSt7__cxx1112basic_stringIcSt11char_traitsIcESaIcEEESaISB_EEEELb0EEEEE19_M_allocate_bucketsEm, symObjAddr: 0x10E2C, symBinAddr: 0x100014CE8, symSize: 0xB8 }
  - { offsetInCU: 0x44D49, offset: 0x44D49, size: 0x8, addend: 0x0, symName: __ZNK9__gnu_cxx16__aligned_bufferISt4pairIKiNSt7__debug6vectorINSt7__cxx1112basic_stringIcSt11char_traitsIcESaIcEEESaISA_EEEEE6_M_ptrEv, symObjAddr: 0x10DD4, symBinAddr: 0x100014C90, symSize: 0x1C }
  - { offsetInCU: 0x44D51, offset: 0x44D51, size: 0x8, addend: 0x0, symName: __ZNSt4pairIKiNSt7__debug6vectorINSt7__cxx1112basic_stringIcSt11char_traitsIcESaIcEEESaIS8_EEEEC1IJOiEJEEESt21piecewise_construct_tSt5tupleIJDpT_EESF_IJDpT0_EE, symObjAddr: 0x10DF0, symBinAddr: 0x100014CAC, symSize: 0x3C }
  - { offsetInCU: 0x44D7A, offset: 0x44D7A, size: 0x8, addend: 0x0, symName: __ZNSt8__detail15_Hashtable_baseINSt7__cxx1112basic_stringIcSt11char_traitsIcESaIcEEES6_NS_9_IdentityESt8equal_toIS6_ESt4hashIS6_ENS_18_Mod_range_hashingENS_20_Default_ranged_hashENS_17_Hashtable_traitsILb1ELb1ELb1EEEE9_S_equalsEmRKNS_21_Hash_node_code_cacheILb1EEE, symObjAddr: 0x10DA8, symBinAddr: 0x100014C64, symSize: 0x2C }
  - { offsetInCU: 0x44D82, offset: 0x44D82, size: 0x8, addend: 0x0, symName: __ZNK9__gnu_cxx16__aligned_bufferISt4pairIKiNSt7__debug6vectorINSt7__cxx1112basic_stringIcSt11char_traitsIcESaIcEEESaISA_EEEEE6_M_ptrEv, symObjAddr: 0x10DD4, symBinAddr: 0x100014C90, symSize: 0x1C }
  - { offsetInCU: 0x44DC3, offset: 0x44DC3, size: 0x8, addend: 0x0, symName: __ZNK9__gnu_cxx16__aligned_bufferINSt7__cxx1112basic_stringIcSt11char_traitsIcESaIcEEEE6_M_ptrEv, symObjAddr: 0x10D8C, symBinAddr: 0x100014C48, symSize: 0x1C }
  - { offsetInCU: 0x44DCB, offset: 0x44DCB, size: 0x8, addend: 0x0, symName: __ZNSt8__detail15_Hashtable_baseINSt7__cxx1112basic_stringIcSt11char_traitsIcESaIcEEES6_NS_9_IdentityESt8equal_toIS6_ESt4hashIS6_ENS_18_Mod_range_hashingENS_20_Default_ranged_hashENS_17_Hashtable_traitsILb1ELb1ELb1EEEE9_S_equalsEmRKNS_21_Hash_node_code_cacheILb1EEE, symObjAddr: 0x10DA8, symBinAddr: 0x100014C64, symSize: 0x2C }
  - { offsetInCU: 0x44E2A, offset: 0x44E2A, size: 0x8, addend: 0x0, symName: __ZNSt10_HashtableINSt7__cxx1112basic_stringIcSt11char_traitsIcESaIcEEES5_SaIS5_ENSt8__detail9_IdentityESt8equal_toIS5_ESt4hashIS5_ENS7_18_Mod_range_hashingENS7_20_Default_ranged_hashENS7_20_Prime_rehash_policyENS7_17_Hashtable_traitsILb1ELb1ELb1EEEE21_M_insert_unique_nodeEmmPNS7_10_Hash_nodeIS5_Lb1EEEm, symObjAddr: 0x10CA4, symBinAddr: 0x100014B60, symSize: 0xE8 }
  - { offsetInCU: 0x44E32, offset: 0x44E32, size: 0x8, addend: 0x0, symName: __ZNK9__gnu_cxx16__aligned_bufferINSt7__cxx1112basic_stringIcSt11char_traitsIcESaIcEEEE6_M_ptrEv, symObjAddr: 0x10D8C, symBinAddr: 0x100014C48, symSize: 0x1C }
  - { offsetInCU: 0x45012, offset: 0x45012, size: 0x8, addend: 0x0, symName: __ZNSt10_HashtableINSt7__cxx1112basic_stringIcSt11char_traitsIcESaIcEEES5_SaIS5_ENSt8__detail9_IdentityESt8equal_toIS5_ESt4hashIS5_ENS7_18_Mod_range_hashingENS7_20_Default_ranged_hashENS7_20_Prime_rehash_policyENS7_17_Hashtable_traitsILb1ELb1ELb1EEEE12_Scoped_nodeD1Ev, symObjAddr: 0x10C60, symBinAddr: 0x100014B1C, symSize: 0x44 }
  - { offsetInCU: 0x4501A, offset: 0x4501A, size: 0x8, addend: 0x0, symName: __ZNSt10_HashtableINSt7__cxx1112basic_stringIcSt11char_traitsIcESaIcEEES5_SaIS5_ENSt8__detail9_IdentityESt8equal_toIS5_ESt4hashIS5_ENS7_18_Mod_range_hashingENS7_20_Default_ranged_hashENS7_20_Prime_rehash_policyENS7_17_Hashtable_traitsILb1ELb1ELb1EEEE21_M_insert_unique_nodeEmmPNS7_10_Hash_nodeIS5_Lb1EEEm, symObjAddr: 0x10CA4, symBinAddr: 0x100014B60, symSize: 0xE8 }
  - { offsetInCU: 0x450BC, offset: 0x450BC, size: 0x8, addend: 0x0, symName: __ZNSt10_HashtableINSt7__cxx1112basic_stringIcSt11char_traitsIcESaIcEEES5_SaIS5_ENSt8__detail9_IdentityESt8equal_toIS5_ESt4hashIS5_ENS7_18_Mod_range_hashingENS7_20_Default_ranged_hashENS7_20_Prime_rehash_policyENS7_17_Hashtable_traitsILb1ELb1ELb1EEEE12_Scoped_nodeC1EPNS7_10_Hash_nodeIS5_Lb1EEEPNS7_16_Hashtable_allocISaISL_EEE, symObjAddr: 0x10C2C, symBinAddr: 0x100014AE8, symSize: 0x34 }
  - { offsetInCU: 0x450C4, offset: 0x450C4, size: 0x8, addend: 0x0, symName: __ZNSt10_HashtableINSt7__cxx1112basic_stringIcSt11char_traitsIcESaIcEEES5_SaIS5_ENSt8__detail9_IdentityESt8equal_toIS5_ESt4hashIS5_ENS7_18_Mod_range_hashingENS7_20_Default_ranged_hashENS7_20_Prime_rehash_policyENS7_17_Hashtable_traitsILb1ELb1ELb1EEEE12_Scoped_nodeD1Ev, symObjAddr: 0x10C60, symBinAddr: 0x100014B1C, symSize: 0x44 }
  - { offsetInCU: 0x44FD3, offset: 0x44FD3, size: 0x8, addend: 0x0, symName: __ZNSt8__detail12_NodeBuilderINS_9_IdentityEE8_S_buildIRKNSt7__cxx1112basic_stringIcSt11char_traitsIcESaIcEEESB_NS_10_AllocNodeISaINS_10_Hash_nodeIS9_Lb1EEEEEEEEPNT1_11__node_typeEOT_OT0_RKSH_, symObjAddr: 0x10BFC, symBinAddr: 0x100014AB8, symSize: 0x30 }
  - { offsetInCU: 0x44FDB, offset: 0x44FDB, size: 0x8, addend: 0x0, symName: __ZNSt10_HashtableINSt7__cxx1112basic_stringIcSt11char_traitsIcESaIcEEES5_SaIS5_ENSt8__detail9_IdentityESt8equal_toIS5_ESt4hashIS5_ENS7_18_Mod_range_hashingENS7_20_Default_ranged_hashENS7_20_Prime_rehash_policyENS7_17_Hashtable_traitsILb1ELb1ELb1EEEE12_Scoped_nodeC1EPNS7_10_Hash_nodeIS5_Lb1EEEPNS7_16_Hashtable_allocISaISL_EEE, symObjAddr: 0x10C2C, symBinAddr: 0x100014AE8, symSize: 0x34 }
  - { offsetInCU: 0x45124, offset: 0x45124, size: 0x8, addend: 0x0, symName: __ZNSt4pairINSt8__detail14_Node_iteratorINSt7__cxx1112basic_stringIcSt11char_traitsIcESaIcEEELb1ELb1EEEbEC1IS8_bLb1EEEOT_OT0_, symObjAddr: 0x10BB0, symBinAddr: 0x100014A6C, symSize: 0x4C }
  - { offsetInCU: 0x4512C, offset: 0x4512C, size: 0x8, addend: 0x0, symName: __ZNSt8__detail12_NodeBuilderINS_9_IdentityEE8_S_buildIRKNSt7__cxx1112basic_stringIcSt11char_traitsIcESaIcEEESB_NS_10_AllocNodeISaINS_10_Hash_nodeIS9_Lb1EEEEEEEEPNT1_11__node_typeEOT_OT0_RKSH_, symObjAddr: 0x10BFC, symBinAddr: 0x100014AB8, symSize: 0x30 }
  - { offsetInCU: 0x4510B, offset: 0x4510B, size: 0x8, addend: 0x0, symName: __ZNKSt10_HashtableINSt7__cxx1112basic_stringIcSt11char_traitsIcESaIcEEES5_SaIS5_ENSt8__detail9_IdentityESt8equal_toIS5_ESt4hashIS5_ENS7_18_Mod_range_hashingENS7_20_Default_ranged_hashENS7_20_Prime_rehash_policyENS7_17_Hashtable_traitsILb1ELb1ELb1EEEE15_M_find_node_trIS5_EEPNS7_10_Hash_nodeIS5_Lb1EEEmRKT_m, symObjAddr: 0x10B5C, symBinAddr: 0x100014A18, symSize: 0x54 }
  - { offsetInCU: 0x45113, offset: 0x45113, size: 0x8, addend: 0x0, symName: __ZNSt4pairINSt8__detail14_Node_iteratorINSt7__cxx1112basic_stringIcSt11char_traitsIcESaIcEEELb1ELb1EEEbEC1IS8_bLb1EEEOT_OT0_, symObjAddr: 0x10BB0, symBinAddr: 0x100014A6C, symSize: 0x4C }
  - { offsetInCU: 0x4519D, offset: 0x4519D, size: 0x8, addend: 0x0, symName: __ZNKSt8__detail15_Hash_code_baseINSt7__cxx1112basic_stringIcSt11char_traitsIcESaIcEEES6_NS_9_IdentityESt4hashIS6_ENS_18_Mod_range_hashingENS_20_Default_ranged_hashELb1EE15_M_hash_code_trIS6_EEmRKT_, symObjAddr: 0x10B34, symBinAddr: 0x1000149F0, symSize: 0x28 }
  - { offsetInCU: 0x451A5, offset: 0x451A5, size: 0x8, addend: 0x0, symName: __ZNKSt10_HashtableINSt7__cxx1112basic_stringIcSt11char_traitsIcESaIcEEES5_SaIS5_ENSt8__detail9_IdentityESt8equal_toIS5_ESt4hashIS5_ENS7_18_Mod_range_hashingENS7_20_Default_ranged_hashENS7_20_Prime_rehash_policyENS7_17_Hashtable_traitsILb1ELb1ELb1EEEE15_M_find_node_trIS5_EEPNS7_10_Hash_nodeIS5_Lb1EEEmRKT_m, symObjAddr: 0x10B5C, symBinAddr: 0x100014A18, symSize: 0x54 }
  - { offsetInCU: 0x452C7, offset: 0x452C7, size: 0x8, addend: 0x0, symName: __ZNSt4pairINSt8__detail14_Node_iteratorINSt7__cxx1112basic_stringIcSt11char_traitsIcESaIcEEELb1ELb1EEEbEC1IRS8_bLb1EEEOT_OT0_, symObjAddr: 0x10AE8, symBinAddr: 0x1000149A4, symSize: 0x4C }
  - { offsetInCU: 0x452CF, offset: 0x452CF, size: 0x8, addend: 0x0, symName: __ZNKSt8__detail15_Hash_code_baseINSt7__cxx1112basic_stringIcSt11char_traitsIcESaIcEEES6_NS_9_IdentityESt4hashIS6_ENS_18_Mod_range_hashingENS_20_Default_ranged_hashELb1EE15_M_hash_code_trIS6_EEmRKT_, symObjAddr: 0x10B34, symBinAddr: 0x1000149F0, symSize: 0x28 }
  - { offsetInCU: 0x452AD, offset: 0x452AD, size: 0x8, addend: 0x0, symName: __ZNKSt8__detail15_Hashtable_baseINSt7__cxx1112basic_stringIcSt11char_traitsIcESaIcEEES6_NS_9_IdentityESt8equal_toIS6_ESt4hashIS6_ENS_18_Mod_range_hashingENS_20_Default_ranged_hashENS_17_Hashtable_traitsILb1ELb1ELb1EEEE16_M_key_equals_trIS6_EEbRKT_RKNS_16_Hash_node_valueIS6_Lb1EEE, symObjAddr: 0x10A90, symBinAddr: 0x10001494C, symSize: 0x58 }
  - { offsetInCU: 0x452B5, offset: 0x452B5, size: 0x8, addend: 0x0, symName: __ZNSt4pairINSt8__detail14_Node_iteratorINSt7__cxx1112basic_stringIcSt11char_traitsIcESaIcEEELb1ELb1EEEbEC1IRS8_bLb1EEEOT_OT0_, symObjAddr: 0x10AE8, symBinAddr: 0x1000149A4, symSize: 0x4C }
  - { offsetInCU: 0x4546B, offset: 0x4546B, size: 0x8, addend: 0x0, symName: __ZNSt8__detail20_Local_iterator_baseINSt7__cxx1112basic_stringIcSt11char_traitsIcESaIcEEES6_NS_9_IdentityESt4hashIS6_ENS_18_Mod_range_hashingENS_20_Default_ranged_hashELb1EEC2ERKNS_15_Hash_code_baseIS6_S6_S7_S9_SA_SB_Lb1EEEPNS_10_Hash_nodeIS6_Lb1EEEmm, symObjAddr: 0x10A44, symBinAddr: 0x100014900, symSize: 0x4C }
  - { offsetInCU: 0x45473, offset: 0x45473, size: 0x8, addend: 0x0, symName: __ZNKSt8__detail15_Hashtable_baseINSt7__cxx1112basic_stringIcSt11char_traitsIcESaIcEEES6_NS_9_IdentityESt8equal_toIS6_ESt4hashIS6_ENS_18_Mod_range_hashingENS_20_Default_ranged_hashENS_17_Hashtable_traitsILb1ELb1ELb1EEEE16_M_key_equals_trIS6_EEbRKT_RKNS_16_Hash_node_valueIS6_Lb1EEE, symObjAddr: 0x10A90, symBinAddr: 0x10001494C, symSize: 0x58 }
  - { offsetInCU: 0x45490, offset: 0x45490, size: 0x8, addend: 0x0, symName: __ZSt9addressofINSt8__detail10_Hash_nodeINSt7__cxx1112basic_stringIcSt11char_traitsIcESaIcEEELb1EEEEPT_RS9_, symObjAddr: 0x10A28, symBinAddr: 0x1000148E4, symSize: 0x1C }
  - { offsetInCU: 0x45498, offset: 0x45498, size: 0x8, addend: 0x0, symName: __ZNSt8__detail20_Local_iterator_baseINSt7__cxx1112basic_stringIcSt11char_traitsIcESaIcEEES6_NS_9_IdentityESt4hashIS6_ENS_18_Mod_range_hashingENS_20_Default_ranged_hashELb1EEC2ERKNS_15_Hash_code_baseIS6_S6_S7_S9_SA_SB_Lb1EEEPNS_10_Hash_nodeIS6_Lb1EEEmm, symObjAddr: 0x10A44, symBinAddr: 0x100014900, symSize: 0x4C }
  - { offsetInCU: 0x4541F, offset: 0x4541F, size: 0x8, addend: 0x0, symName: __ZNSt8__detail16_Hashtable_allocISaINS_10_Hash_nodeISt4pairIKiNSt7__debug13unordered_setINSt7__cxx1112basic_stringIcSt11char_traitsIcESaIcEEESt4hashISB_ESt8equal_toISB_ESaISB_EEEELb0EEEEE19_M_allocate_bucketsEm, symObjAddr: 0x10970, symBinAddr: 0x10001482C, symSize: 0xB8 }
  - { offsetInCU: 0x45427, offset: 0x45427, size: 0x8, addend: 0x0, symName: __ZSt9addressofINSt8__detail10_Hash_nodeINSt7__cxx1112basic_stringIcSt11char_traitsIcESaIcEEELb1EEEEPT_RS9_, symObjAddr: 0x10A28, symBinAddr: 0x1000148E4, symSize: 0x1C }
  - { offsetInCU: 0x45699, offset: 0x45699, size: 0x8, addend: 0x0, symName: __ZNSt4pairIKiNSt7__debug13unordered_setINSt7__cxx1112basic_stringIcSt11char_traitsIcESaIcEEESt4hashIS8_ESt8equal_toIS8_ESaIS8_EEEEC1IJOiEJEEESt21piecewise_construct_tSt5tupleIJDpT_EESJ_IJDpT0_EE, symObjAddr: 0x10934, symBinAddr: 0x1000147F0, symSize: 0x3C }
  - { offsetInCU: 0x456A1, offset: 0x456A1, size: 0x8, addend: 0x0, symName: __ZNSt8__detail16_Hashtable_allocISaINS_10_Hash_nodeISt4pairIKiNSt7__debug13unordered_setINSt7__cxx1112basic_stringIcSt11char_traitsIcESaIcEEESt4hashISB_ESt8equal_toISB_ESaISB_EEEELb0EEEEE19_M_allocate_bucketsEm, symObjAddr: 0x10970, symBinAddr: 0x10001482C, symSize: 0xB8 }
  - { offsetInCU: 0x45693, offset: 0x45693, size: 0x8, addend: 0x0, symName: __ZNSt11_Tuple_implILm0EJOiEEC2EOS1_, symObjAddr: 0x1090C, symBinAddr: 0x1000147C8, symSize: 0x28 }
  - { offsetInCU: 0x4569B, offset: 0x4569B, size: 0x8, addend: 0x0, symName: __ZNSt4pairIKiNSt7__debug13unordered_setINSt7__cxx1112basic_stringIcSt11char_traitsIcESaIcEEESt4hashIS8_ESt8equal_toIS8_ESaIS8_EEEEC1IJOiEJEEESt21piecewise_construct_tSt5tupleIJDpT_EESJ_IJDpT0_EE, symObjAddr: 0x10934, symBinAddr: 0x1000147F0, symSize: 0x3C }
  - { offsetInCU: 0x456C7, offset: 0x456C7, size: 0x8, addend: 0x0, symName: __ZNK9__gnu_cxx16__aligned_bufferISt4pairIKiNSt7__debug13unordered_setINSt7__cxx1112basic_stringIcSt11char_traitsIcESaIcEEESt4hashISA_ESt8equal_toISA_ESaISA_EEEEE6_M_ptrEv, symObjAddr: 0x108F0, symBinAddr: 0x1000147AC, symSize: 0x1C }
  - { offsetInCU: 0x456CF, offset: 0x456CF, size: 0x8, addend: 0x0, symName: __ZNSt11_Tuple_implILm0EJOiEEC2EOS1_, symObjAddr: 0x1090C, symBinAddr: 0x1000147C8, symSize: 0x28 }
  - { offsetInCU: 0x45836, offset: 0x45836, size: 0x8, addend: 0x0, symName: __ZSt9addressofINSt8__detail10_Hash_nodeISt4pairIKiNSt7__debug13unordered_setINSt7__cxx1112basic_stringIcSt11char_traitsIcESaIcEEESt4hashISB_ESt8equal_toISB_ESaISB_EEEELb0EEEEPT_RSK_, symObjAddr: 0x108D4, symBinAddr: 0x100014790, symSize: 0x1C }
  - { offsetInCU: 0x4583E, offset: 0x4583E, size: 0x8, addend: 0x0, symName: __ZNK9__gnu_cxx16__aligned_bufferISt4pairIKiNSt7__debug13unordered_setINSt7__cxx1112basic_stringIcSt11char_traitsIcESaIcEEESt4hashISA_ESt8equal_toISA_ESaISA_EEEEE6_M_ptrEv, symObjAddr: 0x108F0, symBinAddr: 0x1000147AC, symSize: 0x1C }
  - { offsetInCU: 0x45857, offset: 0x45857, size: 0x8, addend: 0x0, symName: __ZSt9addressofINSt8__detail10_Hash_nodeISt4pairIKiNSt7__debug6vectorINSt7__cxx1112basic_stringIcSt11char_traitsIcESaIcEEESaISB_EEEELb0EEEEPT_RSG_, symObjAddr: 0x108B8, symBinAddr: 0x100014774, symSize: 0x1C }
  - { offsetInCU: 0x4585F, offset: 0x4585F, size: 0x8, addend: 0x0, symName: __ZSt9addressofINSt8__detail10_Hash_nodeISt4pairIKiNSt7__debug13unordered_setINSt7__cxx1112basic_stringIcSt11char_traitsIcESaIcEEESt4hashISB_ESt8equal_toISB_ESaISB_EEEELb0EEEEPT_RSK_, symObjAddr: 0x108D4, symBinAddr: 0x100014790, symSize: 0x1C }
  - { offsetInCU: 0x45790, offset: 0x45790, size: 0x8, addend: 0x0, symName: __ZNSt8__detail16_Hashtable_allocISaINS_10_Hash_nodeISt4pairIKNSt7__cxx1112basic_stringIcSt11char_traitsIcESaIcEEEiELb1EEEEE19_M_allocate_bucketsEm, symObjAddr: 0x10800, symBinAddr: 0x1000146BC, symSize: 0xB8 }
  - { offsetInCU: 0x45798, offset: 0x45798, size: 0x8, addend: 0x0, symName: __ZSt9addressofINSt8__detail10_Hash_nodeISt4pairIKiNSt7__debug6vectorINSt7__cxx1112basic_stringIcSt11char_traitsIcESaIcEEESaISB_EEEELb0EEEEPT_RSG_, symObjAddr: 0x108B8, symBinAddr: 0x100014774, symSize: 0x1C }
  - { offsetInCU: 0x459CC, offset: 0x459CC, size: 0x8, addend: 0x0, symName: __ZNSt4pairIKNSt7__cxx1112basic_stringIcSt11char_traitsIcESaIcEEEiEC1IJRS6_EJEEESt21piecewise_construct_tSt5tupleIJDpT_EESB_IJDpT0_EE, symObjAddr: 0x107C4, symBinAddr: 0x100014680, symSize: 0x3C }
  - { offsetInCU: 0x459D4, offset: 0x459D4, size: 0x8, addend: 0x0, symName: __ZNSt8__detail16_Hashtable_allocISaINS_10_Hash_nodeISt4pairIKNSt7__cxx1112basic_stringIcSt11char_traitsIcESaIcEEEiELb1EEEEE19_M_allocate_bucketsEm, symObjAddr: 0x10800, symBinAddr: 0x1000146BC, symSize: 0xB8 }
  - { offsetInCU: 0x45A38, offset: 0x45A38, size: 0x8, addend: 0x0, symName: __ZNSt11_Tuple_implILm0EJRKNSt7__cxx1112basic_stringIcSt11char_traitsIcESaIcEEEEEC2EOS8_, symObjAddr: 0x1079C, symBinAddr: 0x100014658, symSize: 0x28 }
  - { offsetInCU: 0x45A40, offset: 0x45A40, size: 0x8, addend: 0x0, symName: __ZNSt4pairIKNSt7__cxx1112basic_stringIcSt11char_traitsIcESaIcEEEiEC1IJRS6_EJEEESt21piecewise_construct_tSt5tupleIJDpT_EESB_IJDpT0_EE, symObjAddr: 0x107C4, symBinAddr: 0x100014680, symSize: 0x3C }
  - { offsetInCU: 0x45A38, offset: 0x45A38, size: 0x8, addend: 0x0, symName: __ZNK9__gnu_cxx16__aligned_bufferISt4pairIKNSt7__cxx1112basic_stringIcSt11char_traitsIcESaIcEEEiEE6_M_ptrEv, symObjAddr: 0x10780, symBinAddr: 0x10001463C, symSize: 0x1C }
  - { offsetInCU: 0x45A40, offset: 0x45A40, size: 0x8, addend: 0x0, symName: __ZNSt11_Tuple_implILm0EJRKNSt7__cxx1112basic_stringIcSt11char_traitsIcESaIcEEEEEC2EOS8_, symObjAddr: 0x1079C, symBinAddr: 0x100014658, symSize: 0x28 }
  - { offsetInCU: 0x45AD4, offset: 0x45AD4, size: 0x8, addend: 0x0, symName: __ZSt11__addressofIPNSt8__detail15_Hash_node_baseEEPT_RS3_, symObjAddr: 0x1076C, symBinAddr: 0x100014628, symSize: 0x14 }
  - { offsetInCU: 0x45ADC, offset: 0x45ADC, size: 0x8, addend: 0x0, symName: __ZNK9__gnu_cxx16__aligned_bufferISt4pairIKNSt7__cxx1112basic_stringIcSt11char_traitsIcESaIcEEEiEE6_M_ptrEv, symObjAddr: 0x10780, symBinAddr: 0x10001463C, symSize: 0x1C }
  - { offsetInCU: 0x45B93, offset: 0x45B93, size: 0x8, addend: 0x0, symName: __ZSt9addressofINSt8__detail10_Hash_nodeISt4pairIKNSt7__cxx1112basic_stringIcSt11char_traitsIcESaIcEEEiELb1EEEEPT_RSC_, symObjAddr: 0x10750, symBinAddr: 0x10001460C, symSize: 0x1C }
  - { offsetInCU: 0x45B9B, offset: 0x45B9B, size: 0x8, addend: 0x0, symName: __ZSt11__addressofIPNSt8__detail15_Hash_node_baseEEPT_RS3_, symObjAddr: 0x1076C, symBinAddr: 0x100014628, symSize: 0x14 }
  - { offsetInCU: 0x45B39, offset: 0x45B39, size: 0x8, addend: 0x0, symName: __ZSt4copyIPKiPiET0_T_S4_S3_, symObjAddr: 0x10548, symBinAddr: 0x100014404, symSize: 0x208 }
  - { offsetInCU: 0x45B41, offset: 0x45B41, size: 0x8, addend: 0x0, symName: __ZSt9addressofINSt8__detail10_Hash_nodeISt4pairIKNSt7__cxx1112basic_stringIcSt11char_traitsIcESaIcEEEiELb1EEEEPT_RSC_, symObjAddr: 0x10750, symBinAddr: 0x10001460C, symSize: 0x1C }
  - { offsetInCU: 0x45CC4, offset: 0x45CC4, size: 0x8, addend: 0x0, symName: __ZSt16__do_uninit_copyIPKPKcPNSt7__cxx1112basic_stringIcSt11char_traitsIcESaIcEEEET0_T_SC_SB_, symObjAddr: 0x104B4, symBinAddr: 0x100014370, symSize: 0x94 }
  - { offsetInCU: 0x45CCC, offset: 0x45CCC, size: 0x8, addend: 0x0, symName: __ZSt4copyIPKiPiET0_T_S4_S3_, symObjAddr: 0x10548, symBinAddr: 0x100014404, symSize: 0x208 }
  - { offsetInCU: 0x45DB1, offset: 0x45DB1, size: 0x8, addend: 0x0, symName: __ZNSt5tupleIJRKiEEC1EOS2_, symObjAddr: 0x1048C, symBinAddr: 0x100014348, symSize: 0x28 }
  - { offsetInCU: 0x45DB9, offset: 0x45DB9, size: 0x8, addend: 0x0, symName: __ZSt16__do_uninit_copyIPKPKcPNSt7__cxx1112basic_stringIcSt11char_traitsIcESaIcEEEET0_T_SC_SB_, symObjAddr: 0x104B4, symBinAddr: 0x100014370, symSize: 0x94 }
  - { offsetInCU: 0x45EC7, offset: 0x45EC7, size: 0x8, addend: 0x0, symName: __ZSt14__relocate_a_1IPNSt7__cxx1112basic_stringIcSt11char_traitsIcESaIcEEES6_SaIS5_EET0_T_S9_S8_RT1_, symObjAddr: 0x10408, symBinAddr: 0x1000142C4, symSize: 0x84 }
  - { offsetInCU: 0x45ECF, offset: 0x45ECF, size: 0x8, addend: 0x0, symName: __ZNSt5tupleIJRKiEEC1EOS2_, symObjAddr: 0x1048C, symBinAddr: 0x100014348, symSize: 0x28 }
  - { offsetInCU: 0x45F14, offset: 0x45F14, size: 0x8, addend: 0x0, symName: __ZSt12__niter_baseIPNSt7__cxx1112basic_stringIcSt11char_traitsIcESaIcEEEET_S7_, symObjAddr: 0x103F4, symBinAddr: 0x1000142B0, symSize: 0x14 }
  - { offsetInCU: 0x45F1C, offset: 0x45F1C, size: 0x8, addend: 0x0, symName: __ZSt14__relocate_a_1IPNSt7__cxx1112basic_stringIcSt11char_traitsIcESaIcEEES6_SaIS5_EET0_T_S9_S8_RT1_, symObjAddr: 0x10408, symBinAddr: 0x1000142C4, symSize: 0x84 }
  - { offsetInCU: 0x45EDE, offset: 0x45EDE, size: 0x8, addend: 0x0, symName: __ZNSt10_HashtableIiSt4pairIKiNSt7__debug6vectorINSt7__cxx1112basic_stringIcSt11char_traitsIcESaIcEEESaIS9_EEEESaISC_ENSt8__detail10_Select1stESt8equal_toIiESt4hashIiENSE_18_Mod_range_hashingENSE_20_Default_ranged_hashENSE_20_Prime_rehash_policyENSE_17_Hashtable_traitsILb0ELb0ELb1EEEE19_M_allocate_bucketsEm, symObjAddr: 0x1039C, symBinAddr: 0x100014258, symSize: 0x58 }
  - { offsetInCU: 0x45EE6, offset: 0x45EE6, size: 0x8, addend: 0x0, symName: __ZSt12__niter_baseIPNSt7__cxx1112basic_stringIcSt11char_traitsIcESaIcEEEET_S7_, symObjAddr: 0x103F4, symBinAddr: 0x1000142B0, symSize: 0x14 }
  - { offsetInCU: 0x45F24, offset: 0x45F24, size: 0x8, addend: 0x0, symName: __ZNSt15__new_allocatorINSt8__detail10_Hash_nodeISt4pairIKiNSt7__debug6vectorINSt7__cxx1112basic_stringIcSt11char_traitsIcESaIcEEESaISB_EEEELb0EEEE10deallocateEPSF_m, symObjAddr: 0x10360, symBinAddr: 0x10001421C, symSize: 0x3C }
  - { offsetInCU: 0x45F2C, offset: 0x45F2C, size: 0x8, addend: 0x0, symName: __ZNSt10_HashtableIiSt4pairIKiNSt7__debug6vectorINSt7__cxx1112basic_stringIcSt11char_traitsIcESaIcEEESaIS9_EEEESaISC_ENSt8__detail10_Select1stESt8equal_toIiESt4hashIiENSE_18_Mod_range_hashingENSE_20_Default_ranged_hashENSE_20_Prime_rehash_policyENSE_17_Hashtable_traitsILb0ELb0ELb1EEEE19_M_allocate_bucketsEm, symObjAddr: 0x1039C, symBinAddr: 0x100014258, symSize: 0x58 }
  - { offsetInCU: 0x45FF8, offset: 0x45FF8, size: 0x8, addend: 0x0, symName: __ZNSt15__new_allocatorINSt8__detail10_Hash_nodeISt4pairIKiNSt7__debug6vectorINSt7__cxx1112basic_stringIcSt11char_traitsIcESaIcEEESaISB_EEEELb0EEEE8allocateEmPKv, symObjAddr: 0x102C0, symBinAddr: 0x10001417C, symSize: 0xA0 }
  - { offsetInCU: 0x46000, offset: 0x46000, size: 0x8, addend: 0x0, symName: __ZNSt15__new_allocatorINSt8__detail10_Hash_nodeISt4pairIKiNSt7__debug6vectorINSt7__cxx1112basic_stringIcSt11char_traitsIcESaIcEEESaISB_EEEELb0EEEE10deallocateEPSF_m, symObjAddr: 0x10360, symBinAddr: 0x10001421C, symSize: 0x3C }
  - { offsetInCU: 0x4608B, offset: 0x4608B, size: 0x8, addend: 0x0, symName: __ZN9__gnu_cxx16__aligned_bufferISt4pairIKiNSt7__debug6vectorINSt7__cxx1112basic_stringIcSt11char_traitsIcESaIcEEESaISA_EEEEE7_M_addrEv, symObjAddr: 0x102AC, symBinAddr: 0x100014168, symSize: 0x14 }
  - { offsetInCU: 0x46093, offset: 0x46093, size: 0x8, addend: 0x0, symName: __ZNSt15__new_allocatorINSt8__detail10_Hash_nodeISt4pairIKiNSt7__debug6vectorINSt7__cxx1112basic_stringIcSt11char_traitsIcESaIcEEESaISB_EEEELb0EEEE8allocateEmPKv, symObjAddr: 0x102C0, symBinAddr: 0x10001417C, symSize: 0xA0 }
  - { offsetInCU: 0x460BF, offset: 0x460BF, size: 0x8, addend: 0x0, symName: __ZNKSt8__detail15_Hash_code_baseIiSt4pairIKiNSt7__debug6vectorINSt7__cxx1112basic_stringIcSt11char_traitsIcESaIcEEESaISA_EEEENS_10_Select1stESt4hashIiENS_18_Mod_range_hashingENS_20_Default_ranged_hashELb0EE15_M_bucket_indexERKNS_16_Hash_node_valueISD_Lb0EEEm, symObjAddr: 0x10260, symBinAddr: 0x10001411C, symSize: 0x4C }
  - { offsetInCU: 0x460C7, offset: 0x460C7, size: 0x8, addend: 0x0, symName: __ZN9__gnu_cxx16__aligned_bufferISt4pairIKiNSt7__debug6vectorINSt7__cxx1112basic_stringIcSt11char_traitsIcESaIcEEESaISA_EEEEE7_M_addrEv, symObjAddr: 0x102AC, symBinAddr: 0x100014168, symSize: 0x14 }
  - { offsetInCU: 0x4611A, offset: 0x4611A, size: 0x8, addend: 0x0, symName: __ZNSt8__detail15_Hashtable_baseIiSt4pairIKiNSt7__debug6vectorINSt7__cxx1112basic_stringIcSt11char_traitsIcESaIcEEESaISA_EEEENS_10_Select1stESt8equal_toIiESt4hashIiENS_18_Mod_range_hashingENS_20_Default_ranged_hashENS_17_Hashtable_traitsILb0ELb0ELb1EEEE9_S_equalsEmRKNS_21_Hash_node_code_cacheILb0EEE, symObjAddr: 0x10248, symBinAddr: 0x100014104, symSize: 0x18 }
  - { offsetInCU: 0x46122, offset: 0x46122, size: 0x8, addend: 0x0, symName: __ZNKSt8__detail15_Hash_code_baseIiSt4pairIKiNSt7__debug6vectorINSt7__cxx1112basic_stringIcSt11char_traitsIcESaIcEEESaISA_EEEENS_10_Select1stESt4hashIiENS_18_Mod_range_hashingENS_20_Default_ranged_hashELb0EE15_M_bucket_indexERKNS_16_Hash_node_valueISD_Lb0EEEm, symObjAddr: 0x10260, symBinAddr: 0x10001411C, symSize: 0x4C }
  - { offsetInCU: 0x46246, offset: 0x46246, size: 0x8, addend: 0x0, symName: __ZSt7forwardIRKSt4pairIKiNSt7__debug6vectorINSt7__cxx1112basic_stringIcSt11char_traitsIcESaIcEEESaIS9_EEEEEOT_RNSt16remove_referenceISF_E4typeE, symObjAddr: 0x10234, symBinAddr: 0x1000140F0, symSize: 0x14 }
  - { offsetInCU: 0x4624E, offset: 0x4624E, size: 0x8, addend: 0x0, symName: __ZNSt8__detail15_Hashtable_baseIiSt4pairIKiNSt7__debug6vectorINSt7__cxx1112basic_stringIcSt11char_traitsIcESaIcEEESaISA_EEEENS_10_Select1stESt8equal_toIiESt4hashIiENS_18_Mod_range_hashingENS_20_Default_ranged_hashENS_17_Hashtable_traitsILb0ELb0ELb1EEEE9_S_equalsEmRKNS_21_Hash_node_code_cacheILb0EEE, symObjAddr: 0x10248, symBinAddr: 0x100014104, symSize: 0x18 }
  - { offsetInCU: 0x461A9, offset: 0x461A9, size: 0x8, addend: 0x0, symName: __ZNKSt8__detail21_Hash_node_value_baseISt4pairIKiNSt7__debug6vectorINSt7__cxx1112basic_stringIcSt11char_traitsIcESaIcEEESaISA_EEEEE9_M_valptrEv, symObjAddr: 0x10218, symBinAddr: 0x1000140D4, symSize: 0x1C }
  - { offsetInCU: 0x461B1, offset: 0x461B1, size: 0x8, addend: 0x0, symName: __ZSt7forwardIRKSt4pairIKiNSt7__debug6vectorINSt7__cxx1112basic_stringIcSt11char_traitsIcESaIcEEESaIS9_EEEEEOT_RNSt16remove_referenceISF_E4typeE, symObjAddr: 0x10234, symBinAddr: 0x1000140F0, symSize: 0x14 }
  - { offsetInCU: 0x461DA, offset: 0x461DA, size: 0x8, addend: 0x0, symName: __ZNKSt8__detail15_Hashtable_baseINSt7__cxx1112basic_stringIcSt11char_traitsIcESaIcEEES6_NS_9_IdentityESt8equal_toIS6_ESt4hashIS6_ENS_18_Mod_range_hashingENS_20_Default_ranged_hashENS_17_Hashtable_traitsILb1ELb1ELb1EEEE9_M_equalsERKS6_mRKNS_16_Hash_node_valueIS6_Lb1EEE, symObjAddr: 0x101A8, symBinAddr: 0x100014064, symSize: 0x70 }
  - { offsetInCU: 0x461E2, offset: 0x461E2, size: 0x8, addend: 0x0, symName: __ZNKSt8__detail21_Hash_node_value_baseISt4pairIKiNSt7__debug6vectorINSt7__cxx1112basic_stringIcSt11char_traitsIcESaIcEEESaISA_EEEEE9_M_valptrEv, symObjAddr: 0x10218, symBinAddr: 0x1000140D4, symSize: 0x1C }
  - { offsetInCU: 0x4624A, offset: 0x4624A, size: 0x8, addend: 0x0, symName: __ZNKSt8__detail21_Hash_node_value_baseINSt7__cxx1112basic_stringIcSt11char_traitsIcESaIcEEEE9_M_valptrEv, symObjAddr: 0x1018C, symBinAddr: 0x100014048, symSize: 0x1C }
  - { offsetInCU: 0x46252, offset: 0x46252, size: 0x8, addend: 0x0, symName: __ZNKSt8__detail15_Hashtable_baseINSt7__cxx1112basic_stringIcSt11char_traitsIcESaIcEEES6_NS_9_IdentityESt8equal_toIS6_ESt4hashIS6_ENS_18_Mod_range_hashingENS_20_Default_ranged_hashENS_17_Hashtable_traitsILb1ELb1ELb1EEEE9_M_equalsERKS6_mRKNS_16_Hash_node_valueIS6_Lb1EEE, symObjAddr: 0x101A8, symBinAddr: 0x100014064, symSize: 0x70 }
  - { offsetInCU: 0x4627B, offset: 0x4627B, size: 0x8, addend: 0x0, symName: __ZNSt15__new_allocatorINSt8__detail10_Hash_nodeINSt7__cxx1112basic_stringIcSt11char_traitsIcESaIcEEELb1EEEE10deallocateEPS8_m, symObjAddr: 0x10150, symBinAddr: 0x10001400C, symSize: 0x3C }
  - { offsetInCU: 0x46283, offset: 0x46283, size: 0x8, addend: 0x0, symName: __ZNKSt8__detail21_Hash_node_value_baseINSt7__cxx1112basic_stringIcSt11char_traitsIcESaIcEEEE9_M_valptrEv, symObjAddr: 0x1018C, symBinAddr: 0x100014048, symSize: 0x1C }
  - { offsetInCU: 0x4632B, offset: 0x4632B, size: 0x8, addend: 0x0, symName: __ZNSt15__new_allocatorINSt8__detail10_Hash_nodeINSt7__cxx1112basic_stringIcSt11char_traitsIcESaIcEEELb1EEEE8allocateEmPKv, symObjAddr: 0x100C0, symBinAddr: 0x100013F7C, symSize: 0x90 }
  - { offsetInCU: 0x46333, offset: 0x46333, size: 0x8, addend: 0x0, symName: __ZNSt15__new_allocatorINSt8__detail10_Hash_nodeINSt7__cxx1112basic_stringIcSt11char_traitsIcESaIcEEELb1EEEE10deallocateEPS8_m, symObjAddr: 0x10150, symBinAddr: 0x10001400C, symSize: 0x3C }
  - { offsetInCU: 0x463BE, offset: 0x463BE, size: 0x8, addend: 0x0, symName: __ZN9__gnu_cxx16__aligned_bufferINSt7__cxx1112basic_stringIcSt11char_traitsIcESaIcEEEE7_M_addrEv, symObjAddr: 0x100AC, symBinAddr: 0x100013F68, symSize: 0x14 }
  - { offsetInCU: 0x463C6, offset: 0x463C6, size: 0x8, addend: 0x0, symName: __ZNSt15__new_allocatorINSt8__detail10_Hash_nodeINSt7__cxx1112basic_stringIcSt11char_traitsIcESaIcEEELb1EEEE8allocateEmPKv, symObjAddr: 0x100C0, symBinAddr: 0x100013F7C, symSize: 0x90 }
  - { offsetInCU: 0x463F2, offset: 0x463F2, size: 0x8, addend: 0x0, symName: __ZNSt15__new_allocatorIPNSt8__detail15_Hash_node_baseEE8allocateEmPKv, symObjAddr: 0x10030, symBinAddr: 0x100013EEC, symSize: 0x7C }
  - { offsetInCU: 0x463FA, offset: 0x463FA, size: 0x8, addend: 0x0, symName: __ZN9__gnu_cxx16__aligned_bufferINSt7__cxx1112basic_stringIcSt11char_traitsIcESaIcEEEE7_M_addrEv, symObjAddr: 0x100AC, symBinAddr: 0x100013F68, symSize: 0x14 }
  - { offsetInCU: 0x46480, offset: 0x46480, size: 0x8, addend: 0x0, symName: __ZNSt10_HashtableINSt7__cxx1112basic_stringIcSt11char_traitsIcESaIcEEES5_SaIS5_ENSt8__detail9_IdentityESt8equal_toIS5_ESt4hashIS5_ENS7_18_Mod_range_hashingENS7_20_Default_ranged_hashENS7_20_Prime_rehash_policyENS7_17_Hashtable_traitsILb1ELb1ELb1EEEE16_M_insert_uniqueIRKS5_SL_NS7_10_AllocNodeISaINS7_10_Hash_nodeIS5_Lb1EEEEEEEESt4pairINS7_14_Node_iteratorIS5_Lb1ELb1EEEbEOT_OT0_RKT1_, symObjAddr: 0xFE24, symBinAddr: 0x100013CE0, symSize: 0x20C }
  - { offsetInCU: 0x46488, offset: 0x46488, size: 0x8, addend: 0x0, symName: __ZNSt15__new_allocatorIPNSt8__detail15_Hash_node_baseEE8allocateEmPKv, symObjAddr: 0x10030, symBinAddr: 0x100013EEC, symSize: 0x7C }
  - { offsetInCU: 0x465C2, offset: 0x465C2, size: 0x8, addend: 0x0, symName: __ZNSt10_HashtableINSt7__cxx1112basic_stringIcSt11char_traitsIcESaIcEEES5_SaIS5_ENSt8__detail9_IdentityESt8equal_toIS5_ESt4hashIS5_ENS7_18_Mod_range_hashingENS7_20_Default_ranged_hashENS7_20_Prime_rehash_policyENS7_17_Hashtable_traitsILb1ELb1ELb1EEEE14_S_forward_keyERKS5_, symObjAddr: 0xFE10, symBinAddr: 0x100013CCC, symSize: 0x14 }
  - { offsetInCU: 0x465CA, offset: 0x465CA, size: 0x8, addend: 0x0, symName: __ZNSt10_HashtableINSt7__cxx1112basic_stringIcSt11char_traitsIcESaIcEEES5_SaIS5_ENSt8__detail9_IdentityESt8equal_toIS5_ESt4hashIS5_ENS7_18_Mod_range_hashingENS7_20_Default_ranged_hashENS7_20_Prime_rehash_policyENS7_17_Hashtable_traitsILb1ELb1ELb1EEEE16_M_insert_uniqueIRKS5_SL_NS7_10_AllocNodeISaINS7_10_Hash_nodeIS5_Lb1EEEEEEEESt4pairINS7_14_Node_iteratorIS5_Lb1ELb1EEEbEOT_OT0_RKT1_, symObjAddr: 0xFE24, symBinAddr: 0x100013CE0, symSize: 0x20C }
  - { offsetInCU: 0x4675A, offset: 0x4675A, size: 0x8, addend: 0x0, symName: __ZNSt8__detail21_Local_const_iteratorINSt7__cxx1112basic_stringIcSt11char_traitsIcESaIcEEES6_NS_9_IdentityESt4hashIS6_ENS_18_Mod_range_hashingENS_20_Default_ranged_hashELb1ELb1EEC1ERKNS_15_Hash_code_baseIS6_S6_S7_S9_SA_SB_Lb1EEEPNS_10_Hash_nodeIS6_Lb1EEEmm, symObjAddr: 0xFDD0, symBinAddr: 0x100013C8C, symSize: 0x40 }
  - { offsetInCU: 0x46762, offset: 0x46762, size: 0x8, addend: 0x0, symName: __ZNSt10_HashtableINSt7__cxx1112basic_stringIcSt11char_traitsIcESaIcEEES5_SaIS5_ENSt8__detail9_IdentityESt8equal_toIS5_ESt4hashIS5_ENS7_18_Mod_range_hashingENS7_20_Default_ranged_hashENS7_20_Prime_rehash_policyENS7_17_Hashtable_traitsILb1ELb1ELb1EEEE14_S_forward_keyERKS5_, symObjAddr: 0xFE10, symBinAddr: 0x100013CCC, symSize: 0x14 }
  - { offsetInCU: 0x466BD, offset: 0x466BD, size: 0x8, addend: 0x0, symName: __ZNSt19__ptr_traits_ptr_toIPNSt8__detail10_Hash_nodeINSt7__cxx1112basic_stringIcSt11char_traitsIcESaIcEEELb1EEES8_Lb0EE10pointer_toERS8_, symObjAddr: 0xFDB4, symBinAddr: 0x100013C70, symSize: 0x1C }
  - { offsetInCU: 0x466C5, offset: 0x466C5, size: 0x8, addend: 0x0, symName: __ZNSt8__detail21_Local_const_iteratorINSt7__cxx1112basic_stringIcSt11char_traitsIcESaIcEEES6_NS_9_IdentityESt4hashIS6_ENS_18_Mod_range_hashingENS_20_Default_ranged_hashELb1ELb1EEC1ERKNS_15_Hash_code_baseIS6_S6_S7_S9_SA_SB_Lb1EEEPNS_10_Hash_nodeIS6_Lb1EEEmm, symObjAddr: 0xFDD0, symBinAddr: 0x100013C8C, symSize: 0x40 }
  - { offsetInCU: 0x46729, offset: 0x46729, size: 0x8, addend: 0x0, symName: __ZNSt10_HashtableIiSt4pairIKiNSt7__debug13unordered_setINSt7__cxx1112basic_stringIcSt11char_traitsIcESaIcEEESt4hashIS9_ESt8equal_toIS9_ESaIS9_EEEESaISG_ENSt8__detail10_Select1stESC_IiESA_IiENSI_18_Mod_range_hashingENSI_20_Default_ranged_hashENSI_20_Prime_rehash_policyENSI_17_Hashtable_traitsILb0ELb0ELb1EEEE19_M_allocate_bucketsEm, symObjAddr: 0xFD5C, symBinAddr: 0x100013C18, symSize: 0x58 }
  - { offsetInCU: 0x46731, offset: 0x46731, size: 0x8, addend: 0x0, symName: __ZNSt19__ptr_traits_ptr_toIPNSt8__detail10_Hash_nodeINSt7__cxx1112basic_stringIcSt11char_traitsIcESaIcEEELb1EEES8_Lb0EE10pointer_toERS8_, symObjAddr: 0xFDB4, symBinAddr: 0x100013C70, symSize: 0x1C }
  - { offsetInCU: 0x4676F, offset: 0x4676F, size: 0x8, addend: 0x0, symName: __ZNSt15__new_allocatorINSt8__detail10_Hash_nodeISt4pairIKiNSt7__debug13unordered_setINSt7__cxx1112basic_stringIcSt11char_traitsIcESaIcEEESt4hashISB_ESt8equal_toISB_ESaISB_EEEELb0EEEE10deallocateEPSJ_m, symObjAddr: 0xFD20, symBinAddr: 0x100013BDC, symSize: 0x3C }
  - { offsetInCU: 0x46777, offset: 0x46777, size: 0x8, addend: 0x0, symName: __ZNSt10_HashtableIiSt4pairIKiNSt7__debug13unordered_setINSt7__cxx1112basic_stringIcSt11char_traitsIcESaIcEEESt4hashIS9_ESt8equal_toIS9_ESaIS9_EEEESaISG_ENSt8__detail10_Select1stESC_IiESA_IiENSI_18_Mod_range_hashingENSI_20_Default_ranged_hashENSI_20_Prime_rehash_policyENSI_17_Hashtable_traitsILb0ELb0ELb1EEEE19_M_allocate_bucketsEm, symObjAddr: 0xFD5C, symBinAddr: 0x100013C18, symSize: 0x58 }
  - { offsetInCU: 0x46880, offset: 0x46880, size: 0x8, addend: 0x0, symName: __ZNSt5tupleIJOiEEC1EOS1_, symObjAddr: 0xFCF8, symBinAddr: 0x100013BB4, symSize: 0x28 }
  - { offsetInCU: 0x46888, offset: 0x46888, size: 0x8, addend: 0x0, symName: __ZNSt15__new_allocatorINSt8__detail10_Hash_nodeISt4pairIKiNSt7__debug13unordered_setINSt7__cxx1112basic_stringIcSt11char_traitsIcESaIcEEESt4hashISB_ESt8equal_toISB_ESaISB_EEEELb0EEEE10deallocateEPSJ_m, symObjAddr: 0xFD20, symBinAddr: 0x100013BDC, symSize: 0x3C }
  - { offsetInCU: 0x468A4, offset: 0x468A4, size: 0x8, addend: 0x0, symName: __ZNSt15__new_allocatorINSt8__detail10_Hash_nodeISt4pairIKiNSt7__debug13unordered_setINSt7__cxx1112basic_stringIcSt11char_traitsIcESaIcEEESt4hashISB_ESt8equal_toISB_ESaISB_EEEELb0EEEE8allocateEmPKv, symObjAddr: 0xFC58, symBinAddr: 0x100013B14, symSize: 0xA0 }
  - { offsetInCU: 0x468AC, offset: 0x468AC, size: 0x8, addend: 0x0, symName: __ZNSt5tupleIJOiEEC1EOS1_, symObjAddr: 0xFCF8, symBinAddr: 0x100013BB4, symSize: 0x28 }
  - { offsetInCU: 0x46992, offset: 0x46992, size: 0x8, addend: 0x0, symName: __ZNSt10_Head_baseILm0EOiLb0EEC2IiEEOT_, symObjAddr: 0xFC28, symBinAddr: 0x100013AE4, symSize: 0x30 }
  - { offsetInCU: 0x4699A, offset: 0x4699A, size: 0x8, addend: 0x0, symName: __ZNSt15__new_allocatorINSt8__detail10_Hash_nodeISt4pairIKiNSt7__debug13unordered_setINSt7__cxx1112basic_stringIcSt11char_traitsIcESaIcEEESt4hashISB_ESt8equal_toISB_ESaISB_EEEELb0EEEE8allocateEmPKv, symObjAddr: 0xFC58, symBinAddr: 0x100013B14, symSize: 0xA0 }
  - { offsetInCU: 0x469BA, offset: 0x469BA, size: 0x8, addend: 0x0, symName: __ZN9__gnu_cxx16__aligned_bufferISt4pairIKiNSt7__debug13unordered_setINSt7__cxx1112basic_stringIcSt11char_traitsIcESaIcEEESt4hashISA_ESt8equal_toISA_ESaISA_EEEEE7_M_addrEv, symObjAddr: 0xFC14, symBinAddr: 0x100013AD0, symSize: 0x14 }
  - { offsetInCU: 0x469C2, offset: 0x469C2, size: 0x8, addend: 0x0, symName: __ZNSt10_Head_baseILm0EOiLb0EEC2IiEEOT_, symObjAddr: 0xFC28, symBinAddr: 0x100013AE4, symSize: 0x30 }
  - { offsetInCU: 0x469EE, offset: 0x469EE, size: 0x8, addend: 0x0, symName: __ZNKSt8__detail15_Hash_code_baseIiSt4pairIKiNSt7__debug13unordered_setINSt7__cxx1112basic_stringIcSt11char_traitsIcESaIcEEESt4hashISA_ESt8equal_toISA_ESaISA_EEEENS_10_Select1stESB_IiENS_18_Mod_range_hashingENS_20_Default_ranged_hashELb0EE15_M_bucket_indexERKNS_16_Hash_node_valueISH_Lb0EEEm, symObjAddr: 0xFBC8, symBinAddr: 0x100013A84, symSize: 0x4C }
  - { offsetInCU: 0x469F6, offset: 0x469F6, size: 0x8, addend: 0x0, symName: __ZN9__gnu_cxx16__aligned_bufferISt4pairIKiNSt7__debug13unordered_setINSt7__cxx1112basic_stringIcSt11char_traitsIcESaIcEEESt4hashISA_ESt8equal_toISA_ESaISA_EEEEE7_M_addrEv, symObjAddr: 0xFC14, symBinAddr: 0x100013AD0, symSize: 0x14 }
  - { offsetInCU: 0x46A49, offset: 0x46A49, size: 0x8, addend: 0x0, symName: __ZNSt8__detail15_Hashtable_baseIiSt4pairIKiNSt7__debug13unordered_setINSt7__cxx1112basic_stringIcSt11char_traitsIcESaIcEEESt4hashISA_ESt8equal_toISA_ESaISA_EEEENS_10_Select1stESD_IiESB_IiENS_18_Mod_range_hashingENS_20_Default_ranged_hashENS_17_Hashtable_traitsILb0ELb0ELb1EEEE9_S_equalsEmRKNS_21_Hash_node_code_cacheILb0EEE, symObjAddr: 0xFBB0, symBinAddr: 0x100013A6C, symSize: 0x18 }
  - { offsetInCU: 0x46A51, offset: 0x46A51, size: 0x8, addend: 0x0, symName: __ZNKSt8__detail15_Hash_code_baseIiSt4pairIKiNSt7__debug13unordered_setINSt7__cxx1112basic_stringIcSt11char_traitsIcESaIcEEESt4hashISA_ESt8equal_toISA_ESaISA_EEEENS_10_Select1stESB_IiENS_18_Mod_range_hashingENS_20_Default_ranged_hashELb0EE15_M_bucket_indexERKNS_16_Hash_node_valueISH_Lb0EEEm, symObjAddr: 0xFBC8, symBinAddr: 0x100013A84, symSize: 0x4C }
  - { offsetInCU: 0x46BA0, offset: 0x46BA0, size: 0x8, addend: 0x0, symName: __ZSt7forwardIRKSt4pairIKiNSt7__debug13unordered_setINSt7__cxx1112basic_stringIcSt11char_traitsIcESaIcEEESt4hashIS9_ESt8equal_toIS9_ESaIS9_EEEEEOT_RNSt16remove_referenceISJ_E4typeE, symObjAddr: 0xFB9C, symBinAddr: 0x100013A58, symSize: 0x14 }
  - { offsetInCU: 0x46BA8, offset: 0x46BA8, size: 0x8, addend: 0x0, symName: __ZNSt8__detail15_Hashtable_baseIiSt4pairIKiNSt7__debug13unordered_setINSt7__cxx1112basic_stringIcSt11char_traitsIcESaIcEEESt4hashISA_ESt8equal_toISA_ESaISA_EEEENS_10_Select1stESD_IiESB_IiENS_18_Mod_range_hashingENS_20_Default_ranged_hashENS_17_Hashtable_traitsILb0ELb0ELb1EEEE9_S_equalsEmRKNS_21_Hash_node_code_cacheILb0EEE, symObjAddr: 0xFBB0, symBinAddr: 0x100013A6C, symSize: 0x18 }
  - { offsetInCU: 0x46AD8, offset: 0x46AD8, size: 0x8, addend: 0x0, symName: __ZNKSt8__detail21_Hash_node_value_baseISt4pairIKiNSt7__debug13unordered_setINSt7__cxx1112basic_stringIcSt11char_traitsIcESaIcEEESt4hashISA_ESt8equal_toISA_ESaISA_EEEEE9_M_valptrEv, symObjAddr: 0xFB80, symBinAddr: 0x100013A3C, symSize: 0x1C }
  - { offsetInCU: 0x46AE0, offset: 0x46AE0, size: 0x8, addend: 0x0, symName: __ZSt7forwardIRKSt4pairIKiNSt7__debug13unordered_setINSt7__cxx1112basic_stringIcSt11char_traitsIcESaIcEEESt4hashIS9_ESt8equal_toIS9_ESaIS9_EEEEEOT_RNSt16remove_referenceISJ_E4typeE, symObjAddr: 0xFB9C, symBinAddr: 0x100013A58, symSize: 0x14 }
  - { offsetInCU: 0x46B09, offset: 0x46B09, size: 0x8, addend: 0x0, symName: __ZNKSt8__detail21_Hashtable_ebo_helperILi0ESt8equal_toIiELb1EE7_M_cgetEv, symObjAddr: 0xFB6C, symBinAddr: 0x100013A28, symSize: 0x14 }
  - { offsetInCU: 0x46B11, offset: 0x46B11, size: 0x8, addend: 0x0, symName: __ZNKSt8__detail21_Hash_node_value_baseISt4pairIKiNSt7__debug13unordered_setINSt7__cxx1112basic_stringIcSt11char_traitsIcESaIcEEESt4hashISA_ESt8equal_toISA_ESaISA_EEEEE9_M_valptrEv, symObjAddr: 0xFB80, symBinAddr: 0x100013A3C, symSize: 0x1C }
  - { offsetInCU: 0x46B3A, offset: 0x46B3A, size: 0x8, addend: 0x0, symName: __ZNSt19__ptr_traits_ptr_toIPNSt8__detail10_Hash_nodeISt4pairIKiNSt7__debug13unordered_setINSt7__cxx1112basic_stringIcSt11char_traitsIcESaIcEEESt4hashISB_ESt8equal_toISB_ESaISB_EEEELb0EEESJ_Lb0EE10pointer_toERSJ_, symObjAddr: 0xFB50, symBinAddr: 0x100013A0C, symSize: 0x1C }
  - { offsetInCU: 0x46B42, offset: 0x46B42, size: 0x8, addend: 0x0, symName: __ZNKSt8__detail21_Hashtable_ebo_helperILi0ESt8equal_toIiELb1EE7_M_cgetEv, symObjAddr: 0xFB6C, symBinAddr: 0x100013A28, symSize: 0x14 }
  - { offsetInCU: 0x46BA6, offset: 0x46BA6, size: 0x8, addend: 0x0, symName: __ZNSt8__detail21_Hashtable_ebo_helperILi0ESaINS_10_Hash_nodeISt4pairIKiNSt7__debug13unordered_setINSt7__cxx1112basic_stringIcSt11char_traitsIcESaIcEEESt4hashISB_ESt8equal_toISB_ESaISB_EEEELb0EEEELb1EE6_M_getEv, symObjAddr: 0xFB3C, symBinAddr: 0x1000139F8, symSize: 0x14 }
  - { offsetInCU: 0x46BAE, offset: 0x46BAE, size: 0x8, addend: 0x0, symName: __ZNSt19__ptr_traits_ptr_toIPNSt8__detail10_Hash_nodeISt4pairIKiNSt7__debug13unordered_setINSt7__cxx1112basic_stringIcSt11char_traitsIcESaIcEEESt4hashISB_ESt8equal_toISB_ESaISB_EEEELb0EEESJ_Lb0EE10pointer_toERSJ_, symObjAddr: 0xFB50, symBinAddr: 0x100013A0C, symSize: 0x1C }
  - { offsetInCU: 0x46BD7, offset: 0x46BD7, size: 0x8, addend: 0x0, symName: __ZNSt19__ptr_traits_ptr_toIPNSt8__detail10_Hash_nodeISt4pairIKiNSt7__debug6vectorINSt7__cxx1112basic_stringIcSt11char_traitsIcESaIcEEESaISB_EEEELb0EEESF_Lb0EE10pointer_toERSF_, symObjAddr: 0xFB20, symBinAddr: 0x1000139DC, symSize: 0x1C }
  - { offsetInCU: 0x46BDF, offset: 0x46BDF, size: 0x8, addend: 0x0, symName: __ZNSt8__detail21_Hashtable_ebo_helperILi0ESaINS_10_Hash_nodeISt4pairIKiNSt7__debug13unordered_setINSt7__cxx1112basic_stringIcSt11char_traitsIcESaIcEEESt4hashISB_ESt8equal_toISB_ESaISB_EEEELb0EEEELb1EE6_M_getEv, symObjAddr: 0xFB3C, symBinAddr: 0x1000139F8, symSize: 0x14 }
  - { offsetInCU: 0x46CD3, offset: 0x46CD3, size: 0x8, addend: 0x0, symName: __ZNSt4pairIKiNSt7__debug6vectorINSt7__cxx1112basic_stringIcSt11char_traitsIcESaIcEEESaIS8_EEEED1Ev, symObjAddr: 0xFAFC, symBinAddr: 0x1000139B8, symSize: 0x24 }
  - { offsetInCU: 0x46CDB, offset: 0x46CDB, size: 0x8, addend: 0x0, symName: __ZNSt19__ptr_traits_ptr_toIPNSt8__detail10_Hash_nodeISt4pairIKiNSt7__debug6vectorINSt7__cxx1112basic_stringIcSt11char_traitsIcESaIcEEESaISB_EEEELb0EEESF_Lb0EE10pointer_toERSF_, symObjAddr: 0xFB20, symBinAddr: 0x1000139DC, symSize: 0x1C }
  - { offsetInCU: 0x46CA0, offset: 0x46CA0, size: 0x8, addend: 0x0, symName: __ZNSt8__detail21_Hashtable_ebo_helperILi0ESaINS_10_Hash_nodeISt4pairIKiNSt7__debug6vectorINSt7__cxx1112basic_stringIcSt11char_traitsIcESaIcEEESaISB_EEEELb0EEEELb1EE6_M_getEv, symObjAddr: 0xFAE8, symBinAddr: 0x1000139A4, symSize: 0x14 }
  - { offsetInCU: 0x46CA8, offset: 0x46CA8, size: 0x8, addend: 0x0, symName: __ZNSt4pairIKiNSt7__debug6vectorINSt7__cxx1112basic_stringIcSt11char_traitsIcESaIcEEESaIS8_EEEED1Ev, symObjAddr: 0xFAFC, symBinAddr: 0x1000139B8, symSize: 0x24 }
  - { offsetInCU: 0x46CD1, offset: 0x46CD1, size: 0x8, addend: 0x0, symName: __ZNSt10_HashtableINSt7__cxx1112basic_stringIcSt11char_traitsIcESaIcEEESt4pairIKS5_iESaIS8_ENSt8__detail10_Select1stESt8equal_toIS5_ESt4hashIS5_ENSA_18_Mod_range_hashingENSA_20_Default_ranged_hashENSA_20_Prime_rehash_policyENSA_17_Hashtable_traitsILb1ELb0ELb1EEEE19_M_allocate_bucketsEm, symObjAddr: 0xFA90, symBinAddr: 0x10001394C, symSize: 0x58 }
  - { offsetInCU: 0x46CD9, offset: 0x46CD9, size: 0x8, addend: 0x0, symName: __ZNSt8__detail21_Hashtable_ebo_helperILi0ESaINS_10_Hash_nodeISt4pairIKiNSt7__debug6vectorINSt7__cxx1112basic_stringIcSt11char_traitsIcESaIcEEESaISB_EEEELb0EEEELb1EE6_M_getEv, symObjAddr: 0xFAE8, symBinAddr: 0x1000139A4, symSize: 0x14 }
  - { offsetInCU: 0x46D17, offset: 0x46D17, size: 0x8, addend: 0x0, symName: __ZNSt15__new_allocatorINSt8__detail10_Hash_nodeISt4pairIKNSt7__cxx1112basic_stringIcSt11char_traitsIcESaIcEEEiELb1EEEE10deallocateEPSB_m, symObjAddr: 0xFA54, symBinAddr: 0x100013910, symSize: 0x3C }
  - { offsetInCU: 0x46D1F, offset: 0x46D1F, size: 0x8, addend: 0x0, symName: __ZNSt10_HashtableINSt7__cxx1112basic_stringIcSt11char_traitsIcESaIcEEESt4pairIKS5_iESaIS8_ENSt8__detail10_Select1stESt8equal_toIS5_ESt4hashIS5_ENSA_18_Mod_range_hashingENSA_20_Default_ranged_hashENSA_20_Prime_rehash_policyENSA_17_Hashtable_traitsILb1ELb0ELb1EEEE19_M_allocate_bucketsEm, symObjAddr: 0xFA90, symBinAddr: 0x10001394C, symSize: 0x58 }
  - { offsetInCU: 0x46E5C, offset: 0x46E5C, size: 0x8, addend: 0x0, symName: __ZNSt5tupleIJRKNSt7__cxx1112basic_stringIcSt11char_traitsIcESaIcEEEEEC1EOS8_, symObjAddr: 0xFA2C, symBinAddr: 0x1000138E8, symSize: 0x28 }
  - { offsetInCU: 0x46E64, offset: 0x46E64, size: 0x8, addend: 0x0, symName: __ZNSt15__new_allocatorINSt8__detail10_Hash_nodeISt4pairIKNSt7__cxx1112basic_stringIcSt11char_traitsIcESaIcEEEiELb1EEEE10deallocateEPSB_m, symObjAddr: 0xFA54, symBinAddr: 0x100013910, symSize: 0x3C }
  - { offsetInCU: 0x46E4C, offset: 0x46E4C, size: 0x8, addend: 0x0, symName: __ZNSt15__new_allocatorINSt8__detail10_Hash_nodeISt4pairIKNSt7__cxx1112basic_stringIcSt11char_traitsIcESaIcEEEiELb1EEEE8allocateEmPKv, symObjAddr: 0xF98C, symBinAddr: 0x100013848, symSize: 0xA0 }
  - { offsetInCU: 0x46E54, offset: 0x46E54, size: 0x8, addend: 0x0, symName: __ZNSt5tupleIJRKNSt7__cxx1112basic_stringIcSt11char_traitsIcESaIcEEEEEC1EOS8_, symObjAddr: 0xFA2C, symBinAddr: 0x1000138E8, symSize: 0x28 }
  - { offsetInCU: 0x46EDF, offset: 0x46EDF, size: 0x8, addend: 0x0, symName: __ZN9__gnu_cxx16__aligned_bufferISt4pairIKNSt7__cxx1112basic_stringIcSt11char_traitsIcESaIcEEEiEE7_M_addrEv, symObjAddr: 0xF978, symBinAddr: 0x100013834, symSize: 0x14 }
  - { offsetInCU: 0x46EE7, offset: 0x46EE7, size: 0x8, addend: 0x0, symName: __ZNSt15__new_allocatorINSt8__detail10_Hash_nodeISt4pairIKNSt7__cxx1112basic_stringIcSt11char_traitsIcESaIcEEEiELb1EEEE8allocateEmPKv, symObjAddr: 0xF98C, symBinAddr: 0x100013848, symSize: 0xA0 }
  - { offsetInCU: 0x46F13, offset: 0x46F13, size: 0x8, addend: 0x0, symName: __ZNKSt8__detail15_Hash_code_baseINSt7__cxx1112basic_stringIcSt11char_traitsIcESaIcEEESt4pairIKS6_iENS_10_Select1stESt4hashIS6_ENS_18_Mod_range_hashingENS_20_Default_ranged_hashELb1EE15_M_bucket_indexERKNS_16_Hash_node_valueIS9_Lb1EEEm, symObjAddr: 0xF948, symBinAddr: 0x100013804, symSize: 0x30 }
  - { offsetInCU: 0x46F1B, offset: 0x46F1B, size: 0x8, addend: 0x0, symName: __ZN9__gnu_cxx16__aligned_bufferISt4pairIKNSt7__cxx1112basic_stringIcSt11char_traitsIcESaIcEEEiEE7_M_addrEv, symObjAddr: 0xF978, symBinAddr: 0x100013834, symSize: 0x14 }
  - { offsetInCU: 0x46F6E, offset: 0x46F6E, size: 0x8, addend: 0x0, symName: __ZNSt8__detail15_Hashtable_baseINSt7__cxx1112basic_stringIcSt11char_traitsIcESaIcEEESt4pairIKS6_iENS_10_Select1stESt8equal_toIS6_ESt4hashIS6_ENS_18_Mod_range_hashingENS_20_Default_ranged_hashENS_17_Hashtable_traitsILb1ELb0ELb1EEEE9_S_equalsEmRKNS_21_Hash_node_code_cacheILb1EEE, symObjAddr: 0xF91C, symBinAddr: 0x1000137D8, symSize: 0x2C }
  - { offsetInCU: 0x46F76, offset: 0x46F76, size: 0x8, addend: 0x0, symName: __ZNKSt8__detail15_Hash_code_baseINSt7__cxx1112basic_stringIcSt11char_traitsIcESaIcEEESt4pairIKS6_iENS_10_Select1stESt4hashIS6_ENS_18_Mod_range_hashingENS_20_Default_ranged_hashELb1EE15_M_bucket_indexERKNS_16_Hash_node_valueIS9_Lb1EEEm, symObjAddr: 0xF948, symBinAddr: 0x100013804, symSize: 0x30 }
  - { offsetInCU: 0x47047, offset: 0x47047, size: 0x8, addend: 0x0, symName: __ZSteqIcSt11char_traitsIcESaIcEEbRKNSt7__cxx1112basic_stringIT_T0_T1_EESA_, symObjAddr: 0xF89C, symBinAddr: 0x100013758, symSize: 0x80 }
  - { offsetInCU: 0x4704F, offset: 0x4704F, size: 0x8, addend: 0x0, symName: __ZNSt8__detail15_Hashtable_baseINSt7__cxx1112basic_stringIcSt11char_traitsIcESaIcEEESt4pairIKS6_iENS_10_Select1stESt8equal_toIS6_ESt4hashIS6_ENS_18_Mod_range_hashingENS_20_Default_ranged_hashENS_17_Hashtable_traitsILb1ELb0ELb1EEEE9_S_equalsEmRKNS_21_Hash_node_code_cacheILb1EEE, symObjAddr: 0xF91C, symBinAddr: 0x1000137D8, symSize: 0x2C }
  - { offsetInCU: 0x470F3, offset: 0x470F3, size: 0x8, addend: 0x0, symName: __ZSt7forwardIRKSt4pairIKNSt7__cxx1112basic_stringIcSt11char_traitsIcESaIcEEEiEEOT_RNSt16remove_referenceISB_E4typeE, symObjAddr: 0xF888, symBinAddr: 0x100013744, symSize: 0x14 }
  - { offsetInCU: 0x470FB, offset: 0x470FB, size: 0x8, addend: 0x0, symName: __ZSteqIcSt11char_traitsIcESaIcEEbRKNSt7__cxx1112basic_stringIT_T0_T1_EESA_, symObjAddr: 0xF89C, symBinAddr: 0x100013758, symSize: 0x80 }
  - { offsetInCU: 0x4708A, offset: 0x4708A, size: 0x8, addend: 0x0, symName: __ZNKSt8__detail21_Hash_node_value_baseISt4pairIKNSt7__cxx1112basic_stringIcSt11char_traitsIcESaIcEEEiEE9_M_valptrEv, symObjAddr: 0xF86C, symBinAddr: 0x100013728, symSize: 0x1C }
  - { offsetInCU: 0x47092, offset: 0x47092, size: 0x8, addend: 0x0, symName: __ZSt7forwardIRKSt4pairIKNSt7__cxx1112basic_stringIcSt11char_traitsIcESaIcEEEiEEOT_RNSt16remove_referenceISB_E4typeE, symObjAddr: 0xF888, symBinAddr: 0x100013744, symSize: 0x14 }
  - { offsetInCU: 0x470BB, offset: 0x470BB, size: 0x8, addend: 0x0, symName: __ZNKSt8__detail21_Hashtable_ebo_helperILi0ESt8equal_toINSt7__cxx1112basic_stringIcSt11char_traitsIcESaIcEEEELb1EE7_M_cgetEv, symObjAddr: 0xF858, symBinAddr: 0x100013714, symSize: 0x14 }
  - { offsetInCU: 0x470C3, offset: 0x470C3, size: 0x8, addend: 0x0, symName: __ZNKSt8__detail21_Hash_node_value_baseISt4pairIKNSt7__cxx1112basic_stringIcSt11char_traitsIcESaIcEEEiEE9_M_valptrEv, symObjAddr: 0xF86C, symBinAddr: 0x100013728, symSize: 0x1C }
  - { offsetInCU: 0x470EC, offset: 0x470EC, size: 0x8, addend: 0x0, symName: __ZNSt15__new_allocatorIPNSt8__detail15_Hash_node_baseEE10deallocateEPS2_m, symObjAddr: 0xF828, symBinAddr: 0x1000136E4, symSize: 0x30 }
  - { offsetInCU: 0x470F4, offset: 0x470F4, size: 0x8, addend: 0x0, symName: __ZNKSt8__detail21_Hashtable_ebo_helperILi0ESt8equal_toINSt7__cxx1112basic_stringIcSt11char_traitsIcESaIcEEEELb1EE7_M_cgetEv, symObjAddr: 0xF858, symBinAddr: 0x100013714, symSize: 0x14 }
  - { offsetInCU: 0x471AB, offset: 0x471AB, size: 0x8, addend: 0x0, symName: __ZNSt15__new_allocatorIPNSt8__detail15_Hash_node_baseEED2Ev, symObjAddr: 0xF814, symBinAddr: 0x1000136D0, symSize: 0x14 }
  - { offsetInCU: 0x471B3, offset: 0x471B3, size: 0x8, addend: 0x0, symName: __ZNSt15__new_allocatorIPNSt8__detail15_Hash_node_baseEE10deallocateEPS2_m, symObjAddr: 0xF828, symBinAddr: 0x1000136E4, symSize: 0x30 }
  - { offsetInCU: 0x47220, offset: 0x47220, size: 0x8, addend: 0x0, symName: __ZSt9addressofIPNSt8__detail15_Hash_node_baseEEPT_RS3_, symObjAddr: 0xF7F8, symBinAddr: 0x1000136B4, symSize: 0x1C }
  - { offsetInCU: 0x47228, offset: 0x47228, size: 0x8, addend: 0x0, symName: __ZNSt15__new_allocatorIPNSt8__detail15_Hash_node_baseEED2Ev, symObjAddr: 0xF814, symBinAddr: 0x1000136D0, symSize: 0x14 }
  - { offsetInCU: 0x47206, offset: 0x47206, size: 0x8, addend: 0x0, symName: __ZNSt19__ptr_traits_ptr_toIPNSt8__detail10_Hash_nodeISt4pairIKNSt7__cxx1112basic_stringIcSt11char_traitsIcESaIcEEEiELb1EEESB_Lb0EE10pointer_toERSB_, symObjAddr: 0xF7DC, symBinAddr: 0x100013698, symSize: 0x1C }
  - { offsetInCU: 0x4720E, offset: 0x4720E, size: 0x8, addend: 0x0, symName: __ZSt9addressofIPNSt8__detail15_Hash_node_baseEEPT_RS3_, symObjAddr: 0xF7F8, symBinAddr: 0x1000136B4, symSize: 0x1C }
  - { offsetInCU: 0x472E6, offset: 0x472E6, size: 0x8, addend: 0x0, symName: __ZNSt4pairIKNSt7__cxx1112basic_stringIcSt11char_traitsIcESaIcEEEiED1Ev, symObjAddr: 0xF7BC, symBinAddr: 0x100013678, symSize: 0x20 }
  - { offsetInCU: 0x472EE, offset: 0x472EE, size: 0x8, addend: 0x0, symName: __ZNSt19__ptr_traits_ptr_toIPNSt8__detail10_Hash_nodeISt4pairIKNSt7__cxx1112basic_stringIcSt11char_traitsIcESaIcEEEiELb1EEESB_Lb0EE10pointer_toERSB_, symObjAddr: 0xF7DC, symBinAddr: 0x100013698, symSize: 0x1C }
  - { offsetInCU: 0x472CF, offset: 0x472CF, size: 0x8, addend: 0x0, symName: __ZNSt8__detail21_Hashtable_ebo_helperILi0ESaINS_10_Hash_nodeISt4pairIKNSt7__cxx1112basic_stringIcSt11char_traitsIcESaIcEEEiELb1EEEELb1EE6_M_getEv, symObjAddr: 0xF7A8, symBinAddr: 0x100013664, symSize: 0x14 }
  - { offsetInCU: 0x472D7, offset: 0x472D7, size: 0x8, addend: 0x0, symName: __ZNSt4pairIKNSt7__cxx1112basic_stringIcSt11char_traitsIcESaIcEEEiED1Ev, symObjAddr: 0xF7BC, symBinAddr: 0x100013678, symSize: 0x20 }
  - { offsetInCU: 0x47300, offset: 0x47300, size: 0x8, addend: 0x0, symName: __ZNSt20__uninitialized_copyILb1EE13__uninit_copyIPKiPiEET0_T_S6_S5_, symObjAddr: 0xF77C, symBinAddr: 0x100013638, symSize: 0x2C }
  - { offsetInCU: 0x47308, offset: 0x47308, size: 0x8, addend: 0x0, symName: __ZNSt8__detail21_Hashtable_ebo_helperILi0ESaINS_10_Hash_nodeISt4pairIKNSt7__cxx1112basic_stringIcSt11char_traitsIcESaIcEEEiELb1EEEELb1EE6_M_getEv, symObjAddr: 0xF7A8, symBinAddr: 0x100013664, symSize: 0x14 }
  - { offsetInCU: 0x47375, offset: 0x47375, size: 0x8, addend: 0x0, symName: __ZNSt15__new_allocatorIiE8allocateEmPKv, symObjAddr: 0xF700, symBinAddr: 0x1000135BC, symSize: 0x7C }
  - { offsetInCU: 0x4737D, offset: 0x4737D, size: 0x8, addend: 0x0, symName: __ZNSt20__uninitialized_copyILb1EE13__uninit_copyIPKiPiEET0_T_S6_S5_, symObjAddr: 0xF77C, symBinAddr: 0x100013638, symSize: 0x2C }
  - { offsetInCU: 0x47445, offset: 0x47445, size: 0x8, addend: 0x0, symName: __ZNSt20__uninitialized_copyILb0EE13__uninit_copyIPKPKcPNSt7__cxx1112basic_stringIcSt11char_traitsIcESaIcEEEEET0_T_SE_SD_, symObjAddr: 0xF6D4, symBinAddr: 0x100013590, symSize: 0x2C }
  - { offsetInCU: 0x4744D, offset: 0x4744D, size: 0x8, addend: 0x0, symName: __ZNSt15__new_allocatorIiE8allocateEmPKv, symObjAddr: 0xF700, symBinAddr: 0x1000135BC, symSize: 0x7C }
  - { offsetInCU: 0x474BA, offset: 0x474BA, size: 0x8, addend: 0x0, symName: __ZNSt15__new_allocatorINSt7__cxx1112basic_stringIcSt11char_traitsIcESaIcEEEE8allocateEmPKv, symObjAddr: 0xF658, symBinAddr: 0x100013514, symSize: 0x7C }
  - { offsetInCU: 0x474C2, offset: 0x474C2, size: 0x8, addend: 0x0, symName: __ZNSt20__uninitialized_copyILb0EE13__uninit_copyIPKPKcPNSt7__cxx1112basic_stringIcSt11char_traitsIcESaIcEEEEET0_T_SE_SD_, symObjAddr: 0xF6D4, symBinAddr: 0x100013590, symSize: 0x2C }
  - { offsetInCU: 0x475B7, offset: 0x475B7, size: 0x8, addend: 0x0, symName: __ZN11__gnu_debug17__valid_range_auxIPKPKcEEbT_S5_St18input_iterator_tag, symObjAddr: 0xF5E0, symBinAddr: 0x10001349C, symSize: 0x78 }
  - { offsetInCU: 0x475BF, offset: 0x475BF, size: 0x8, addend: 0x0, symName: __ZNSt15__new_allocatorINSt7__cxx1112basic_stringIcSt11char_traitsIcESaIcEEEE8allocateEmPKv, symObjAddr: 0xF658, symBinAddr: 0x100013514, symSize: 0x7C }
  - { offsetInCU: 0x4762B, offset: 0x4762B, size: 0x8, addend: 0x0, symName: __ZN11__gnu_debug16__check_singularIKPKcEEbRKPT_, symObjAddr: 0xF5BC, symBinAddr: 0x100013478, symSize: 0x24 }
  - { offsetInCU: 0x47633, offset: 0x47633, size: 0x8, addend: 0x0, symName: __ZN11__gnu_debug17__valid_range_auxIPKPKcEEbT_S5_St18input_iterator_tag, symObjAddr: 0xF5E0, symBinAddr: 0x10001349C, symSize: 0x78 }
  - { offsetInCU: 0x4767D, offset: 0x4767D, size: 0x8, addend: 0x0, symName: __ZSt11__addressofIKcEPT_RS1_, symObjAddr: 0xF5A8, symBinAddr: 0x100013464, symSize: 0x14 }
  - { offsetInCU: 0x47685, offset: 0x47685, size: 0x8, addend: 0x0, symName: __ZN11__gnu_debug16__check_singularIKPKcEEbRKPT_, symObjAddr: 0xF5BC, symBinAddr: 0x100013478, symSize: 0x24 }
  - { offsetInCU: 0x4777C, offset: 0x4777C, size: 0x8, addend: 0x0, symName: __ZNSt10_Head_baseILm0ERKiLb0EEC2ES1_, symObjAddr: 0xF584, symBinAddr: 0x100013440, symSize: 0x24 }
  - { offsetInCU: 0x47784, offset: 0x47784, size: 0x8, addend: 0x0, symName: __ZSt11__addressofIKcEPT_RS1_, symObjAddr: 0xF5A8, symBinAddr: 0x100013464, symSize: 0x14 }
  - { offsetInCU: 0x478BC, offset: 0x478BC, size: 0x8, addend: 0x0, symName: __ZSt12__relocate_aIPNSt7__cxx1112basic_stringIcSt11char_traitsIcESaIcEEES6_SaIS5_EET0_T_S9_S8_RT1_, symObjAddr: 0xF528, symBinAddr: 0x1000133E4, symSize: 0x5C }
  - { offsetInCU: 0x478C4, offset: 0x478C4, size: 0x8, addend: 0x0, symName: __ZNSt10_Head_baseILm0ERKiLb0EEC2ES1_, symObjAddr: 0xF584, symBinAddr: 0x100013440, symSize: 0x24 }
  - { offsetInCU: 0x47874, offset: 0x47874, size: 0x8, addend: 0x0, symName: __ZNKSt9__cxx19986vectorINSt7__cxx1112basic_stringIcSt11char_traitsIcESaIcEEESaIS6_EE8max_sizeEv, symObjAddr: 0xF508, symBinAddr: 0x1000133C4, symSize: 0x20 }
  - { offsetInCU: 0x4787C, offset: 0x4787C, size: 0x8, addend: 0x0, symName: __ZSt12__relocate_aIPNSt7__cxx1112basic_stringIcSt11char_traitsIcESaIcEEES6_SaIS5_EET0_T_S9_S8_RT1_, symObjAddr: 0xF528, symBinAddr: 0x1000133E4, symSize: 0x5C }
  - { offsetInCU: 0x478A5, offset: 0x478A5, size: 0x8, addend: 0x0, symName: __ZNSt10_HashtableIiSt4pairIKiNSt7__debug6vectorINSt7__cxx1112basic_stringIcSt11char_traitsIcESaIcEEESaIS9_EEEESaISC_ENSt8__detail10_Select1stESt8equal_toIiESt4hashIiENSE_18_Mod_range_hashingENSE_20_Default_ranged_hashENSE_20_Prime_rehash_policyENSE_17_Hashtable_traitsILb0ELb0ELb1EEEE13_M_rehash_auxEmSt17integral_constantIbLb1EE, symObjAddr: 0xF39C, symBinAddr: 0x100013258, symSize: 0x16C }
  - { offsetInCU: 0x478AD, offset: 0x478AD, size: 0x8, addend: 0x0, symName: __ZNKSt9__cxx19986vectorINSt7__cxx1112basic_stringIcSt11char_traitsIcESaIcEEESaIS6_EE8max_sizeEv, symObjAddr: 0xF508, symBinAddr: 0x1000133C4, symSize: 0x20 }
  - { offsetInCU: 0x47B50, offset: 0x47B50, size: 0x8, addend: 0x0, symName: __ZSt12__to_addressINSt8__detail10_Hash_nodeISt4pairIKiNSt7__debug6vectorINSt7__cxx1112basic_stringIcSt11char_traitsIcESaIcEEESaISB_EEEELb0EEEEPT_SH_, symObjAddr: 0xF388, symBinAddr: 0x100013244, symSize: 0x14 }
  - { offsetInCU: 0x47B58, offset: 0x47B58, size: 0x8, addend: 0x0, symName: __ZNSt10_HashtableIiSt4pairIKiNSt7__debug6vectorINSt7__cxx1112basic_stringIcSt11char_traitsIcESaIcEEESaIS9_EEEESaISC_ENSt8__detail10_Select1stESt8equal_toIiESt4hashIiENSE_18_Mod_range_hashingENSE_20_Default_ranged_hashENSE_20_Prime_rehash_policyENSE_17_Hashtable_traitsILb0ELb0ELb1EEEE13_M_rehash_auxEmSt17integral_constantIbLb1EE, symObjAddr: 0xF39C, symBinAddr: 0x100013258, symSize: 0x16C }
  - { offsetInCU: 0x47AB3, offset: 0x47AB3, size: 0x8, addend: 0x0, symName: __ZN9__gnu_cxx16__aligned_bufferISt4pairIKiNSt7__debug6vectorINSt7__cxx1112basic_stringIcSt11char_traitsIcESaIcEEESaISA_EEEEE6_M_ptrEv, symObjAddr: 0xF36C, symBinAddr: 0x100013228, symSize: 0x1C }
  - { offsetInCU: 0x47ABB, offset: 0x47ABB, size: 0x8, addend: 0x0, symName: __ZSt12__to_addressINSt8__detail10_Hash_nodeISt4pairIKiNSt7__debug6vectorINSt7__cxx1112basic_stringIcSt11char_traitsIcESaIcEEESaISB_EEEELb0EEEEPT_SH_, symObjAddr: 0xF388, symBinAddr: 0x100013244, symSize: 0x14 }
  - { offsetInCU: 0x47AE4, offset: 0x47AE4, size: 0x8, addend: 0x0, symName: __ZNKSt10_HashtableIiSt4pairIKiNSt7__debug6vectorINSt7__cxx1112basic_stringIcSt11char_traitsIcESaIcEEESaIS9_EEEESaISC_ENSt8__detail10_Select1stESt8equal_toIiESt4hashIiENSE_18_Mod_range_hashingENSE_20_Default_ranged_hashENSE_20_Prime_rehash_policyENSE_17_Hashtable_traitsILb0ELb0ELb1EEEE15_M_bucket_indexERKNSE_16_Hash_node_valueISC_Lb0EEE, symObjAddr: 0xF33C, symBinAddr: 0x1000131F8, symSize: 0x30 }
  - { offsetInCU: 0x47AEC, offset: 0x47AEC, size: 0x8, addend: 0x0, symName: __ZN9__gnu_cxx16__aligned_bufferISt4pairIKiNSt7__debug6vectorINSt7__cxx1112basic_stringIcSt11char_traitsIcESaIcEEESaISA_EEEEE6_M_ptrEv, symObjAddr: 0xF36C, symBinAddr: 0x100013228, symSize: 0x1C }
  - { offsetInCU: 0x47B2A, offset: 0x47B2A, size: 0x8, addend: 0x0, symName: __ZNKSt8__detail15_Hashtable_baseIiSt4pairIKiNSt7__debug6vectorINSt7__cxx1112basic_stringIcSt11char_traitsIcESaIcEEESaISA_EEEENS_10_Select1stESt8equal_toIiESt4hashIiENS_18_Mod_range_hashingENS_20_Default_ranged_hashENS_17_Hashtable_traitsILb0ELb0ELb1EEEE9_M_equalsERS2_mRKNS_16_Hash_node_valueISD_Lb0EEE, symObjAddr: 0xF2D4, symBinAddr: 0x100013190, symSize: 0x68 }
  - { offsetInCU: 0x47B32, offset: 0x47B32, size: 0x8, addend: 0x0, symName: __ZNKSt10_HashtableIiSt4pairIKiNSt7__debug6vectorINSt7__cxx1112basic_stringIcSt11char_traitsIcESaIcEEESaIS9_EEEESaISC_ENSt8__detail10_Select1stESt8equal_toIiESt4hashIiENSE_18_Mod_range_hashingENSE_20_Default_ranged_hashENSE_20_Prime_rehash_policyENSE_17_Hashtable_traitsILb0ELb0ELb1EEEE15_M_bucket_indexERKNSE_16_Hash_node_valueISC_Lb0EEE, symObjAddr: 0xF33C, symBinAddr: 0x1000131F8, symSize: 0x30 }
  - { offsetInCU: 0x47B9A, offset: 0x47B9A, size: 0x8, addend: 0x0, symName: __ZNSt9__cxx199813unordered_mapIiNSt7__debug6vectorINSt7__cxx1112basic_stringIcSt11char_traitsIcESaIcEEESaIS8_EEESt4hashIiESt8equal_toIiESaISt4pairIKiSA_EEE5beginEv, symObjAddr: 0xF2B8, symBinAddr: 0x100013174, symSize: 0x1C }
  - { offsetInCU: 0x47BA2, offset: 0x47BA2, size: 0x8, addend: 0x0, symName: __ZNKSt8__detail15_Hashtable_baseIiSt4pairIKiNSt7__debug6vectorINSt7__cxx1112basic_stringIcSt11char_traitsIcESaIcEEESaISA_EEEENS_10_Select1stESt8equal_toIiESt4hashIiENS_18_Mod_range_hashingENS_20_Default_ranged_hashENS_17_Hashtable_traitsILb0ELb0ELb1EEEE9_M_equalsERS2_mRKNS_16_Hash_node_valueISD_Lb0EEE, symObjAddr: 0xF2D4, symBinAddr: 0x100013190, symSize: 0x68 }
  - { offsetInCU: 0x47BCB, offset: 0x47BCB, size: 0x8, addend: 0x0, symName: __ZNSt7__debug13unordered_mapIiNS_6vectorINSt7__cxx1112basic_stringIcSt11char_traitsIcESaIcEEESaIS7_EEESt4hashIiESt8equal_toIiESaISt4pairIKiS9_EEE7_M_baseEv, symObjAddr: 0xF2A0, symBinAddr: 0x10001315C, symSize: 0x18 }
  - { offsetInCU: 0x47BD3, offset: 0x47BD3, size: 0x8, addend: 0x0, symName: __ZNSt9__cxx199813unordered_mapIiNSt7__debug6vectorINSt7__cxx1112basic_stringIcSt11char_traitsIcESaIcEEESaIS8_EEESt4hashIiESt8equal_toIiESaISt4pairIKiSA_EEE5beginEv, symObjAddr: 0xF2B8, symBinAddr: 0x100013174, symSize: 0x1C }
  - { offsetInCU: 0x47BFC, offset: 0x47BFC, size: 0x8, addend: 0x0, symName: __ZN11__gnu_debug18_BeforeBeginHelperINSt7__debug13unordered_mapIiNS1_6vectorINSt7__cxx1112basic_stringIcSt11char_traitsIcESaIcEEESaIS9_EEESt4hashIiESt8equal_toIiESaISt4pairIKiSB_EEEEE5_S_IsINSt8__detail14_Node_iteratorISI_Lb0ELb0EEESt20forward_iterator_tagEEbRKNS_14_Safe_iteratorIT_SK_T0_EE, symObjAddr: 0xF28C, symBinAddr: 0x100013148, symSize: 0x14 }
  - { offsetInCU: 0x47C04, offset: 0x47C04, size: 0x8, addend: 0x0, symName: __ZNSt7__debug13unordered_mapIiNS_6vectorINSt7__cxx1112basic_stringIcSt11char_traitsIcESaIcEEESaIS7_EEESt4hashIiESt8equal_toIiESaISt4pairIKiS9_EEE7_M_baseEv, symObjAddr: 0xF2A0, symBinAddr: 0x10001315C, symSize: 0x18 }
  - { offsetInCU: 0x47D11, offset: 0x47D11, size: 0x8, addend: 0x0, symName: __ZNSt8__detail19_Node_iterator_baseISt4pairIKiNSt7__debug6vectorINSt7__cxx1112basic_stringIcSt11char_traitsIcESaIcEEESaISA_EEEELb0EEC2EPNS_10_Hash_nodeISD_Lb0EEE, symObjAddr: 0xF268, symBinAddr: 0x100013124, symSize: 0x24 }
  - { offsetInCU: 0x47D19, offset: 0x47D19, size: 0x8, addend: 0x0, symName: __ZN11__gnu_debug18_BeforeBeginHelperINSt7__debug13unordered_mapIiNS1_6vectorINSt7__cxx1112basic_stringIcSt11char_traitsIcESaIcEEESaIS9_EEESt4hashIiESt8equal_toIiESaISt4pairIKiSB_EEEEE5_S_IsINSt8__detail14_Node_iteratorISI_Lb0ELb0EEESt20forward_iterator_tagEEbRKNS_14_Safe_iteratorIT_SK_T0_EE, symObjAddr: 0xF28C, symBinAddr: 0x100013148, symSize: 0x14 }
  - { offsetInCU: 0x47CBF, offset: 0x47CBF, size: 0x8, addend: 0x0, symName: __ZNKSt8__detail10_Select1stclIRKSt4pairIKiNSt7__debug6vectorINSt7__cxx1112basic_stringIcSt11char_traitsIcESaIcEEESaISB_EEEEEEONS0_10__1st_typeIT_E4typeEOSI_, symObjAddr: 0xF248, symBinAddr: 0x100013104, symSize: 0x20 }
  - { offsetInCU: 0x47CC7, offset: 0x47CC7, size: 0x8, addend: 0x0, symName: __ZNSt8__detail19_Node_iterator_baseISt4pairIKiNSt7__debug6vectorINSt7__cxx1112basic_stringIcSt11char_traitsIcESaIcEEESaISA_EEEELb0EEC2EPNS_10_Hash_nodeISD_Lb0EEE, symObjAddr: 0xF268, symBinAddr: 0x100013124, symSize: 0x24 }
  - { offsetInCU: 0x47D11, offset: 0x47D11, size: 0x8, addend: 0x0, symName: __ZNKSt8__detail21_Hash_node_value_baseISt4pairIKiNSt7__debug6vectorINSt7__cxx1112basic_stringIcSt11char_traitsIcESaIcEEESaISA_EEEEE4_M_vEv, symObjAddr: 0xF22C, symBinAddr: 0x1000130E8, symSize: 0x1C }
  - { offsetInCU: 0x47D19, offset: 0x47D19, size: 0x8, addend: 0x0, symName: __ZNKSt8__detail10_Select1stclIRKSt4pairIKiNSt7__debug6vectorINSt7__cxx1112basic_stringIcSt11char_traitsIcESaIcEEESaISB_EEEEEEONS0_10__1st_typeIT_E4typeEOSI_, symObjAddr: 0xF248, symBinAddr: 0x100013104, symSize: 0x20 }
  - { offsetInCU: 0x47D42, offset: 0x47D42, size: 0x8, addend: 0x0, symName: __ZNKSt8__detail15_Hashtable_baseIiSt4pairIKiNSt7__debug6vectorINSt7__cxx1112basic_stringIcSt11char_traitsIcESaIcEEESaISA_EEEENS_10_Select1stESt8equal_toIiESt4hashIiENS_18_Mod_range_hashingENS_20_Default_ranged_hashENS_17_Hashtable_traitsILb0ELb0ELb1EEEE5_M_eqEv, symObjAddr: 0xF210, symBinAddr: 0x1000130CC, symSize: 0x1C }
  - { offsetInCU: 0x47D4A, offset: 0x47D4A, size: 0x8, addend: 0x0, symName: __ZNKSt8__detail21_Hash_node_value_baseISt4pairIKiNSt7__debug6vectorINSt7__cxx1112basic_stringIcSt11char_traitsIcESaIcEEESaISA_EEEEE4_M_vEv, symObjAddr: 0xF22C, symBinAddr: 0x1000130E8, symSize: 0x1C }
  - { offsetInCU: 0x47D73, offset: 0x47D73, size: 0x8, addend: 0x0, symName: __ZNSt8__detail19_Node_iterator_baseISt4pairIKiNSt7__debug6vectorINSt7__cxx1112basic_stringIcSt11char_traitsIcESaIcEEESaISA_EEEELb0EE7_M_incrEv, symObjAddr: 0xF1E0, symBinAddr: 0x10001309C, symSize: 0x30 }
  - { offsetInCU: 0x47D7B, offset: 0x47D7B, size: 0x8, addend: 0x0, symName: __ZNKSt8__detail15_Hashtable_baseIiSt4pairIKiNSt7__debug6vectorINSt7__cxx1112basic_stringIcSt11char_traitsIcESaIcEEESaISA_EEEENS_10_Select1stESt8equal_toIiESt4hashIiENS_18_Mod_range_hashingENS_20_Default_ranged_hashENS_17_Hashtable_traitsILb0ELb0ELb1EEEE5_M_eqEv, symObjAddr: 0xF210, symBinAddr: 0x1000130CC, symSize: 0x1C }
  - { offsetInCU: 0x47DA4, offset: 0x47DA4, size: 0x8, addend: 0x0, symName: __ZNSt9__cxx199813unordered_setINSt7__cxx1112basic_stringIcSt11char_traitsIcESaIcEEESt4hashIS6_ESt8equal_toIS6_ESaIS6_EE5beginEv, symObjAddr: 0xF1C4, symBinAddr: 0x100013080, symSize: 0x1C }
  - { offsetInCU: 0x47DAC, offset: 0x47DAC, size: 0x8, addend: 0x0, symName: __ZNSt8__detail19_Node_iterator_baseISt4pairIKiNSt7__debug6vectorINSt7__cxx1112basic_stringIcSt11char_traitsIcESaIcEEESaISA_EEEELb0EE7_M_incrEv, symObjAddr: 0xF1E0, symBinAddr: 0x10001309C, symSize: 0x30 }
  - { offsetInCU: 0x47DD5, offset: 0x47DD5, size: 0x8, addend: 0x0, symName: __ZN11__gnu_debug18_BeforeBeginHelperINSt7__debug13unordered_setINSt7__cxx1112basic_stringIcSt11char_traitsIcESaIcEEESt4hashIS8_ESt8equal_toIS8_ESaIS8_EEEE5_S_IsINSt8__detail14_Node_iteratorIS8_Lb1ELb1EEESt20forward_iterator_tagEEbRKNS_14_Safe_iteratorIT_SE_T0_EE, symObjAddr: 0xF1B0, symBinAddr: 0x10001306C, symSize: 0x14 }
  - { offsetInCU: 0x47DDD, offset: 0x47DDD, size: 0x8, addend: 0x0, symName: __ZNSt9__cxx199813unordered_setINSt7__cxx1112basic_stringIcSt11char_traitsIcESaIcEEESt4hashIS6_ESt8equal_toIS6_ESaIS6_EE5beginEv, symObjAddr: 0xF1C4, symBinAddr: 0x100013080, symSize: 0x1C }
  - { offsetInCU: 0x47E1B, offset: 0x47E1B, size: 0x8, addend: 0x0, symName: __ZNKSt10_HashtableINSt7__cxx1112basic_stringIcSt11char_traitsIcESaIcEEES5_SaIS5_ENSt8__detail9_IdentityESt8equal_toIS5_ESt4hashIS5_ENS7_18_Mod_range_hashingENS7_20_Default_ranged_hashENS7_20_Prime_rehash_policyENS7_17_Hashtable_traitsILb1ELb1ELb1EEEE19_M_find_before_nodeEmRKS5_m, symObjAddr: 0xF0B0, symBinAddr: 0x100012F6C, symSize: 0x100 }
  - { offsetInCU: 0x47E23, offset: 0x47E23, size: 0x8, addend: 0x0, symName: __ZN11__gnu_debug18_BeforeBeginHelperINSt7__debug13unordered_setINSt7__cxx1112basic_stringIcSt11char_traitsIcESaIcEEESt4hashIS8_ESt8equal_toIS8_ESaIS8_EEEE5_S_IsINSt8__detail14_Node_iteratorIS8_Lb1ELb1EEESt20forward_iterator_tagEEbRKNS_14_Safe_iteratorIT_SE_T0_EE, symObjAddr: 0xF1B0, symBinAddr: 0x10001306C, symSize: 0x14 }
  - { offsetInCU: 0x47EC8, offset: 0x47EC8, size: 0x8, addend: 0x0, symName: __ZNKSt8__detail15_Hash_code_baseINSt7__cxx1112basic_stringIcSt11char_traitsIcESaIcEEES6_NS_9_IdentityESt4hashIS6_ENS_18_Mod_range_hashingENS_20_Default_ranged_hashELb1EE15_M_bucket_indexEmm, symObjAddr: 0xF084, symBinAddr: 0x100012F40, symSize: 0x2C }
  - { offsetInCU: 0x47ED0, offset: 0x47ED0, size: 0x8, addend: 0x0, symName: __ZNKSt10_HashtableINSt7__cxx1112basic_stringIcSt11char_traitsIcESaIcEEES5_SaIS5_ENSt8__detail9_IdentityESt8equal_toIS5_ESt4hashIS5_ENS7_18_Mod_range_hashingENS7_20_Default_ranged_hashENS7_20_Prime_rehash_policyENS7_17_Hashtable_traitsILb1ELb1ELb1EEEE19_M_find_before_nodeEmRKS5_m, symObjAddr: 0xF0B0, symBinAddr: 0x100012F6C, symSize: 0x100 }
  - { offsetInCU: 0x47F23, offset: 0x47F23, size: 0x8, addend: 0x0, symName: __ZNKSt8__detail15_Hash_code_baseINSt7__cxx1112basic_stringIcSt11char_traitsIcESaIcEEES6_NS_9_IdentityESt4hashIS6_ENS_18_Mod_range_hashingENS_20_Default_ranged_hashELb1EE7_M_hashEv, symObjAddr: 0xF068, symBinAddr: 0x100012F24, symSize: 0x1C }
  - { offsetInCU: 0x47F2B, offset: 0x47F2B, size: 0x8, addend: 0x0, symName: __ZNKSt8__detail15_Hash_code_baseINSt7__cxx1112basic_stringIcSt11char_traitsIcESaIcEEES6_NS_9_IdentityESt4hashIS6_ENS_18_Mod_range_hashingENS_20_Default_ranged_hashELb1EE15_M_bucket_indexEmm, symObjAddr: 0xF084, symBinAddr: 0x100012F40, symSize: 0x2C }
  - { offsetInCU: 0x47F67, offset: 0x47F67, size: 0x8, addend: 0x0, symName: __ZNKSt8__detail9_IdentityclIRKNSt7__cxx1112basic_stringIcSt11char_traitsIcESaIcEEEEEOT_SB_, symObjAddr: 0xF048, symBinAddr: 0x100012F04, symSize: 0x20 }
  - { offsetInCU: 0x47F6F, offset: 0x47F6F, size: 0x8, addend: 0x0, symName: __ZNKSt8__detail15_Hash_code_baseINSt7__cxx1112basic_stringIcSt11char_traitsIcESaIcEEES6_NS_9_IdentityESt4hashIS6_ENS_18_Mod_range_hashingENS_20_Default_ranged_hashELb1EE7_M_hashEv, symObjAddr: 0xF068, symBinAddr: 0x100012F24, symSize: 0x1C }
  - { offsetInCU: 0x47FB9, offset: 0x47FB9, size: 0x8, addend: 0x0, symName: __ZNKSt8__detail21_Hash_node_value_baseINSt7__cxx1112basic_stringIcSt11char_traitsIcESaIcEEEE4_M_vEv, symObjAddr: 0xF02C, symBinAddr: 0x100012EE8, symSize: 0x1C }
  - { offsetInCU: 0x47FC1, offset: 0x47FC1, size: 0x8, addend: 0x0, symName: __ZNKSt8__detail9_IdentityclIRKNSt7__cxx1112basic_stringIcSt11char_traitsIcESaIcEEEEEOT_SB_, symObjAddr: 0xF048, symBinAddr: 0x100012F04, symSize: 0x20 }
  - { offsetInCU: 0x47FEA, offset: 0x47FEA, size: 0x8, addend: 0x0, symName: __ZNKSt8__detail15_Hashtable_baseINSt7__cxx1112basic_stringIcSt11char_traitsIcESaIcEEES6_NS_9_IdentityESt8equal_toIS6_ESt4hashIS6_ENS_18_Mod_range_hashingENS_20_Default_ranged_hashENS_17_Hashtable_traitsILb1ELb1ELb1EEEE5_M_eqEv, symObjAddr: 0xF010, symBinAddr: 0x100012ECC, symSize: 0x1C }
  - { offsetInCU: 0x47FF2, offset: 0x47FF2, size: 0x8, addend: 0x0, symName: __ZNKSt8__detail21_Hash_node_value_baseINSt7__cxx1112basic_stringIcSt11char_traitsIcESaIcEEEE4_M_vEv, symObjAddr: 0xF02C, symBinAddr: 0x100012EE8, symSize: 0x1C }
  - { offsetInCU: 0x4801B, offset: 0x4801B, size: 0x8, addend: 0x0, symName: __ZNSt8__detail19_Node_iterator_baseINSt7__cxx1112basic_stringIcSt11char_traitsIcESaIcEEELb1EE7_M_incrEv, symObjAddr: 0xEFE0, symBinAddr: 0x100012E9C, symSize: 0x30 }
  - { offsetInCU: 0x48023, offset: 0x48023, size: 0x8, addend: 0x0, symName: __ZNKSt8__detail15_Hashtable_baseINSt7__cxx1112basic_stringIcSt11char_traitsIcESaIcEEES6_NS_9_IdentityESt8equal_toIS6_ESt4hashIS6_ENS_18_Mod_range_hashingENS_20_Default_ranged_hashENS_17_Hashtable_traitsILb1ELb1ELb1EEEE5_M_eqEv, symObjAddr: 0xF010, symBinAddr: 0x100012ECC, symSize: 0x1C }
  - { offsetInCU: 0x481AD, offset: 0x481AD, size: 0x8, addend: 0x0, symName: __ZSt12__to_addressINSt8__detail10_Hash_nodeINSt7__cxx1112basic_stringIcSt11char_traitsIcESaIcEEELb1EEEEPT_SA_, symObjAddr: 0xEFCC, symBinAddr: 0x100012E88, symSize: 0x14 }
  - { offsetInCU: 0x481B5, offset: 0x481B5, size: 0x8, addend: 0x0, symName: __ZNSt8__detail19_Node_iterator_baseINSt7__cxx1112basic_stringIcSt11char_traitsIcESaIcEEELb1EE7_M_incrEv, symObjAddr: 0xEFE0, symBinAddr: 0x100012E9C, symSize: 0x30 }
  - { offsetInCU: 0x48166, offset: 0x48166, size: 0x8, addend: 0x0, symName: __ZN9__gnu_cxx16__aligned_bufferINSt7__cxx1112basic_stringIcSt11char_traitsIcESaIcEEEE6_M_ptrEv, symObjAddr: 0xEFB0, symBinAddr: 0x100012E6C, symSize: 0x1C }
  - { offsetInCU: 0x4816E, offset: 0x4816E, size: 0x8, addend: 0x0, symName: __ZSt12__to_addressINSt8__detail10_Hash_nodeINSt7__cxx1112basic_stringIcSt11char_traitsIcESaIcEEELb1EEEEPT_SA_, symObjAddr: 0xEFCC, symBinAddr: 0x100012E88, symSize: 0x14 }
  - { offsetInCU: 0x48203, offset: 0x48203, size: 0x8, addend: 0x0, symName: __ZSt12__to_addressIPNSt8__detail15_Hash_node_baseEEPT_S4_, symObjAddr: 0xEF9C, symBinAddr: 0x100012E58, symSize: 0x14 }
  - { offsetInCU: 0x4820B, offset: 0x4820B, size: 0x8, addend: 0x0, symName: __ZN9__gnu_cxx16__aligned_bufferINSt7__cxx1112basic_stringIcSt11char_traitsIcESaIcEEEE6_M_ptrEv, symObjAddr: 0xEFB0, symBinAddr: 0x100012E6C, symSize: 0x1C }
  - { offsetInCU: 0x48237, offset: 0x48237, size: 0x8, addend: 0x0, symName: __ZNSt10_HashtableINSt7__cxx1112basic_stringIcSt11char_traitsIcESaIcEEES5_SaIS5_ENSt8__detail9_IdentityESt8equal_toIS5_ESt4hashIS5_ENS7_18_Mod_range_hashingENS7_20_Default_ranged_hashENS7_20_Prime_rehash_policyENS7_17_Hashtable_traitsILb1ELb1ELb1EEEE20_M_insert_unique_auxIRKS5_NS7_10_AllocNodeISaINS7_10_Hash_nodeIS5_Lb1EEEEEEEESt4pairINS7_14_Node_iteratorIS5_Lb1ELb1EEEbEOT_RKT0_, symObjAddr: 0xEF40, symBinAddr: 0x100012DFC, symSize: 0x5C }
  - { offsetInCU: 0x4823F, offset: 0x4823F, size: 0x8, addend: 0x0, symName: __ZSt12__to_addressIPNSt8__detail15_Hash_node_baseEEPT_S4_, symObjAddr: 0xEF9C, symBinAddr: 0x100012E58, symSize: 0x14 }
  - { offsetInCU: 0x482BF, offset: 0x482BF, size: 0x8, addend: 0x0, symName: __ZNKSt8__detail19_ConvertToValueTypeINS_9_IdentityENSt7__cxx1112basic_stringIcSt11char_traitsIcESaIcEEEEclIRKS7_EEOT_SD_, symObjAddr: 0xEF20, symBinAddr: 0x100012DDC, symSize: 0x20 }
  - { offsetInCU: 0x482C7, offset: 0x482C7, size: 0x8, addend: 0x0, symName: __ZNSt10_HashtableINSt7__cxx1112basic_stringIcSt11char_traitsIcESaIcEEES5_SaIS5_ENSt8__detail9_IdentityESt8equal_toIS5_ESt4hashIS5_ENS7_18_Mod_range_hashingENS7_20_Default_ranged_hashENS7_20_Prime_rehash_policyENS7_17_Hashtable_traitsILb1ELb1ELb1EEEE20_M_insert_unique_auxIRKS5_NS7_10_AllocNodeISaINS7_10_Hash_nodeIS5_Lb1EEEEEEEESt4pairINS7_14_Node_iteratorIS5_Lb1ELb1EEEbEOT_RKT0_, symObjAddr: 0xEF40, symBinAddr: 0x100012DFC, symSize: 0x5C }
  - { offsetInCU: 0x48311, offset: 0x48311, size: 0x8, addend: 0x0, symName: __ZN11__gnu_debug20_Safe_local_iteratorINSt8__detail21_Local_const_iteratorINSt7__cxx1112basic_stringIcSt11char_traitsIcESaIcEEES8_NS1_9_IdentityESt4hashIS8_ENS1_18_Mod_range_hashingENS1_20_Default_ranged_hashELb1ELb1EEENSt7__debug13unordered_setIS8_SB_St8equal_toIS8_ESaIS8_EEEE4baseEv, symObjAddr: 0xEF0C, symBinAddr: 0x100012DC8, symSize: 0x14 }
  - { offsetInCU: 0x48319, offset: 0x48319, size: 0x8, addend: 0x0, symName: __ZNKSt8__detail19_ConvertToValueTypeINS_9_IdentityENSt7__cxx1112basic_stringIcSt11char_traitsIcESaIcEEEEclIRKS7_EEOT_SD_, symObjAddr: 0xEF20, symBinAddr: 0x100012DDC, symSize: 0x20 }
  - { offsetInCU: 0x48458, offset: 0x48458, size: 0x8, addend: 0x0, symName: __ZNSt8__detail21_Local_const_iteratorINSt7__cxx1112basic_stringIcSt11char_traitsIcESaIcEEES6_NS_9_IdentityESt4hashIS6_ENS_18_Mod_range_hashingENS_20_Default_ranged_hashELb1ELb1EEC1ERKNS_15_Local_iteratorIS6_S6_S7_S9_SA_SB_Lb1ELb1EEE, symObjAddr: 0xEED4, symBinAddr: 0x100012D90, symSize: 0x38 }
  - { offsetInCU: 0x48460, offset: 0x48460, size: 0x8, addend: 0x0, symName: __ZN11__gnu_debug20_Safe_local_iteratorINSt8__detail21_Local_const_iteratorINSt7__cxx1112basic_stringIcSt11char_traitsIcESaIcEEES8_NS1_9_IdentityESt4hashIS8_ENS1_18_Mod_range_hashingENS1_20_Default_ranged_hashELb1ELb1EEENSt7__debug13unordered_setIS8_SB_St8equal_toIS8_ESaIS8_EEEE4baseEv, symObjAddr: 0xEF0C, symBinAddr: 0x100012DC8, symSize: 0x14 }
  - { offsetInCU: 0x483AC, offset: 0x483AC, size: 0x8, addend: 0x0, symName: __ZN11__gnu_debug20_Safe_local_iteratorINSt8__detail15_Local_iteratorINSt7__cxx1112basic_stringIcSt11char_traitsIcESaIcEEES8_NS1_9_IdentityESt4hashIS8_ENS1_18_Mod_range_hashingENS1_20_Default_ranged_hashELb1ELb1EEENSt7__debug13unordered_setIS8_SB_St8equal_toIS8_ESaIS8_EEEE4baseEv, symObjAddr: 0xEEC0, symBinAddr: 0x100012D7C, symSize: 0x14 }
  - { offsetInCU: 0x483B4, offset: 0x483B4, size: 0x8, addend: 0x0, symName: __ZNSt8__detail21_Local_const_iteratorINSt7__cxx1112basic_stringIcSt11char_traitsIcESaIcEEES6_NS_9_IdentityESt4hashIS6_ENS_18_Mod_range_hashingENS_20_Default_ranged_hashELb1ELb1EEC1ERKNS_15_Local_iteratorIS6_S6_S7_S9_SA_SB_Lb1ELb1EEE, symObjAddr: 0xEED4, symBinAddr: 0x100012D90, symSize: 0x38 }
  - { offsetInCU: 0x483DD, offset: 0x483DD, size: 0x8, addend: 0x0, symName: __ZNKSt10_HashtableINSt7__cxx1112basic_stringIcSt11char_traitsIcESaIcEEES5_SaIS5_ENSt8__detail9_IdentityESt8equal_toIS5_ESt4hashIS5_ENS7_18_Mod_range_hashingENS7_20_Default_ranged_hashENS7_20_Prime_rehash_policyENS7_17_Hashtable_traitsILb1ELb1ELb1EEEE4cendEm, symObjAddr: 0xEE84, symBinAddr: 0x100012D40, symSize: 0x3C }
  - { offsetInCU: 0x483E5, offset: 0x483E5, size: 0x8, addend: 0x0, symName: __ZN11__gnu_debug20_Safe_local_iteratorINSt8__detail15_Local_iteratorINSt7__cxx1112basic_stringIcSt11char_traitsIcESaIcEEES8_NS1_9_IdentityESt4hashIS8_ENS1_18_Mod_range_hashingENS1_20_Default_ranged_hashELb1ELb1EEENSt7__debug13unordered_setIS8_SB_St8equal_toIS8_ESaIS8_EEEE4baseEv, symObjAddr: 0xEEC0, symBinAddr: 0x100012D7C, symSize: 0x14 }
  - { offsetInCU: 0x484CB, offset: 0x484CB, size: 0x8, addend: 0x0, symName: __ZNSt8__detail19_Node_iterator_baseINSt7__cxx1112basic_stringIcSt11char_traitsIcESaIcEEELb1EEC2EPNS_10_Hash_nodeIS6_Lb1EEE, symObjAddr: 0xEE60, symBinAddr: 0x100012D1C, symSize: 0x24 }
  - { offsetInCU: 0x484D3, offset: 0x484D3, size: 0x8, addend: 0x0, symName: __ZNKSt10_HashtableINSt7__cxx1112basic_stringIcSt11char_traitsIcESaIcEEES5_SaIS5_ENSt8__detail9_IdentityESt8equal_toIS5_ESt4hashIS5_ENS7_18_Mod_range_hashingENS7_20_Default_ranged_hashENS7_20_Prime_rehash_policyENS7_17_Hashtable_traitsILb1ELb1ELb1EEEE4cendEm, symObjAddr: 0xEE84, symBinAddr: 0x100012D40, symSize: 0x3C }
  - { offsetInCU: 0x4853A, offset: 0x4853A, size: 0x8, addend: 0x0, symName: __ZNSt8__detail20_Node_const_iteratorINSt7__cxx1112basic_stringIcSt11char_traitsIcESaIcEEELb1ELb1EEC1EPNS_10_Hash_nodeIS6_Lb1EEE, symObjAddr: 0xEE38, symBinAddr: 0x100012CF4, symSize: 0x28 }
  - { offsetInCU: 0x48542, offset: 0x48542, size: 0x8, addend: 0x0, symName: __ZNSt8__detail19_Node_iterator_baseINSt7__cxx1112basic_stringIcSt11char_traitsIcESaIcEEELb1EEC2EPNS_10_Hash_nodeIS6_Lb1EEE, symObjAddr: 0xEE60, symBinAddr: 0x100012D1C, symSize: 0x24 }
  - { offsetInCU: 0x48528, offset: 0x48528, size: 0x8, addend: 0x0, symName: __ZNSt8__detail16_Hashtable_allocISaINS_10_Hash_nodeINSt7__cxx1112basic_stringIcSt11char_traitsIcESaIcEEELb1EEEEE22_M_deallocate_node_ptrEPS8_, symObjAddr: 0xEDE0, symBinAddr: 0x100012C9C, symSize: 0x58 }
  - { offsetInCU: 0x48530, offset: 0x48530, size: 0x8, addend: 0x0, symName: __ZNSt8__detail20_Node_const_iteratorINSt7__cxx1112basic_stringIcSt11char_traitsIcESaIcEEELb1ELb1EEC1EPNS_10_Hash_nodeIS6_Lb1EEE, symObjAddr: 0xEE38, symBinAddr: 0x100012CF4, symSize: 0x28 }
  - { offsetInCU: 0x48602, offset: 0x48602, size: 0x8, addend: 0x0, symName: __ZNSt10_HashtableIiSt4pairIKiNSt7__debug13unordered_setINSt7__cxx1112basic_stringIcSt11char_traitsIcESaIcEEESt4hashIS9_ESt8equal_toIS9_ESaIS9_EEEESaISG_ENSt8__detail10_Select1stESC_IiESA_IiENSI_18_Mod_range_hashingENSI_20_Default_ranged_hashENSI_20_Prime_rehash_policyENSI_17_Hashtable_traitsILb0ELb0ELb1EEEE13_M_rehash_auxEmSt17integral_constantIbLb1EE, symObjAddr: 0xEC74, symBinAddr: 0x100012B30, symSize: 0x16C }
  - { offsetInCU: 0x4860A, offset: 0x4860A, size: 0x8, addend: 0x0, symName: __ZNSt8__detail16_Hashtable_allocISaINS_10_Hash_nodeINSt7__cxx1112basic_stringIcSt11char_traitsIcESaIcEEELb1EEEEE22_M_deallocate_node_ptrEPS8_, symObjAddr: 0xEDE0, symBinAddr: 0x100012C9C, symSize: 0x58 }
  - { offsetInCU: 0x488D8, offset: 0x488D8, size: 0x8, addend: 0x0, symName: __ZSt12__to_addressINSt8__detail10_Hash_nodeISt4pairIKiNSt7__debug13unordered_setINSt7__cxx1112basic_stringIcSt11char_traitsIcESaIcEEESt4hashISB_ESt8equal_toISB_ESaISB_EEEELb0EEEEPT_SL_, symObjAddr: 0xEC60, symBinAddr: 0x100012B1C, symSize: 0x14 }
  - { offsetInCU: 0x488E0, offset: 0x488E0, size: 0x8, addend: 0x0, symName: __ZNSt10_HashtableIiSt4pairIKiNSt7__debug13unordered_setINSt7__cxx1112basic_stringIcSt11char_traitsIcESaIcEEESt4hashIS9_ESt8equal_toIS9_ESaIS9_EEEESaISG_ENSt8__detail10_Select1stESC_IiESA_IiENSI_18_Mod_range_hashingENSI_20_Default_ranged_hashENSI_20_Prime_rehash_policyENSI_17_Hashtable_traitsILb0ELb0ELb1EEEE13_M_rehash_auxEmSt17integral_constantIbLb1EE, symObjAddr: 0xEC74, symBinAddr: 0x100012B30, symSize: 0x16C }
  - { offsetInCU: 0x48870, offset: 0x48870, size: 0x8, addend: 0x0, symName: __ZNSt11_Tuple_implILm0EJOiEEC2IiEEOT_, symObjAddr: 0xEC24, symBinAddr: 0x100012AE0, symSize: 0x3C }
  - { offsetInCU: 0x48878, offset: 0x48878, size: 0x8, addend: 0x0, symName: __ZSt12__to_addressINSt8__detail10_Hash_nodeISt4pairIKiNSt7__debug13unordered_setINSt7__cxx1112basic_stringIcSt11char_traitsIcESaIcEEESt4hashISB_ESt8equal_toISB_ESaISB_EEEELb0EEEEPT_SL_, symObjAddr: 0xEC60, symBinAddr: 0x100012B1C, symSize: 0x14 }
  - { offsetInCU: 0x48894, offset: 0x48894, size: 0x8, addend: 0x0, symName: __ZN9__gnu_cxx16__aligned_bufferISt4pairIKiNSt7__debug13unordered_setINSt7__cxx1112basic_stringIcSt11char_traitsIcESaIcEEESt4hashISA_ESt8equal_toISA_ESaISA_EEEEE6_M_ptrEv, symObjAddr: 0xEC08, symBinAddr: 0x100012AC4, symSize: 0x1C }
  - { offsetInCU: 0x4889C, offset: 0x4889C, size: 0x8, addend: 0x0, symName: __ZNSt11_Tuple_implILm0EJOiEEC2IiEEOT_, symObjAddr: 0xEC24, symBinAddr: 0x100012AE0, symSize: 0x3C }
  - { offsetInCU: 0x488C5, offset: 0x488C5, size: 0x8, addend: 0x0, symName: __ZNKSt10_HashtableIiSt4pairIKiNSt7__debug13unordered_setINSt7__cxx1112basic_stringIcSt11char_traitsIcESaIcEEESt4hashIS9_ESt8equal_toIS9_ESaIS9_EEEESaISG_ENSt8__detail10_Select1stESC_IiESA_IiENSI_18_Mod_range_hashingENSI_20_Default_ranged_hashENSI_20_Prime_rehash_policyENSI_17_Hashtable_traitsILb0ELb0ELb1EEEE15_M_bucket_indexERKNSI_16_Hash_node_valueISG_Lb0EEE, symObjAddr: 0xEBD8, symBinAddr: 0x100012A94, symSize: 0x30 }
  - { offsetInCU: 0x488CD, offset: 0x488CD, size: 0x8, addend: 0x0, symName: __ZN9__gnu_cxx16__aligned_bufferISt4pairIKiNSt7__debug13unordered_setINSt7__cxx1112basic_stringIcSt11char_traitsIcESaIcEEESt4hashISA_ESt8equal_toISA_ESaISA_EEEEE6_M_ptrEv, symObjAddr: 0xEC08, symBinAddr: 0x100012AC4, symSize: 0x1C }
  - { offsetInCU: 0x4890B, offset: 0x4890B, size: 0x8, addend: 0x0, symName: __ZNKSt8__detail15_Hashtable_baseIiSt4pairIKiNSt7__debug13unordered_setINSt7__cxx1112basic_stringIcSt11char_traitsIcESaIcEEESt4hashISA_ESt8equal_toISA_ESaISA_EEEENS_10_Select1stESD_IiESB_IiENS_18_Mod_range_hashingENS_20_Default_ranged_hashENS_17_Hashtable_traitsILb0ELb0ELb1EEEE9_M_equalsERS2_mRKNS_16_Hash_node_valueISH_Lb0EEE, symObjAddr: 0xEB70, symBinAddr: 0x100012A2C, symSize: 0x68 }
  - { offsetInCU: 0x48913, offset: 0x48913, size: 0x8, addend: 0x0, symName: __ZNKSt10_HashtableIiSt4pairIKiNSt7__debug13unordered_setINSt7__cxx1112basic_stringIcSt11char_traitsIcESaIcEEESt4hashIS9_ESt8equal_toIS9_ESaIS9_EEEESaISG_ENSt8__detail10_Select1stESC_IiESA_IiENSI_18_Mod_range_hashingENSI_20_Default_ranged_hashENSI_20_Prime_rehash_policyENSI_17_Hashtable_traitsILb0ELb0ELb1EEEE15_M_bucket_indexERKNSI_16_Hash_node_valueISG_Lb0EEE, symObjAddr: 0xEBD8, symBinAddr: 0x100012A94, symSize: 0x30 }
  - { offsetInCU: 0x4897B, offset: 0x4897B, size: 0x8, addend: 0x0, symName: __ZNKSt8__detail21_Hashtable_ebo_helperILi1ESt4hashIiELb1EE7_M_cgetEv, symObjAddr: 0xEB5C, symBinAddr: 0x100012A18, symSize: 0x14 }
  - { offsetInCU: 0x48983, offset: 0x48983, size: 0x8, addend: 0x0, symName: __ZNKSt8__detail15_Hashtable_baseIiSt4pairIKiNSt7__debug13unordered_setINSt7__cxx1112basic_stringIcSt11char_traitsIcESaIcEEESt4hashISA_ESt8equal_toISA_ESaISA_EEEENS_10_Select1stESD_IiESB_IiENS_18_Mod_range_hashingENS_20_Default_ranged_hashENS_17_Hashtable_traitsILb0ELb0ELb1EEEE9_M_equalsERS2_mRKNS_16_Hash_node_valueISH_Lb0EEE, symObjAddr: 0xEB70, symBinAddr: 0x100012A2C, symSize: 0x68 }
  - { offsetInCU: 0x48A9F, offset: 0x48A9F, size: 0x8, addend: 0x0, symName: __ZNSt8__detail19_Node_iterator_baseISt4pairIKiNSt7__debug13unordered_setINSt7__cxx1112basic_stringIcSt11char_traitsIcESaIcEEESt4hashISA_ESt8equal_toISA_ESaISA_EEEELb0EEC2EPNS_10_Hash_nodeISH_Lb0EEE, symObjAddr: 0xEB38, symBinAddr: 0x1000129F4, symSize: 0x24 }
  - { offsetInCU: 0x48AA7, offset: 0x48AA7, size: 0x8, addend: 0x0, symName: __ZNKSt8__detail21_Hashtable_ebo_helperILi1ESt4hashIiELb1EE7_M_cgetEv, symObjAddr: 0xEB5C, symBinAddr: 0x100012A18, symSize: 0x14 }
  - { offsetInCU: 0x48A16, offset: 0x48A16, size: 0x8, addend: 0x0, symName: __ZNKSt8equal_toIiEclERKiS2_, symObjAddr: 0xEB04, symBinAddr: 0x1000129C0, symSize: 0x34 }
  - { offsetInCU: 0x48A1E, offset: 0x48A1E, size: 0x8, addend: 0x0, symName: __ZNSt8__detail19_Node_iterator_baseISt4pairIKiNSt7__debug13unordered_setINSt7__cxx1112basic_stringIcSt11char_traitsIcESaIcEEESt4hashISA_ESt8equal_toISA_ESaISA_EEEELb0EEC2EPNS_10_Hash_nodeISH_Lb0EEE, symObjAddr: 0xEB38, symBinAddr: 0x1000129F4, symSize: 0x24 }
  - { offsetInCU: 0x48A71, offset: 0x48A71, size: 0x8, addend: 0x0, symName: __ZNKSt8__detail10_Select1stclIRKSt4pairIKiNSt7__debug13unordered_setINSt7__cxx1112basic_stringIcSt11char_traitsIcESaIcEEESt4hashISB_ESt8equal_toISB_ESaISB_EEEEEEONS0_10__1st_typeIT_E4typeEOSM_, symObjAddr: 0xEAE4, symBinAddr: 0x1000129A0, symSize: 0x20 }
  - { offsetInCU: 0x48A79, offset: 0x48A79, size: 0x8, addend: 0x0, symName: __ZNKSt8equal_toIiEclERKiS2_, symObjAddr: 0xEB04, symBinAddr: 0x1000129C0, symSize: 0x34 }
  - { offsetInCU: 0x48AC3, offset: 0x48AC3, size: 0x8, addend: 0x0, symName: __ZNKSt8__detail21_Hash_node_value_baseISt4pairIKiNSt7__debug13unordered_setINSt7__cxx1112basic_stringIcSt11char_traitsIcESaIcEEESt4hashISA_ESt8equal_toISA_ESaISA_EEEEE4_M_vEv, symObjAddr: 0xEAC8, symBinAddr: 0x100012984, symSize: 0x1C }
  - { offsetInCU: 0x48ACB, offset: 0x48ACB, size: 0x8, addend: 0x0, symName: __ZNKSt8__detail10_Select1stclIRKSt4pairIKiNSt7__debug13unordered_setINSt7__cxx1112basic_stringIcSt11char_traitsIcESaIcEEESt4hashISB_ESt8equal_toISB_ESaISB_EEEEEEONS0_10__1st_typeIT_E4typeEOSM_, symObjAddr: 0xEAE4, symBinAddr: 0x1000129A0, symSize: 0x20 }
  - { offsetInCU: 0x48AF4, offset: 0x48AF4, size: 0x8, addend: 0x0, symName: __ZNKSt8__detail15_Hashtable_baseIiSt4pairIKiNSt7__debug13unordered_setINSt7__cxx1112basic_stringIcSt11char_traitsIcESaIcEEESt4hashISA_ESt8equal_toISA_ESaISA_EEEENS_10_Select1stESD_IiESB_IiENS_18_Mod_range_hashingENS_20_Default_ranged_hashENS_17_Hashtable_traitsILb0ELb0ELb1EEEE5_M_eqEv, symObjAddr: 0xEAAC, symBinAddr: 0x100012968, symSize: 0x1C }
  - { offsetInCU: 0x48AFC, offset: 0x48AFC, size: 0x8, addend: 0x0, symName: __ZNKSt8__detail21_Hash_node_value_baseISt4pairIKiNSt7__debug13unordered_setINSt7__cxx1112basic_stringIcSt11char_traitsIcESaIcEEESt4hashISA_ESt8equal_toISA_ESaISA_EEEEE4_M_vEv, symObjAddr: 0xEAC8, symBinAddr: 0x100012984, symSize: 0x1C }
  - { offsetInCU: 0x48B26, offset: 0x48B26, size: 0x8, addend: 0x0, symName: __ZNSt8__detail22_Hashtable_hash_traitsISt4hashIiEE22__small_size_thresholdEv, symObjAddr: 0xEAA4, symBinAddr: 0x100012960, symSize: 0x8 }
  - { offsetInCU: 0x48B2E, offset: 0x48B2E, size: 0x8, addend: 0x0, symName: __ZNKSt8__detail15_Hashtable_baseIiSt4pairIKiNSt7__debug13unordered_setINSt7__cxx1112basic_stringIcSt11char_traitsIcESaIcEEESt4hashISA_ESt8equal_toISA_ESaISA_EEEENS_10_Select1stESD_IiESB_IiENS_18_Mod_range_hashingENS_20_Default_ranged_hashENS_17_Hashtable_traitsILb0ELb0ELb1EEEE5_M_eqEv, symObjAddr: 0xEAAC, symBinAddr: 0x100012968, symSize: 0x1C }
  - { offsetInCU: 0x48B73, offset: 0x48B73, size: 0x8, addend: 0x0, symName: __ZNSt8__detail16_Hashtable_allocISaINS_10_Hash_nodeISt4pairIKiNSt7__debug13unordered_setINSt7__cxx1112basic_stringIcSt11char_traitsIcESaIcEEESt4hashISB_ESt8equal_toISB_ESaISB_EEEELb0EEEEE22_M_deallocate_node_ptrEPSJ_, symObjAddr: 0xEA4C, symBinAddr: 0x100012908, symSize: 0x58 }
  - { offsetInCU: 0x48B7B, offset: 0x48B7B, size: 0x8, addend: 0x0, symName: __ZNSt8__detail22_Hashtable_hash_traitsISt4hashIiEE22__small_size_thresholdEv, symObjAddr: 0xEAA4, symBinAddr: 0x100012960, symSize: 0x8 }
  - { offsetInCU: 0x48C4D, offset: 0x48C4D, size: 0x8, addend: 0x0, symName: __ZNSt8__detail16_Hashtable_allocISaINS_10_Hash_nodeISt4pairIKiNSt7__debug13unordered_setINSt7__cxx1112basic_stringIcSt11char_traitsIcESaIcEEESt4hashISB_ESt8equal_toISB_ESaISB_EEEELb0EEEEE17_M_node_allocatorEv, symObjAddr: 0xEA30, symBinAddr: 0x1000128EC, symSize: 0x1C }
  - { offsetInCU: 0x48C55, offset: 0x48C55, size: 0x8, addend: 0x0, symName: __ZNSt8__detail16_Hashtable_allocISaINS_10_Hash_nodeISt4pairIKiNSt7__debug13unordered_setINSt7__cxx1112basic_stringIcSt11char_traitsIcESaIcEEESt4hashISB_ESt8equal_toISB_ESaISB_EEEELb0EEEEE22_M_deallocate_node_ptrEPSJ_, symObjAddr: 0xEA4C, symBinAddr: 0x100012908, symSize: 0x58 }
  - { offsetInCU: 0x48CAF, offset: 0x48CAF, size: 0x8, addend: 0x0, symName: __ZNSt8__detail16_Hashtable_allocISaINS_10_Hash_nodeISt4pairIKiNSt7__debug6vectorINSt7__cxx1112basic_stringIcSt11char_traitsIcESaIcEEESaISB_EEEELb0EEEEE22_M_deallocate_node_ptrEPSF_, symObjAddr: 0xE9D8, symBinAddr: 0x100012894, symSize: 0x58 }
  - { offsetInCU: 0x48CB7, offset: 0x48CB7, size: 0x8, addend: 0x0, symName: __ZNSt8__detail16_Hashtable_allocISaINS_10_Hash_nodeISt4pairIKiNSt7__debug13unordered_setINSt7__cxx1112basic_stringIcSt11char_traitsIcESaIcEEESt4hashISB_ESt8equal_toISB_ESaISB_EEEELb0EEEEE17_M_node_allocatorEv, symObjAddr: 0xEA30, symBinAddr: 0x1000128EC, symSize: 0x1C }
  - { offsetInCU: 0x48D89, offset: 0x48D89, size: 0x8, addend: 0x0, symName: __ZNSt8__detail16_Hashtable_allocISaINS_10_Hash_nodeISt4pairIKiNSt7__debug6vectorINSt7__cxx1112basic_stringIcSt11char_traitsIcESaIcEEESaISB_EEEELb0EEEEE17_M_node_allocatorEv, symObjAddr: 0xE9BC, symBinAddr: 0x100012878, symSize: 0x1C }
  - { offsetInCU: 0x48D91, offset: 0x48D91, size: 0x8, addend: 0x0, symName: __ZNSt8__detail16_Hashtable_allocISaINS_10_Hash_nodeISt4pairIKiNSt7__debug6vectorINSt7__cxx1112basic_stringIcSt11char_traitsIcESaIcEEESaISB_EEEELb0EEEEE22_M_deallocate_node_ptrEPSF_, symObjAddr: 0xE9D8, symBinAddr: 0x100012894, symSize: 0x58 }
  - { offsetInCU: 0x48DBA, offset: 0x48DBA, size: 0x8, addend: 0x0, symName: __ZNSt10_HashtableINSt7__cxx1112basic_stringIcSt11char_traitsIcESaIcEEESt4pairIKS5_iESaIS8_ENSt8__detail10_Select1stESt8equal_toIS5_ESt4hashIS5_ENSA_18_Mod_range_hashingENSA_20_Default_ranged_hashENSA_20_Prime_rehash_policyENSA_17_Hashtable_traitsILb1ELb0ELb1EEEE13_M_rehash_auxEmSt17integral_constantIbLb1EE, symObjAddr: 0xE850, symBinAddr: 0x10001270C, symSize: 0x16C }
  - { offsetInCU: 0x48DC2, offset: 0x48DC2, size: 0x8, addend: 0x0, symName: __ZNSt8__detail16_Hashtable_allocISaINS_10_Hash_nodeISt4pairIKiNSt7__debug6vectorINSt7__cxx1112basic_stringIcSt11char_traitsIcESaIcEEESaISB_EEEELb0EEEEE17_M_node_allocatorEv, symObjAddr: 0xE9BC, symBinAddr: 0x100012878, symSize: 0x1C }
  - { offsetInCU: 0x49030, offset: 0x49030, size: 0x8, addend: 0x0, symName: __ZSt12__to_addressINSt8__detail10_Hash_nodeISt4pairIKNSt7__cxx1112basic_stringIcSt11char_traitsIcESaIcEEEiELb1EEEEPT_SD_, symObjAddr: 0xE83C, symBinAddr: 0x1000126F8, symSize: 0x14 }
  - { offsetInCU: 0x49038, offset: 0x49038, size: 0x8, addend: 0x0, symName: __ZNSt10_HashtableINSt7__cxx1112basic_stringIcSt11char_traitsIcESaIcEEESt4pairIKS5_iESaIS8_ENSt8__detail10_Select1stESt8equal_toIS5_ESt4hashIS5_ENSA_18_Mod_range_hashingENSA_20_Default_ranged_hashENSA_20_Prime_rehash_policyENSA_17_Hashtable_traitsILb1ELb0ELb1EEEE13_M_rehash_auxEmSt17integral_constantIbLb1EE, symObjAddr: 0xE850, symBinAddr: 0x10001270C, symSize: 0x16C }
  - { offsetInCU: 0x4904C, offset: 0x4904C, size: 0x8, addend: 0x0, symName: __ZNSt10_Head_baseILm0ERKNSt7__cxx1112basic_stringIcSt11char_traitsIcESaIcEEELb0EEC2ES7_, symObjAddr: 0xE818, symBinAddr: 0x1000126D4, symSize: 0x24 }
  - { offsetInCU: 0x49054, offset: 0x49054, size: 0x8, addend: 0x0, symName: __ZSt12__to_addressINSt8__detail10_Hash_nodeISt4pairIKNSt7__cxx1112basic_stringIcSt11char_traitsIcESaIcEEEiELb1EEEEPT_SD_, symObjAddr: 0xE83C, symBinAddr: 0x1000126F8, symSize: 0x14 }
  - { offsetInCU: 0x49031, offset: 0x49031, size: 0x8, addend: 0x0, symName: __ZN9__gnu_cxx16__aligned_bufferISt4pairIKNSt7__cxx1112basic_stringIcSt11char_traitsIcESaIcEEEiEE6_M_ptrEv, symObjAddr: 0xE7FC, symBinAddr: 0x1000126B8, symSize: 0x1C }
  - { offsetInCU: 0x49039, offset: 0x49039, size: 0x8, addend: 0x0, symName: __ZNSt10_Head_baseILm0ERKNSt7__cxx1112basic_stringIcSt11char_traitsIcESaIcEEELb0EEC2ES7_, symObjAddr: 0xE818, symBinAddr: 0x1000126D4, symSize: 0x24 }
  - { offsetInCU: 0x49062, offset: 0x49062, size: 0x8, addend: 0x0, symName: __ZNKSt10_HashtableINSt7__cxx1112basic_stringIcSt11char_traitsIcESaIcEEESt4pairIKS5_iESaIS8_ENSt8__detail10_Select1stESt8equal_toIS5_ESt4hashIS5_ENSA_18_Mod_range_hashingENSA_20_Default_ranged_hashENSA_20_Prime_rehash_policyENSA_17_Hashtable_traitsILb1ELb0ELb1EEEE15_M_bucket_indexERKNSA_16_Hash_node_valueIS8_Lb1EEE, symObjAddr: 0xE7CC, symBinAddr: 0x100012688, symSize: 0x30 }
  - { offsetInCU: 0x4906A, offset: 0x4906A, size: 0x8, addend: 0x0, symName: __ZN9__gnu_cxx16__aligned_bufferISt4pairIKNSt7__cxx1112basic_stringIcSt11char_traitsIcESaIcEEEiEE6_M_ptrEv, symObjAddr: 0xE7FC, symBinAddr: 0x1000126B8, symSize: 0x1C }
  - { offsetInCU: 0x490A8, offset: 0x490A8, size: 0x8, addend: 0x0, symName: __ZNKSt8__detail15_Hashtable_baseINSt7__cxx1112basic_stringIcSt11char_traitsIcESaIcEEESt4pairIKS6_iENS_10_Select1stESt8equal_toIS6_ESt4hashIS6_ENS_18_Mod_range_hashingENS_20_Default_ranged_hashENS_17_Hashtable_traitsILb1ELb0ELb1EEEE9_M_equalsERS8_mRKNS_16_Hash_node_valueIS9_Lb1EEE, symObjAddr: 0xE75C, symBinAddr: 0x100012618, symSize: 0x70 }
  - { offsetInCU: 0x490B0, offset: 0x490B0, size: 0x8, addend: 0x0, symName: __ZNKSt10_HashtableINSt7__cxx1112basic_stringIcSt11char_traitsIcESaIcEEESt4pairIKS5_iESaIS8_ENSt8__detail10_Select1stESt8equal_toIS5_ESt4hashIS5_ENSA_18_Mod_range_hashingENSA_20_Default_ranged_hashENSA_20_Prime_rehash_policyENSA_17_Hashtable_traitsILb1ELb0ELb1EEEE15_M_bucket_indexERKNSA_16_Hash_node_valueIS8_Lb1EEE, symObjAddr: 0xE7CC, symBinAddr: 0x100012688, symSize: 0x30 }
  - { offsetInCU: 0x49118, offset: 0x49118, size: 0x8, addend: 0x0, symName: __ZNKSt8__detail21_Hashtable_ebo_helperILi1ESt4hashINSt7__cxx1112basic_stringIcSt11char_traitsIcESaIcEEEELb1EE7_M_cgetEv, symObjAddr: 0xE748, symBinAddr: 0x100012604, symSize: 0x14 }
  - { offsetInCU: 0x49120, offset: 0x49120, size: 0x8, addend: 0x0, symName: __ZNKSt8__detail15_Hashtable_baseINSt7__cxx1112basic_stringIcSt11char_traitsIcESaIcEEESt4pairIKS6_iENS_10_Select1stESt8equal_toIS6_ESt4hashIS6_ENS_18_Mod_range_hashingENS_20_Default_ranged_hashENS_17_Hashtable_traitsILb1ELb0ELb1EEEE9_M_equalsERS8_mRKNS_16_Hash_node_valueIS9_Lb1EEE, symObjAddr: 0xE75C, symBinAddr: 0x100012618, symSize: 0x70 }
  - { offsetInCU: 0x49149, offset: 0x49149, size: 0x8, addend: 0x0, symName: __ZNSt9__cxx199813unordered_mapINSt7__cxx1112basic_stringIcSt11char_traitsIcESaIcEEEiSt4hashIS6_ESt8equal_toIS6_ESaISt4pairIKS6_iEEE5beginEv, symObjAddr: 0xE72C, symBinAddr: 0x1000125E8, symSize: 0x1C }
  - { offsetInCU: 0x49151, offset: 0x49151, size: 0x8, addend: 0x0, symName: __ZNKSt8__detail21_Hashtable_ebo_helperILi1ESt4hashINSt7__cxx1112basic_stringIcSt11char_traitsIcESaIcEEEELb1EE7_M_cgetEv, symObjAddr: 0xE748, symBinAddr: 0x100012604, symSize: 0x14 }
  - { offsetInCU: 0x4917A, offset: 0x4917A, size: 0x8, addend: 0x0, symName: __ZNSt7__debug13unordered_mapINSt7__cxx1112basic_stringIcSt11char_traitsIcESaIcEEEiSt4hashIS6_ESt8equal_toIS6_ESaISt4pairIKS6_iEEE7_M_baseEv, symObjAddr: 0xE714, symBinAddr: 0x1000125D0, symSize: 0x18 }
  - { offsetInCU: 0x49182, offset: 0x49182, size: 0x8, addend: 0x0, symName: __ZNSt9__cxx199813unordered_mapINSt7__cxx1112basic_stringIcSt11char_traitsIcESaIcEEEiSt4hashIS6_ESt8equal_toIS6_ESaISt4pairIKS6_iEEE5beginEv, symObjAddr: 0xE72C, symBinAddr: 0x1000125E8, symSize: 0x1C }
  - { offsetInCU: 0x491AB, offset: 0x491AB, size: 0x8, addend: 0x0, symName: __ZN11__gnu_debug18_BeforeBeginHelperINSt7__debug13unordered_mapINSt7__cxx1112basic_stringIcSt11char_traitsIcESaIcEEEiSt4hashIS8_ESt8equal_toIS8_ESaISt4pairIKS8_iEEEEE5_S_IsINSt8__detail14_Node_iteratorISF_Lb0ELb1EEESt20forward_iterator_tagEEbRKNS_14_Safe_iteratorIT_SH_T0_EE, symObjAddr: 0xE700, symBinAddr: 0x1000125BC, symSize: 0x14 }
  - { offsetInCU: 0x491B3, offset: 0x491B3, size: 0x8, addend: 0x0, symName: __ZNSt7__debug13unordered_mapINSt7__cxx1112basic_stringIcSt11char_traitsIcESaIcEEEiSt4hashIS6_ESt8equal_toIS6_ESaISt4pairIKS6_iEEE7_M_baseEv, symObjAddr: 0xE714, symBinAddr: 0x1000125D0, symSize: 0x18 }
  - { offsetInCU: 0x492A4, offset: 0x492A4, size: 0x8, addend: 0x0, symName: __ZNSt8__detail19_Node_iterator_baseISt4pairIKNSt7__cxx1112basic_stringIcSt11char_traitsIcESaIcEEEiELb1EEC2EPNS_10_Hash_nodeIS9_Lb1EEE, symObjAddr: 0xE6DC, symBinAddr: 0x100012598, symSize: 0x24 }
  - { offsetInCU: 0x492AC, offset: 0x492AC, size: 0x8, addend: 0x0, symName: __ZN11__gnu_debug18_BeforeBeginHelperINSt7__debug13unordered_mapINSt7__cxx1112basic_stringIcSt11char_traitsIcESaIcEEEiSt4hashIS8_ESt8equal_toIS8_ESaISt4pairIKS8_iEEEEE5_S_IsINSt8__detail14_Node_iteratorISF_Lb0ELb1EEESt20forward_iterator_tagEEbRKNS_14_Safe_iteratorIT_SH_T0_EE, symObjAddr: 0xE700, symBinAddr: 0x1000125BC, symSize: 0x14 }
  - { offsetInCU: 0x4925B, offset: 0x4925B, size: 0x8, addend: 0x0, symName: __ZNKSt8equal_toINSt7__cxx1112basic_stringIcSt11char_traitsIcESaIcEEEEclERKS5_S8_, symObjAddr: 0xE6B0, symBinAddr: 0x10001256C, symSize: 0x2C }
  - { offsetInCU: 0x49263, offset: 0x49263, size: 0x8, addend: 0x0, symName: __ZNSt8__detail19_Node_iterator_baseISt4pairIKNSt7__cxx1112basic_stringIcSt11char_traitsIcESaIcEEEiELb1EEC2EPNS_10_Hash_nodeIS9_Lb1EEE, symObjAddr: 0xE6DC, symBinAddr: 0x100012598, symSize: 0x24 }
  - { offsetInCU: 0x492B6, offset: 0x492B6, size: 0x8, addend: 0x0, symName: __ZNKSt8__detail10_Select1stclIRKSt4pairIKNSt7__cxx1112basic_stringIcSt11char_traitsIcESaIcEEEiEEEONS0_10__1st_typeIT_E4typeEOSE_, symObjAddr: 0xE690, symBinAddr: 0x10001254C, symSize: 0x20 }
  - { offsetInCU: 0x492BE, offset: 0x492BE, size: 0x8, addend: 0x0, symName: __ZNKSt8equal_toINSt7__cxx1112basic_stringIcSt11char_traitsIcESaIcEEEEclERKS5_S8_, symObjAddr: 0xE6B0, symBinAddr: 0x10001256C, symSize: 0x2C }
  - { offsetInCU: 0x49308, offset: 0x49308, size: 0x8, addend: 0x0, symName: __ZNKSt8__detail21_Hash_node_value_baseISt4pairIKNSt7__cxx1112basic_stringIcSt11char_traitsIcESaIcEEEiEE4_M_vEv, symObjAddr: 0xE674, symBinAddr: 0x100012530, symSize: 0x1C }
  - { offsetInCU: 0x49310, offset: 0x49310, size: 0x8, addend: 0x0, symName: __ZNKSt8__detail10_Select1stclIRKSt4pairIKNSt7__cxx1112basic_stringIcSt11char_traitsIcESaIcEEEiEEEONS0_10__1st_typeIT_E4typeEOSE_, symObjAddr: 0xE690, symBinAddr: 0x10001254C, symSize: 0x20 }
  - { offsetInCU: 0x49339, offset: 0x49339, size: 0x8, addend: 0x0, symName: __ZNKSt8__detail15_Hashtable_baseINSt7__cxx1112basic_stringIcSt11char_traitsIcESaIcEEESt4pairIKS6_iENS_10_Select1stESt8equal_toIS6_ESt4hashIS6_ENS_18_Mod_range_hashingENS_20_Default_ranged_hashENS_17_Hashtable_traitsILb1ELb0ELb1EEEE5_M_eqEv, symObjAddr: 0xE658, symBinAddr: 0x100012514, symSize: 0x1C }
  - { offsetInCU: 0x49341, offset: 0x49341, size: 0x8, addend: 0x0, symName: __ZNKSt8__detail21_Hash_node_value_baseISt4pairIKNSt7__cxx1112basic_stringIcSt11char_traitsIcESaIcEEEiEE4_M_vEv, symObjAddr: 0xE674, symBinAddr: 0x100012530, symSize: 0x1C }
  - { offsetInCU: 0x4936A, offset: 0x4936A, size: 0x8, addend: 0x0, symName: __ZNSt8__detail19_Node_iterator_baseISt4pairIKNSt7__cxx1112basic_stringIcSt11char_traitsIcESaIcEEEiELb1EE7_M_incrEv, symObjAddr: 0xE628, symBinAddr: 0x1000124E4, symSize: 0x30 }
  - { offsetInCU: 0x49372, offset: 0x49372, size: 0x8, addend: 0x0, symName: __ZNKSt8__detail15_Hashtable_baseINSt7__cxx1112basic_stringIcSt11char_traitsIcESaIcEEESt4pairIKS6_iENS_10_Select1stESt8equal_toIS6_ESt4hashIS6_ENS_18_Mod_range_hashingENS_20_Default_ranged_hashENS_17_Hashtable_traitsILb1ELb0ELb1EEEE5_M_eqEv, symObjAddr: 0xE658, symBinAddr: 0x100012514, symSize: 0x1C }
  - { offsetInCU: 0x4939C, offset: 0x4939C, size: 0x8, addend: 0x0, symName: __ZNSt8__detail22_Hashtable_hash_traitsISt4hashINSt7__cxx1112basic_stringIcSt11char_traitsIcESaIcEEEEE22__small_size_thresholdEv, symObjAddr: 0xE620, symBinAddr: 0x1000124DC, symSize: 0x8 }
  - { offsetInCU: 0x493A4, offset: 0x493A4, size: 0x8, addend: 0x0, symName: __ZNSt8__detail19_Node_iterator_baseISt4pairIKNSt7__cxx1112basic_stringIcSt11char_traitsIcESaIcEEEiELb1EE7_M_incrEv, symObjAddr: 0xE628, symBinAddr: 0x1000124E4, symSize: 0x30 }
  - { offsetInCU: 0x49455, offset: 0x49455, size: 0x8, addend: 0x0, symName: __ZNSt19__ptr_traits_ptr_toIPPNSt8__detail15_Hash_node_baseES2_Lb0EE10pointer_toERS2_, symObjAddr: 0xE604, symBinAddr: 0x1000124C0, symSize: 0x1C }
  - { offsetInCU: 0x4945D, offset: 0x4945D, size: 0x8, addend: 0x0, symName: __ZNSt8__detail22_Hashtable_hash_traitsISt4hashINSt7__cxx1112basic_stringIcSt11char_traitsIcESaIcEEEEE22__small_size_thresholdEv, symObjAddr: 0xE620, symBinAddr: 0x1000124DC, symSize: 0x8 }
  - { offsetInCU: 0x49488, offset: 0x49488, size: 0x8, addend: 0x0, symName: __ZNSt8__detail16_Hashtable_allocISaINS_10_Hash_nodeISt4pairIKNSt7__cxx1112basic_stringIcSt11char_traitsIcESaIcEEEiELb1EEEEE22_M_deallocate_node_ptrEPSB_, symObjAddr: 0xE5AC, symBinAddr: 0x100012468, symSize: 0x58 }
  - { offsetInCU: 0x49490, offset: 0x49490, size: 0x8, addend: 0x0, symName: __ZNSt19__ptr_traits_ptr_toIPPNSt8__detail15_Hash_node_baseES2_Lb0EE10pointer_toERS2_, symObjAddr: 0xE604, symBinAddr: 0x1000124C0, symSize: 0x1C }
  - { offsetInCU: 0x49562, offset: 0x49562, size: 0x8, addend: 0x0, symName: __ZNSt8__detail16_Hashtable_allocISaINS_10_Hash_nodeISt4pairIKNSt7__cxx1112basic_stringIcSt11char_traitsIcESaIcEEEiELb1EEEEE17_M_node_allocatorEv, symObjAddr: 0xE590, symBinAddr: 0x10001244C, symSize: 0x1C }
  - { offsetInCU: 0x4956A, offset: 0x4956A, size: 0x8, addend: 0x0, symName: __ZNSt8__detail16_Hashtable_allocISaINS_10_Hash_nodeISt4pairIKNSt7__cxx1112basic_stringIcSt11char_traitsIcESaIcEEEiELb1EEEEE22_M_deallocate_node_ptrEPSB_, symObjAddr: 0xE5AC, symBinAddr: 0x100012468, symSize: 0x58 }
  - { offsetInCU: 0x49593, offset: 0x49593, size: 0x8, addend: 0x0, symName: __ZNSt15__new_allocatorIiE10deallocateEPim, symObjAddr: 0xE560, symBinAddr: 0x10001241C, symSize: 0x30 }
  - { offsetInCU: 0x4959B, offset: 0x4959B, size: 0x8, addend: 0x0, symName: __ZNSt8__detail16_Hashtable_allocISaINS_10_Hash_nodeISt4pairIKNSt7__cxx1112basic_stringIcSt11char_traitsIcESaIcEEEiELb1EEEEE17_M_node_allocatorEv, symObjAddr: 0xE590, symBinAddr: 0x10001244C, symSize: 0x1C }
  - { offsetInCU: 0x49640, offset: 0x49640, size: 0x8, addend: 0x0, symName: __ZSt18uninitialized_copyIPKiPiET0_T_S4_S3_, symObjAddr: 0xE524, symBinAddr: 0x1000123E0, symSize: 0x3C }
  - { offsetInCU: 0x49648, offset: 0x49648, size: 0x8, addend: 0x0, symName: __ZNSt15__new_allocatorIiE10deallocateEPim, symObjAddr: 0xE560, symBinAddr: 0x10001241C, symSize: 0x30 }
  - { offsetInCU: 0x496C3, offset: 0x496C3, size: 0x8, addend: 0x0, symName: __ZNSt9__cxx19986vectorIiSaIiEE11_S_max_sizeERKS1_, symObjAddr: 0xE4D0, symBinAddr: 0x10001238C, symSize: 0x54 }
  - { offsetInCU: 0x496CB, offset: 0x496CB, size: 0x8, addend: 0x0, symName: __ZSt18uninitialized_copyIPKiPiET0_T_S4_S3_, symObjAddr: 0xE524, symBinAddr: 0x1000123E0, symSize: 0x3C }
  - { offsetInCU: 0x497F1, offset: 0x497F1, size: 0x8, addend: 0x0, symName: __ZNSt9__cxx199812_Vector_baseIiSaIiEE17_Vector_impl_dataC2Ev, symObjAddr: 0xE4A4, symBinAddr: 0x100012360, symSize: 0x2C }
  - { offsetInCU: 0x497F9, offset: 0x497F9, size: 0x8, addend: 0x0, symName: __ZNSt9__cxx19986vectorIiSaIiEE11_S_max_sizeERKS1_, symObjAddr: 0xE4D0, symBinAddr: 0x10001238C, symSize: 0x54 }
  - { offsetInCU: 0x49885, offset: 0x49885, size: 0x8, addend: 0x0, symName: __ZSt8_DestroyINSt7__cxx1112basic_stringIcSt11char_traitsIcESaIcEEEEvPT_, symObjAddr: 0xE484, symBinAddr: 0x100012340, symSize: 0x20 }
  - { offsetInCU: 0x4988D, offset: 0x4988D, size: 0x8, addend: 0x0, symName: __ZNSt9__cxx199812_Vector_baseIiSaIiEE17_Vector_impl_dataC2Ev, symObjAddr: 0xE4A4, symBinAddr: 0x100012360, symSize: 0x2C }
  - { offsetInCU: 0x49902, offset: 0x49902, size: 0x8, addend: 0x0, symName: __ZSt18uninitialized_copyIPKPKcPNSt7__cxx1112basic_stringIcSt11char_traitsIcESaIcEEEET0_T_SC_SB_, symObjAddr: 0xE44C, symBinAddr: 0x100012308, symSize: 0x38 }
  - { offsetInCU: 0x4990A, offset: 0x4990A, size: 0x8, addend: 0x0, symName: __ZSt8_DestroyINSt7__cxx1112basic_stringIcSt11char_traitsIcESaIcEEEEvPT_, symObjAddr: 0xE484, symBinAddr: 0x100012340, symSize: 0x20 }
  - { offsetInCU: 0x4992B, offset: 0x4992B, size: 0x8, addend: 0x0, symName: __ZNSt9__cxx19986vectorINSt7__cxx1112basic_stringIcSt11char_traitsIcESaIcEEESaIS6_EE11_S_max_sizeERKS7_, symObjAddr: 0xE3F8, symBinAddr: 0x1000122B4, symSize: 0x54 }
  - { offsetInCU: 0x49933, offset: 0x49933, size: 0x8, addend: 0x0, symName: __ZSt18uninitialized_copyIPKPKcPNSt7__cxx1112basic_stringIcSt11char_traitsIcESaIcEEEET0_T_SC_SB_, symObjAddr: 0xE44C, symBinAddr: 0x100012308, symSize: 0x38 }
  - { offsetInCU: 0x49A4C, offset: 0x49A4C, size: 0x8, addend: 0x0, symName: __ZSt11__addressofIKPKPKcEPT_RS5_, symObjAddr: 0xE3E4, symBinAddr: 0x1000122A0, symSize: 0x14 }
  - { offsetInCU: 0x49A54, offset: 0x49A54, size: 0x8, addend: 0x0, symName: __ZNSt9__cxx19986vectorINSt7__cxx1112basic_stringIcSt11char_traitsIcESaIcEEESaIS6_EE11_S_max_sizeERKS7_, symObjAddr: 0xE3F8, symBinAddr: 0x1000122B4, symSize: 0x54 }
  - { offsetInCU: 0x49AB0, offset: 0x49AB0, size: 0x8, addend: 0x0, symName: __ZN11__gnu_debug17__valid_range_auxIPKPKcEEbT_S5_St26random_access_iterator_tag, symObjAddr: 0xE38C, symBinAddr: 0x100012248, symSize: 0x58 }
  - { offsetInCU: 0x49AB8, offset: 0x49AB8, size: 0x8, addend: 0x0, symName: __ZSt11__addressofIKPKPKcEPT_RS5_, symObjAddr: 0xE3E4, symBinAddr: 0x1000122A0, symSize: 0x14 }
  - { offsetInCU: 0x49AC4, offset: 0x49AC4, size: 0x8, addend: 0x0, symName: __ZNSt15__new_allocatorIcE8allocateEmPKv, symObjAddr: 0xE328, symBinAddr: 0x1000121E4, symSize: 0x64 }
  - { offsetInCU: 0x49ACC, offset: 0x49ACC, size: 0x8, addend: 0x0, symName: __ZN11__gnu_debug17__valid_range_auxIPKPKcEEbT_S5_St26random_access_iterator_tag, symObjAddr: 0xE38C, symBinAddr: 0x100012248, symSize: 0x58 }
  - { offsetInCU: 0x49B86, offset: 0x49B86, size: 0x8, addend: 0x0, symName: __ZSt9addressofIKcEPT_RS1_, symObjAddr: 0xE30C, symBinAddr: 0x1000121C8, symSize: 0x1C }
  - { offsetInCU: 0x49B8E, offset: 0x49B8E, size: 0x8, addend: 0x0, symName: __ZNSt15__new_allocatorIcE8allocateEmPKv, symObjAddr: 0xE328, symBinAddr: 0x1000121E4, symSize: 0x64 }
  - { offsetInCU: 0x49BEE, offset: 0x49BEE, size: 0x8, addend: 0x0, symName: __ZSt11__addressofIcEPT_RS0_, symObjAddr: 0xE2F8, symBinAddr: 0x1000121B4, symSize: 0x14 }
  - { offsetInCU: 0x49BF6, offset: 0x49BF6, size: 0x8, addend: 0x0, symName: __ZSt9addressofIKcEPT_RS1_, symObjAddr: 0xE30C, symBinAddr: 0x1000121C8, symSize: 0x1C }
  - { offsetInCU: 0x49C08, offset: 0x49C08, size: 0x8, addend: 0x0, symName: __ZNSt8__detail16_Hashtable_allocISaINS_10_Hash_nodeISt4pairIKiNSt7__debug6vectorINSt7__cxx1112basic_stringIcSt11char_traitsIcESaIcEEESaISB_EEEELb0EEEEE16_M_allocate_nodeIJRKSt21piecewise_construct_tSt5tupleIJRS3_EESM_IJEEEEEPSF_DpOT_, symObjAddr: 0xE114, symBinAddr: 0x100011FD0, symSize: 0x1E4 }
  - { offsetInCU: 0x49C10, offset: 0x49C10, size: 0x8, addend: 0x0, symName: __ZSt11__addressofIcEPT_RS0_, symObjAddr: 0xE2F8, symBinAddr: 0x1000121B4, symSize: 0x14 }
  - { offsetInCU: 0x49E55, offset: 0x49E55, size: 0x8, addend: 0x0, symName: __ZSt7forwardISt5tupleIJRKiEEEOT_RNSt16remove_referenceIS4_E4typeE, symObjAddr: 0xE100, symBinAddr: 0x100011FBC, symSize: 0x14 }
  - { offsetInCU: 0x49E5D, offset: 0x49E5D, size: 0x8, addend: 0x0, symName: __ZNSt8__detail16_Hashtable_allocISaINS_10_Hash_nodeISt4pairIKiNSt7__debug6vectorINSt7__cxx1112basic_stringIcSt11char_traitsIcESaIcEEESaISB_EEEELb0EEEEE16_M_allocate_nodeIJRKSt21piecewise_construct_tSt5tupleIJRS3_EESM_IJEEEEEPSF_DpOT_, symObjAddr: 0xE114, symBinAddr: 0x100011FD0, symSize: 0x1E4 }
  - { offsetInCU: 0x49E95, offset: 0x49E95, size: 0x8, addend: 0x0, symName: __ZNSt11_Tuple_implILm0EJRKiEEC2ES1_, symObjAddr: 0xE0D8, symBinAddr: 0x100011F94, symSize: 0x28 }
  - { offsetInCU: 0x49E9D, offset: 0x49E9D, size: 0x8, addend: 0x0, symName: __ZSt7forwardISt5tupleIJRKiEEEOT_RNSt16remove_referenceIS4_E4typeE, symObjAddr: 0xE100, symBinAddr: 0x100011FBC, symSize: 0x14 }
  - { offsetInCU: 0x49EEB, offset: 0x49EEB, size: 0x8, addend: 0x0, symName: __ZNSt9__cxx19986vectorINSt7__cxx1112basic_stringIcSt11char_traitsIcESaIcEEESaIS6_EE11_S_relocateEPS6_S9_S9_RS7_, symObjAddr: 0xE0A4, symBinAddr: 0x100011F60, symSize: 0x34 }
  - { offsetInCU: 0x49EF3, offset: 0x49EF3, size: 0x8, addend: 0x0, symName: __ZNSt11_Tuple_implILm0EJRKiEEC2ES1_, symObjAddr: 0xE0D8, symBinAddr: 0x100011F94, symSize: 0x28 }
  - { offsetInCU: 0x4A09F, offset: 0x4A09F, size: 0x8, addend: 0x0, symName: __ZN9__gnu_cxxmiIPNSt7__cxx1112basic_stringIcSt11char_traitsIcESaIcEEENSt9__cxx19986vectorIS6_SaIS6_EEEEENS_17__normal_iteratorIT_T0_E15difference_typeERKSF_SI_, symObjAddr: 0xE064, symBinAddr: 0x100011F20, symSize: 0x40 }
  - { offsetInCU: 0x4A0A7, offset: 0x4A0A7, size: 0x8, addend: 0x0, symName: __ZNSt9__cxx19986vectorINSt7__cxx1112basic_stringIcSt11char_traitsIcESaIcEEESaIS6_EE11_S_relocateEPS6_S9_S9_RS7_, symObjAddr: 0xE0A4, symBinAddr: 0x100011F60, symSize: 0x34 }
  - { offsetInCU: 0x49FCE, offset: 0x49FCE, size: 0x8, addend: 0x0, symName: __ZNKSt9__cxx19986vectorINSt7__cxx1112basic_stringIcSt11char_traitsIcESaIcEEESaIS6_EE12_M_check_lenEmPKc, symObjAddr: 0xDF94, symBinAddr: 0x100011E50, symSize: 0xD0 }
  - { offsetInCU: 0x49FD6, offset: 0x49FD6, size: 0x8, addend: 0x0, symName: __ZN9__gnu_cxxmiIPNSt7__cxx1112basic_stringIcSt11char_traitsIcESaIcEEENSt9__cxx19986vectorIS6_SaIS6_EEEEENS_17__normal_iteratorIT_T0_E15difference_typeERKSF_SI_, symObjAddr: 0xE064, symBinAddr: 0x100011F20, symSize: 0x40 }
  - { offsetInCU: 0x4A095, offset: 0x4A095, size: 0x8, addend: 0x0, symName: __ZNKSt9__cxx19986vectorINSt7__cxx1112basic_stringIcSt11char_traitsIcESaIcEEESaIS6_EE8capacityEv, symObjAddr: 0xDF6C, symBinAddr: 0x100011E28, symSize: 0x28 }
  - { offsetInCU: 0x4A09D, offset: 0x4A09D, size: 0x8, addend: 0x0, symName: __ZNKSt9__cxx19986vectorINSt7__cxx1112basic_stringIcSt11char_traitsIcESaIcEEESaIS6_EE12_M_check_lenEmPKc, symObjAddr: 0xDF94, symBinAddr: 0x100011E50, symSize: 0xD0 }
  - { offsetInCU: 0x4A16C, offset: 0x4A16C, size: 0x8, addend: 0x0, symName: __ZSt4moveIRSaINSt7__cxx1112basic_stringIcSt11char_traitsIcESaIcEEEEEONSt16remove_referenceIT_E4typeEOS9_, symObjAddr: 0xDF58, symBinAddr: 0x100011E14, symSize: 0x14 }
  - { offsetInCU: 0x4A174, offset: 0x4A174, size: 0x8, addend: 0x0, symName: __ZNKSt9__cxx19986vectorINSt7__cxx1112basic_stringIcSt11char_traitsIcESaIcEEESaIS6_EE8capacityEv, symObjAddr: 0xDF6C, symBinAddr: 0x100011E28, symSize: 0x28 }
  - { offsetInCU: 0x4A11C, offset: 0x4A11C, size: 0x8, addend: 0x0, symName: __ZNSt9__cxx199812_Vector_baseINSt7__cxx1112basic_stringIcSt11char_traitsIcESaIcEEESaIS6_EE17_Vector_impl_data12_M_copy_dataERKS9_, symObjAddr: 0xDF10, symBinAddr: 0x100011DCC, symSize: 0x48 }
  - { offsetInCU: 0x4A124, offset: 0x4A124, size: 0x8, addend: 0x0, symName: __ZSt4moveIRSaINSt7__cxx1112basic_stringIcSt11char_traitsIcESaIcEEEEEONSt16remove_referenceIT_E4typeEOS9_, symObjAddr: 0xDF58, symBinAddr: 0x100011E14, symSize: 0x14 }
  - { offsetInCU: 0x4A185, offset: 0x4A185, size: 0x8, addend: 0x0, symName: __ZNSt15__new_allocatorINSt7__cxx1112basic_stringIcSt11char_traitsIcESaIcEEEE10deallocateEPS5_m, symObjAddr: 0xDEE0, symBinAddr: 0x100011D9C, symSize: 0x30 }
  - { offsetInCU: 0x4A18D, offset: 0x4A18D, size: 0x8, addend: 0x0, symName: __ZNSt9__cxx199812_Vector_baseINSt7__cxx1112basic_stringIcSt11char_traitsIcESaIcEEESaIS6_EE17_Vector_impl_data12_M_copy_dataERKS9_, symObjAddr: 0xDF10, symBinAddr: 0x100011DCC, symSize: 0x48 }
  - { offsetInCU: 0x4A1DE, offset: 0x4A1DE, size: 0x8, addend: 0x0, symName: __ZNSt10_HashtableIiSt4pairIKiNSt7__debug6vectorINSt7__cxx1112basic_stringIcSt11char_traitsIcESaIcEEESaIS9_EEEESaISC_ENSt8__detail10_Select1stESt8equal_toIiESt4hashIiENSE_18_Mod_range_hashingENSE_20_Default_ranged_hashENSE_20_Prime_rehash_policyENSE_17_Hashtable_traitsILb0ELb0ELb1EEEE22_M_insert_bucket_beginEmPNSE_10_Hash_nodeISC_Lb0EEE, symObjAddr: 0xDDD4, symBinAddr: 0x100011C90, symSize: 0x10C }
  - { offsetInCU: 0x4A1E6, offset: 0x4A1E6, size: 0x8, addend: 0x0, symName: __ZNSt15__new_allocatorINSt7__cxx1112basic_stringIcSt11char_traitsIcESaIcEEEE10deallocateEPS5_m, symObjAddr: 0xDEE0, symBinAddr: 0x100011D9C, symSize: 0x30 }
  - { offsetInCU: 0x4A239, offset: 0x4A239, size: 0x8, addend: 0x0, symName: __ZNKSt8__detail15_Hash_code_baseIiSt4pairIKiNSt7__debug6vectorINSt7__cxx1112basic_stringIcSt11char_traitsIcESaIcEEESaISA_EEEENS_10_Select1stESt4hashIiENS_18_Mod_range_hashingENS_20_Default_ranged_hashELb0EE13_M_store_codeERNS_21_Hash_node_code_cacheILb0EEEm, symObjAddr: 0xDDB8, symBinAddr: 0x100011C74, symSize: 0x1C }
  - { offsetInCU: 0x4A241, offset: 0x4A241, size: 0x8, addend: 0x0, symName: __ZNSt10_HashtableIiSt4pairIKiNSt7__debug6vectorINSt7__cxx1112basic_stringIcSt11char_traitsIcESaIcEEESaIS9_EEEESaISC_ENSt8__detail10_Select1stESt8equal_toIiESt4hashIiENSE_18_Mod_range_hashingENSE_20_Default_ranged_hashENSE_20_Prime_rehash_policyENSE_17_Hashtable_traitsILb0ELb0ELb1EEEE22_M_insert_bucket_beginEmPNSE_10_Hash_nodeISC_Lb0EEE, symObjAddr: 0xDDD4, symBinAddr: 0x100011C90, symSize: 0x10C }
  - { offsetInCU: 0x4A284, offset: 0x4A284, size: 0x8, addend: 0x0, symName: __ZNSt10_HashtableIiSt4pairIKiNSt7__debug6vectorINSt7__cxx1112basic_stringIcSt11char_traitsIcESaIcEEESaIS9_EEEESaISC_ENSt8__detail10_Select1stESt8equal_toIiESt4hashIiENSE_18_Mod_range_hashingENSE_20_Default_ranged_hashENSE_20_Prime_rehash_policyENSE_17_Hashtable_traitsILb0ELb0ELb1EEEE9_M_rehashEmRKm, symObjAddr: 0xDD4C, symBinAddr: 0x100011C08, symSize: 0x6C }
  - { offsetInCU: 0x4A28C, offset: 0x4A28C, size: 0x8, addend: 0x0, symName: __ZNKSt8__detail15_Hash_code_baseIiSt4pairIKiNSt7__debug6vectorINSt7__cxx1112basic_stringIcSt11char_traitsIcESaIcEEESaISA_EEEENS_10_Select1stESt4hashIiENS_18_Mod_range_hashingENS_20_Default_ranged_hashELb0EE13_M_store_codeERNS_21_Hash_node_code_cacheILb0EEEm, symObjAddr: 0xDDB8, symBinAddr: 0x100011C74, symSize: 0x1C }
  - { offsetInCU: 0x4A2DF, offset: 0x4A2DF, size: 0x8, addend: 0x0, symName: __ZNSt8__detail16_Hashtable_allocISaINS_10_Hash_nodeISt4pairIKiNSt7__debug6vectorINSt7__cxx1112basic_stringIcSt11char_traitsIcESaIcEEESaISB_EEEELb0EEEEE16_M_allocate_nodeIJRKSt21piecewise_construct_tSt5tupleIJOiEESM_IJEEEEEPSF_DpOT_, symObjAddr: 0xDB68, symBinAddr: 0x100011A24, symSize: 0x1E4 }
  - { offsetInCU: 0x4A2E7, offset: 0x4A2E7, size: 0x8, addend: 0x0, symName: __ZNSt10_HashtableIiSt4pairIKiNSt7__debug6vectorINSt7__cxx1112basic_stringIcSt11char_traitsIcESaIcEEESaIS9_EEEESaISC_ENSt8__detail10_Select1stESt8equal_toIiESt4hashIiENSE_18_Mod_range_hashingENSE_20_Default_ranged_hashENSE_20_Prime_rehash_policyENSE_17_Hashtable_traitsILb0ELb0ELb1EEEE9_M_rehashEmRKm, symObjAddr: 0xDD4C, symBinAddr: 0x100011C08, symSize: 0x6C }
  - { offsetInCU: 0x4A564, offset: 0x4A564, size: 0x8, addend: 0x0, symName: __ZNSt8__detail10_Hash_nodeISt4pairIKiNSt7__debug6vectorINSt7__cxx1112basic_stringIcSt11char_traitsIcESaIcEEESaISA_EEEELb0EEC1Ev, symObjAddr: 0xDB48, symBinAddr: 0x100011A04, symSize: 0x20 }
  - { offsetInCU: 0x4A56C, offset: 0x4A56C, size: 0x8, addend: 0x0, symName: __ZNSt8__detail16_Hashtable_allocISaINS_10_Hash_nodeISt4pairIKiNSt7__debug6vectorINSt7__cxx1112basic_stringIcSt11char_traitsIcESaIcEEESaISB_EEEELb0EEEEE16_M_allocate_nodeIJRKSt21piecewise_construct_tSt5tupleIJOiEESM_IJEEEEEPSF_DpOT_, symObjAddr: 0xDB68, symBinAddr: 0x100011A24, symSize: 0x1E4 }
  - { offsetInCU: 0x4A514, offset: 0x4A514, size: 0x8, addend: 0x0, symName: __ZNSt8__detail21_Hash_node_value_baseISt4pairIKiNSt7__debug6vectorINSt7__cxx1112basic_stringIcSt11char_traitsIcESaIcEEESaISA_EEEEE9_M_valptrEv, symObjAddr: 0xDB2C, symBinAddr: 0x1000119E8, symSize: 0x1C }
  - { offsetInCU: 0x4A51C, offset: 0x4A51C, size: 0x8, addend: 0x0, symName: __ZNSt8__detail10_Hash_nodeISt4pairIKiNSt7__debug6vectorINSt7__cxx1112basic_stringIcSt11char_traitsIcESaIcEEESaISA_EEEELb0EEC1Ev, symObjAddr: 0xDB48, symBinAddr: 0x100011A04, symSize: 0x20 }
  - { offsetInCU: 0x4A545, offset: 0x4A545, size: 0x8, addend: 0x0, symName: __ZNKSt10_HashtableIiSt4pairIKiNSt7__debug6vectorINSt7__cxx1112basic_stringIcSt11char_traitsIcESaIcEEESaIS9_EEEESaISC_ENSt8__detail10_Select1stESt8equal_toIiESt4hashIiENSE_18_Mod_range_hashingENSE_20_Default_ranged_hashENSE_20_Prime_rehash_policyENSE_17_Hashtable_traitsILb0ELb0ELb1EEEE19_M_find_before_nodeEmRS1_m, symObjAddr: 0xDA2C, symBinAddr: 0x1000118E8, symSize: 0x100 }
  - { offsetInCU: 0x4A54D, offset: 0x4A54D, size: 0x8, addend: 0x0, symName: __ZNSt8__detail21_Hash_node_value_baseISt4pairIKiNSt7__debug6vectorINSt7__cxx1112basic_stringIcSt11char_traitsIcESaIcEEESaISA_EEEEE9_M_valptrEv, symObjAddr: 0xDB2C, symBinAddr: 0x1000119E8, symSize: 0x1C }
  - { offsetInCU: 0x4A5F2, offset: 0x4A5F2, size: 0x8, addend: 0x0, symName: __ZNKSt8__detail15_Hash_code_baseIiSt4pairIKiNSt7__debug6vectorINSt7__cxx1112basic_stringIcSt11char_traitsIcESaIcEEESaISA_EEEENS_10_Select1stESt4hashIiENS_18_Mod_range_hashingENS_20_Default_ranged_hashELb0EE15_M_bucket_indexEmm, symObjAddr: 0xDA00, symBinAddr: 0x1000118BC, symSize: 0x2C }
  - { offsetInCU: 0x4A5FA, offset: 0x4A5FA, size: 0x8, addend: 0x0, symName: __ZNKSt10_HashtableIiSt4pairIKiNSt7__debug6vectorINSt7__cxx1112basic_stringIcSt11char_traitsIcESaIcEEESaIS9_EEEESaISC_ENSt8__detail10_Select1stESt8equal_toIiESt4hashIiENSE_18_Mod_range_hashingENSE_20_Default_ranged_hashENSE_20_Prime_rehash_policyENSE_17_Hashtable_traitsILb0ELb0ELb1EEEE19_M_find_before_nodeEmRS1_m, symObjAddr: 0xDA2C, symBinAddr: 0x1000118E8, symSize: 0x100 }
  - { offsetInCU: 0x4A64D, offset: 0x4A64D, size: 0x8, addend: 0x0, symName: __ZNKSt8__detail15_Hash_code_baseIiSt4pairIKiNSt7__debug6vectorINSt7__cxx1112basic_stringIcSt11char_traitsIcESaIcEEESaISA_EEEENS_10_Select1stESt4hashIiENS_18_Mod_range_hashingENS_20_Default_ranged_hashELb0EE7_M_hashEv, symObjAddr: 0xD9E4, symBinAddr: 0x1000118A0, symSize: 0x1C }
  - { offsetInCU: 0x4A655, offset: 0x4A655, size: 0x8, addend: 0x0, symName: __ZNKSt8__detail15_Hash_code_baseIiSt4pairIKiNSt7__debug6vectorINSt7__cxx1112basic_stringIcSt11char_traitsIcESaIcEEESaISA_EEEENS_10_Select1stESt4hashIiENS_18_Mod_range_hashingENS_20_Default_ranged_hashELb0EE15_M_bucket_indexEmm, symObjAddr: 0xDA00, symBinAddr: 0x1000118BC, symSize: 0x2C }
  - { offsetInCU: 0x4A67E, offset: 0x4A67E, size: 0x8, addend: 0x0, symName: __ZNK11__gnu_debug14_Safe_iteratorINSt8__detail14_Node_iteratorISt4pairIKiNSt7__debug6vectorINSt7__cxx1112basic_stringIcSt11char_traitsIcESaIcEEESaISC_EEEELb0ELb0EEENS5_13unordered_mapIiSE_St4hashIiESt8equal_toIiESaISF_EEESt20forward_iterator_tagE11_M_is_beginEv, symObjAddr: 0xD994, symBinAddr: 0x100011850, symSize: 0x50 }
  - { offsetInCU: 0x4A686, offset: 0x4A686, size: 0x8, addend: 0x0, symName: __ZNKSt8__detail15_Hash_code_baseIiSt4pairIKiNSt7__debug6vectorINSt7__cxx1112basic_stringIcSt11char_traitsIcESaIcEEESaISA_EEEENS_10_Select1stESt4hashIiENS_18_Mod_range_hashingENS_20_Default_ranged_hashELb0EE7_M_hashEv, symObjAddr: 0xD9E4, symBinAddr: 0x1000118A0, symSize: 0x1C }
  - { offsetInCU: 0x4A6AF, offset: 0x4A6AF, size: 0x8, addend: 0x0, symName: __ZNK11__gnu_debug14_Safe_iteratorINSt8__detail14_Node_iteratorISt4pairIKiNSt7__debug6vectorINSt7__cxx1112basic_stringIcSt11char_traitsIcESaIcEEESaISC_EEEELb0ELb0EEENS5_13unordered_mapIiSE_St4hashIiESt8equal_toIiESaISF_EEESt20forward_iterator_tagE9_M_is_endEv, symObjAddr: 0xD944, symBinAddr: 0x100011800, symSize: 0x50 }
  - { offsetInCU: 0x4A6B7, offset: 0x4A6B7, size: 0x8, addend: 0x0, symName: __ZNK11__gnu_debug14_Safe_iteratorINSt8__detail14_Node_iteratorISt4pairIKiNSt7__debug6vectorINSt7__cxx1112basic_stringIcSt11char_traitsIcESaIcEEESaISC_EEEELb0ELb0EEENS5_13unordered_mapIiSE_St4hashIiESt8equal_toIiESaISF_EEESt20forward_iterator_tagE11_M_is_beginEv, symObjAddr: 0xD994, symBinAddr: 0x100011850, symSize: 0x50 }
  - { offsetInCU: 0x4A6E0, offset: 0x4A6E0, size: 0x8, addend: 0x0, symName: __ZNK11__gnu_debug14_Safe_iteratorINSt8__detail14_Node_iteratorISt4pairIKiNSt7__debug6vectorINSt7__cxx1112basic_stringIcSt11char_traitsIcESaIcEEESaISC_EEEELb0ELb0EEENS5_13unordered_mapIiSE_St4hashIiESt8equal_toIiESaISF_EEESt20forward_iterator_tagE18_M_is_before_beginEv, symObjAddr: 0xD924, symBinAddr: 0x1000117E0, symSize: 0x20 }
  - { offsetInCU: 0x4A6E8, offset: 0x4A6E8, size: 0x8, addend: 0x0, symName: __ZNK11__gnu_debug14_Safe_iteratorINSt8__detail14_Node_iteratorISt4pairIKiNSt7__debug6vectorINSt7__cxx1112basic_stringIcSt11char_traitsIcESaIcEEESaISC_EEEELb0ELb0EEENS5_13unordered_mapIiSE_St4hashIiESt8equal_toIiESaISF_EEESt20forward_iterator_tagE9_M_is_endEv, symObjAddr: 0xD944, symBinAddr: 0x100011800, symSize: 0x50 }
  - { offsetInCU: 0x4A711, offset: 0x4A711, size: 0x8, addend: 0x0, symName: __ZNK11__gnu_debug14_Safe_iteratorINSt8__detail14_Node_iteratorISt4pairIKiNSt7__debug6vectorINSt7__cxx1112basic_stringIcSt11char_traitsIcESaIcEEESaISC_EEEELb0ELb0EEENS5_13unordered_mapIiSE_St4hashIiESt8equal_toIiESaISF_EEESt20forward_iterator_tagE15_M_get_sequenceEv, symObjAddr: 0xD90C, symBinAddr: 0x1000117C8, symSize: 0x18 }
  - { offsetInCU: 0x4A719, offset: 0x4A719, size: 0x8, addend: 0x0, symName: __ZNK11__gnu_debug14_Safe_iteratorINSt8__detail14_Node_iteratorISt4pairIKiNSt7__debug6vectorINSt7__cxx1112basic_stringIcSt11char_traitsIcESaIcEEESaISC_EEEELb0ELb0EEENS5_13unordered_mapIiSE_St4hashIiESt8equal_toIiESaISF_EEESt20forward_iterator_tagE18_M_is_before_beginEv, symObjAddr: 0xD924, symBinAddr: 0x1000117E0, symSize: 0x20 }
  - { offsetInCU: 0x4A97A, offset: 0x4A97A, size: 0x8, addend: 0x0, symName: __ZSt11__addressofIKN11__gnu_debug14_Safe_iteratorINSt8__detail14_Node_iteratorISt4pairIKiNSt7__debug6vectorINSt7__cxx1112basic_stringIcSt11char_traitsIcESaIcEEESaISD_EEEELb0ELb0EEENS6_13unordered_mapIiSF_St4hashIiESt8equal_toIiESaISG_EEESt20forward_iterator_tagEEEPT_RSS_, symObjAddr: 0xD8F8, symBinAddr: 0x1000117B4, symSize: 0x14 }
  - { offsetInCU: 0x4A982, offset: 0x4A982, size: 0x8, addend: 0x0, symName: __ZNK11__gnu_debug14_Safe_iteratorINSt8__detail14_Node_iteratorISt4pairIKiNSt7__debug6vectorINSt7__cxx1112basic_stringIcSt11char_traitsIcESaIcEEESaISC_EEEELb0ELb0EEENS5_13unordered_mapIiSE_St4hashIiESt8equal_toIiESaISF_EEESt20forward_iterator_tagE15_M_get_sequenceEv, symObjAddr: 0xD90C, symBinAddr: 0x1000117C8, symSize: 0x18 }
  - { offsetInCU: 0x4A85C, offset: 0x4A85C, size: 0x8, addend: 0x0, symName: __ZNSt8__detail14_Node_iteratorISt4pairIKiNSt7__debug6vectorINSt7__cxx1112basic_stringIcSt11char_traitsIcESaIcEEESaISA_EEEELb0ELb0EEC1EPNS_10_Hash_nodeISD_Lb0EEE, symObjAddr: 0xD8D0, symBinAddr: 0x10001178C, symSize: 0x28 }
  - { offsetInCU: 0x4A864, offset: 0x4A864, size: 0x8, addend: 0x0, symName: __ZSt11__addressofIKN11__gnu_debug14_Safe_iteratorINSt8__detail14_Node_iteratorISt4pairIKiNSt7__debug6vectorINSt7__cxx1112basic_stringIcSt11char_traitsIcESaIcEEESaISD_EEEELb0ELb0EEENS6_13unordered_mapIiSF_St4hashIiESt8equal_toIiESaISG_EEESt20forward_iterator_tagEEEPT_RSS_, symObjAddr: 0xD8F8, symBinAddr: 0x1000117B4, symSize: 0x14 }
  - { offsetInCU: 0x4A7F8, offset: 0x4A7F8, size: 0x8, addend: 0x0, symName: __ZNKSt8__detail15_Hashtable_baseIiSt4pairIKiNSt7__debug6vectorINSt7__cxx1112basic_stringIcSt11char_traitsIcESaIcEEESaISA_EEEENS_10_Select1stESt8equal_toIiESt4hashIiENS_18_Mod_range_hashingENS_20_Default_ranged_hashENS_17_Hashtable_traitsILb0ELb0ELb1EEEE13_M_key_equalsERS2_RKNS_16_Hash_node_valueISD_Lb0EEE, symObjAddr: 0xD878, symBinAddr: 0x100011734, symSize: 0x58 }
  - { offsetInCU: 0x4A800, offset: 0x4A800, size: 0x8, addend: 0x0, symName: __ZNSt8__detail14_Node_iteratorISt4pairIKiNSt7__debug6vectorINSt7__cxx1112basic_stringIcSt11char_traitsIcESaIcEEESaISA_EEEELb0ELb0EEC1EPNS_10_Hash_nodeISD_Lb0EEE, symObjAddr: 0xD8D0, symBinAddr: 0x10001178C, symSize: 0x28 }
  - { offsetInCU: 0x4A853, offset: 0x4A853, size: 0x8, addend: 0x0, symName: __ZNSt8__detail14_Node_iteratorISt4pairIKiNSt7__debug6vectorINSt7__cxx1112basic_stringIcSt11char_traitsIcESaIcEEESaISA_EEEELb0ELb0EEppEv, symObjAddr: 0xD858, symBinAddr: 0x100011714, symSize: 0x20 }
  - { offsetInCU: 0x4A85B, offset: 0x4A85B, size: 0x8, addend: 0x0, symName: __ZNKSt8__detail15_Hashtable_baseIiSt4pairIKiNSt7__debug6vectorINSt7__cxx1112basic_stringIcSt11char_traitsIcESaIcEEESaISA_EEEENS_10_Select1stESt8equal_toIiESt4hashIiENS_18_Mod_range_hashingENS_20_Default_ranged_hashENS_17_Hashtable_traitsILb0ELb0ELb1EEEE13_M_key_equalsERS2_RKNS_16_Hash_node_valueISD_Lb0EEE, symObjAddr: 0xD878, symBinAddr: 0x100011734, symSize: 0x58 }
  - { offsetInCU: 0x4A91E, offset: 0x4A91E, size: 0x8, addend: 0x0, symName: __ZNSt8__detailneERKNS_19_Node_iterator_baseISt4pairIKiNSt7__debug6vectorINSt7__cxx1112basic_stringIcSt11char_traitsIcESaIcEEESaISA_EEEELb0EEESG_, symObjAddr: 0xD828, symBinAddr: 0x1000116E4, symSize: 0x30 }
  - { offsetInCU: 0x4A926, offset: 0x4A926, size: 0x8, addend: 0x0, symName: __ZNSt8__detail14_Node_iteratorISt4pairIKiNSt7__debug6vectorINSt7__cxx1112basic_stringIcSt11char_traitsIcESaIcEEESaISA_EEEELb0ELb0EEppEv, symObjAddr: 0xD858, symBinAddr: 0x100011714, symSize: 0x20 }
  - { offsetInCU: 0x4A8E4, offset: 0x4A8E4, size: 0x8, addend: 0x0, symName: __ZNSt10_HashtableIiSt4pairIKiNSt7__debug6vectorINSt7__cxx1112basic_stringIcSt11char_traitsIcESaIcEEESaIS9_EEEESaISC_ENSt8__detail10_Select1stESt8equal_toIiESt4hashIiENSE_18_Mod_range_hashingENSE_20_Default_ranged_hashENSE_20_Prime_rehash_policyENSE_17_Hashtable_traitsILb0ELb0ELb1EEEE5beginEv, symObjAddr: 0xD7FC, symBinAddr: 0x1000116B8, symSize: 0x2C }
  - { offsetInCU: 0x4A8EC, offset: 0x4A8EC, size: 0x8, addend: 0x0, symName: __ZNSt8__detailneERKNS_19_Node_iterator_baseISt4pairIKiNSt7__debug6vectorINSt7__cxx1112basic_stringIcSt11char_traitsIcESaIcEEESaISA_EEEELb0EEESG_, symObjAddr: 0xD828, symBinAddr: 0x1000116E4, symSize: 0x30 }
  - { offsetInCU: 0x4A916, offset: 0x4A916, size: 0x8, addend: 0x0, symName: __ZNSt10_HashtableIiSt4pairIKiNSt7__debug6vectorINSt7__cxx1112basic_stringIcSt11char_traitsIcESaIcEEESaIS9_EEEESaISC_ENSt8__detail10_Select1stESt8equal_toIiESt4hashIiENSE_18_Mod_range_hashingENSE_20_Default_ranged_hashENSE_20_Prime_rehash_policyENSE_17_Hashtable_traitsILb0ELb0ELb1EEEE22__small_size_thresholdEv, symObjAddr: 0xD7E8, symBinAddr: 0x1000116A4, symSize: 0x14 }
  - { offsetInCU: 0x4A91E, offset: 0x4A91E, size: 0x8, addend: 0x0, symName: __ZNSt10_HashtableIiSt4pairIKiNSt7__debug6vectorINSt7__cxx1112basic_stringIcSt11char_traitsIcESaIcEEESaIS9_EEEESaISC_ENSt8__detail10_Select1stESt8equal_toIiESt4hashIiENSE_18_Mod_range_hashingENSE_20_Default_ranged_hashENSE_20_Prime_rehash_policyENSE_17_Hashtable_traitsILb0ELb0ELb1EEEE5beginEv, symObjAddr: 0xD7FC, symBinAddr: 0x1000116B8, symSize: 0x2C }
  - { offsetInCU: 0x4A933, offset: 0x4A933, size: 0x8, addend: 0x0, symName: __ZNKSt10_HashtableIiSt4pairIKiNSt7__debug6vectorINSt7__cxx1112basic_stringIcSt11char_traitsIcESaIcEEESaIS9_EEEESaISC_ENSt8__detail10_Select1stESt8equal_toIiESt4hashIiENSE_18_Mod_range_hashingENSE_20_Default_ranged_hashENSE_20_Prime_rehash_policyENSE_17_Hashtable_traitsILb0ELb0ELb1EEEE4sizeEv, symObjAddr: 0xD7D0, symBinAddr: 0x10001168C, symSize: 0x18 }
  - { offsetInCU: 0x4A93B, offset: 0x4A93B, size: 0x8, addend: 0x0, symName: __ZNSt10_HashtableIiSt4pairIKiNSt7__debug6vectorINSt7__cxx1112basic_stringIcSt11char_traitsIcESaIcEEESaIS9_EEEESaISC_ENSt8__detail10_Select1stESt8equal_toIiESt4hashIiENSE_18_Mod_range_hashingENSE_20_Default_ranged_hashENSE_20_Prime_rehash_policyENSE_17_Hashtable_traitsILb0ELb0ELb1EEEE22__small_size_thresholdEv, symObjAddr: 0xD7E8, symBinAddr: 0x1000116A4, symSize: 0x14 }
  - { offsetInCU: 0x4A964, offset: 0x4A964, size: 0x8, addend: 0x0, symName: __ZNK11__gnu_debug14_Safe_iteratorINSt8__detail14_Node_iteratorINSt7__cxx1112basic_stringIcSt11char_traitsIcESaIcEEELb1ELb1EEENSt7__debug13unordered_setIS8_St4hashIS8_ESt8equal_toIS8_ESaIS8_EEESt20forward_iterator_tagE11_M_is_beginEv, symObjAddr: 0xD780, symBinAddr: 0x10001163C, symSize: 0x50 }
  - { offsetInCU: 0x4A96C, offset: 0x4A96C, size: 0x8, addend: 0x0, symName: __ZNKSt10_HashtableIiSt4pairIKiNSt7__debug6vectorINSt7__cxx1112basic_stringIcSt11char_traitsIcESaIcEEESaIS9_EEEESaISC_ENSt8__detail10_Select1stESt8equal_toIiESt4hashIiENSE_18_Mod_range_hashingENSE_20_Default_ranged_hashENSE_20_Prime_rehash_policyENSE_17_Hashtable_traitsILb0ELb0ELb1EEEE4sizeEv, symObjAddr: 0xD7D0, symBinAddr: 0x10001168C, symSize: 0x18 }
  - { offsetInCU: 0x4A995, offset: 0x4A995, size: 0x8, addend: 0x0, symName: __ZNK11__gnu_debug14_Safe_iteratorINSt8__detail14_Node_iteratorINSt7__cxx1112basic_stringIcSt11char_traitsIcESaIcEEELb1ELb1EEENSt7__debug13unordered_setIS8_St4hashIS8_ESt8equal_toIS8_ESaIS8_EEESt20forward_iterator_tagE9_M_is_endEv, symObjAddr: 0xD730, symBinAddr: 0x1000115EC, symSize: 0x50 }
  - { offsetInCU: 0x4A99D, offset: 0x4A99D, size: 0x8, addend: 0x0, symName: __ZNK11__gnu_debug14_Safe_iteratorINSt8__detail14_Node_iteratorINSt7__cxx1112basic_stringIcSt11char_traitsIcESaIcEEELb1ELb1EEENSt7__debug13unordered_setIS8_St4hashIS8_ESt8equal_toIS8_ESaIS8_EEESt20forward_iterator_tagE11_M_is_beginEv, symObjAddr: 0xD780, symBinAddr: 0x10001163C, symSize: 0x50 }
  - { offsetInCU: 0x4A9C6, offset: 0x4A9C6, size: 0x8, addend: 0x0, symName: __ZNK11__gnu_debug14_Safe_iteratorINSt8__detail14_Node_iteratorINSt7__cxx1112basic_stringIcSt11char_traitsIcESaIcEEELb1ELb1EEENSt7__debug13unordered_setIS8_St4hashIS8_ESt8equal_toIS8_ESaIS8_EEESt20forward_iterator_tagE18_M_is_before_beginEv, symObjAddr: 0xD710, symBinAddr: 0x1000115CC, symSize: 0x20 }
  - { offsetInCU: 0x4A9CE, offset: 0x4A9CE, size: 0x8, addend: 0x0, symName: __ZNK11__gnu_debug14_Safe_iteratorINSt8__detail14_Node_iteratorINSt7__cxx1112basic_stringIcSt11char_traitsIcESaIcEEELb1ELb1EEENSt7__debug13unordered_setIS8_St4hashIS8_ESt8equal_toIS8_ESaIS8_EEESt20forward_iterator_tagE9_M_is_endEv, symObjAddr: 0xD730, symBinAddr: 0x1000115EC, symSize: 0x50 }
  - { offsetInCU: 0x4A9F7, offset: 0x4A9F7, size: 0x8, addend: 0x0, symName: __ZNK11__gnu_debug14_Safe_iteratorINSt8__detail14_Node_iteratorINSt7__cxx1112basic_stringIcSt11char_traitsIcESaIcEEELb1ELb1EEENSt7__debug13unordered_setIS8_St4hashIS8_ESt8equal_toIS8_ESaIS8_EEESt20forward_iterator_tagE15_M_get_sequenceEv, symObjAddr: 0xD6F8, symBinAddr: 0x1000115B4, symSize: 0x18 }
  - { offsetInCU: 0x4A9FF, offset: 0x4A9FF, size: 0x8, addend: 0x0, symName: __ZNK11__gnu_debug14_Safe_iteratorINSt8__detail14_Node_iteratorINSt7__cxx1112basic_stringIcSt11char_traitsIcESaIcEEELb1ELb1EEENSt7__debug13unordered_setIS8_St4hashIS8_ESt8equal_toIS8_ESaIS8_EEESt20forward_iterator_tagE18_M_is_before_beginEv, symObjAddr: 0xD710, symBinAddr: 0x1000115CC, symSize: 0x20 }
  - { offsetInCU: 0x4ABF7, offset: 0x4ABF7, size: 0x8, addend: 0x0, symName: __ZSt11__addressofIKN11__gnu_debug14_Safe_iteratorINSt8__detail14_Node_iteratorINSt7__cxx1112basic_stringIcSt11char_traitsIcESaIcEEELb1ELb1EEENSt7__debug13unordered_setIS9_St4hashIS9_ESt8equal_toIS9_ESaIS9_EEESt20forward_iterator_tagEEEPT_RSM_, symObjAddr: 0xD6E4, symBinAddr: 0x1000115A0, symSize: 0x14 }
  - { offsetInCU: 0x4ABFF, offset: 0x4ABFF, size: 0x8, addend: 0x0, symName: __ZNK11__gnu_debug14_Safe_iteratorINSt8__detail14_Node_iteratorINSt7__cxx1112basic_stringIcSt11char_traitsIcESaIcEEELb1ELb1EEENSt7__debug13unordered_setIS8_St4hashIS8_ESt8equal_toIS8_ESaIS8_EEESt20forward_iterator_tagE15_M_get_sequenceEv, symObjAddr: 0xD6F8, symBinAddr: 0x1000115B4, symSize: 0x18 }
  - { offsetInCU: 0x4AB1B, offset: 0x4AB1B, size: 0x8, addend: 0x0, symName: __ZNSt8__detail14_Node_iteratorINSt7__cxx1112basic_stringIcSt11char_traitsIcESaIcEEELb1ELb1EEC1EPNS_10_Hash_nodeIS6_Lb1EEE, symObjAddr: 0xD6BC, symBinAddr: 0x100011578, symSize: 0x28 }
  - { offsetInCU: 0x4AB23, offset: 0x4AB23, size: 0x8, addend: 0x0, symName: __ZSt11__addressofIKN11__gnu_debug14_Safe_iteratorINSt8__detail14_Node_iteratorINSt7__cxx1112basic_stringIcSt11char_traitsIcESaIcEEELb1ELb1EEENSt7__debug13unordered_setIS9_St4hashIS9_ESt8equal_toIS9_ESaIS9_EEESt20forward_iterator_tagEEEPT_RSM_, symObjAddr: 0xD6E4, symBinAddr: 0x1000115A0, symSize: 0x14 }
  - { offsetInCU: 0x4AADE, offset: 0x4AADE, size: 0x8, addend: 0x0, symName: __ZNKSt10_HashtableINSt7__cxx1112basic_stringIcSt11char_traitsIcESaIcEEES5_SaIS5_ENSt8__detail9_IdentityESt8equal_toIS5_ESt4hashIS5_ENS7_18_Mod_range_hashingENS7_20_Default_ranged_hashENS7_20_Prime_rehash_policyENS7_17_Hashtable_traitsILb1ELb1ELb1EEEE12_M_find_nodeEmRKS5_m, symObjAddr: 0xD668, symBinAddr: 0x100011524, symSize: 0x54 }
  - { offsetInCU: 0x4AAE6, offset: 0x4AAE6, size: 0x8, addend: 0x0, symName: __ZNSt8__detail14_Node_iteratorINSt7__cxx1112basic_stringIcSt11char_traitsIcESaIcEEELb1ELb1EEC1EPNS_10_Hash_nodeIS6_Lb1EEE, symObjAddr: 0xD6BC, symBinAddr: 0x100011578, symSize: 0x28 }
  - { offsetInCU: 0x4AB63, offset: 0x4AB63, size: 0x8, addend: 0x0, symName: __ZNKSt10_HashtableINSt7__cxx1112basic_stringIcSt11char_traitsIcESaIcEEES5_SaIS5_ENSt8__detail9_IdentityESt8equal_toIS5_ESt4hashIS5_ENS7_18_Mod_range_hashingENS7_20_Default_ranged_hashENS7_20_Prime_rehash_policyENS7_17_Hashtable_traitsILb1ELb1ELb1EEEE15_M_bucket_indexEm, symObjAddr: 0xD638, symBinAddr: 0x1000114F4, symSize: 0x30 }
  - { offsetInCU: 0x4AB6B, offset: 0x4AB6B, size: 0x8, addend: 0x0, symName: __ZNKSt10_HashtableINSt7__cxx1112basic_stringIcSt11char_traitsIcESaIcEEES5_SaIS5_ENSt8__detail9_IdentityESt8equal_toIS5_ESt4hashIS5_ENS7_18_Mod_range_hashingENS7_20_Default_ranged_hashENS7_20_Prime_rehash_policyENS7_17_Hashtable_traitsILb1ELb1ELb1EEEE12_M_find_nodeEmRKS5_m, symObjAddr: 0xD668, symBinAddr: 0x100011524, symSize: 0x54 }
  - { offsetInCU: 0x4ABA9, offset: 0x4ABA9, size: 0x8, addend: 0x0, symName: __ZNKSt8__detail15_Hash_code_baseINSt7__cxx1112basic_stringIcSt11char_traitsIcESaIcEEES6_NS_9_IdentityESt4hashIS6_ENS_18_Mod_range_hashingENS_20_Default_ranged_hashELb1EE12_M_hash_codeERKS6_, symObjAddr: 0xD610, symBinAddr: 0x1000114CC, symSize: 0x28 }
  - { offsetInCU: 0x4ABB1, offset: 0x4ABB1, size: 0x8, addend: 0x0, symName: __ZNKSt10_HashtableINSt7__cxx1112basic_stringIcSt11char_traitsIcESaIcEEES5_SaIS5_ENSt8__detail9_IdentityESt8equal_toIS5_ESt4hashIS5_ENS7_18_Mod_range_hashingENS7_20_Default_ranged_hashENS7_20_Prime_rehash_policyENS7_17_Hashtable_traitsILb1ELb1ELb1EEEE15_M_bucket_indexEm, symObjAddr: 0xD638, symBinAddr: 0x1000114F4, symSize: 0x30 }
  - { offsetInCU: 0x4ABEF, offset: 0x4ABEF, size: 0x8, addend: 0x0, symName: __ZNKSt8__detail15_Hashtable_baseINSt7__cxx1112basic_stringIcSt11char_traitsIcESaIcEEES6_NS_9_IdentityESt8equal_toIS6_ESt4hashIS6_ENS_18_Mod_range_hashingENS_20_Default_ranged_hashENS_17_Hashtable_traitsILb1ELb1ELb1EEEE13_M_key_equalsERKS6_RKNS_16_Hash_node_valueIS6_Lb1EEE, symObjAddr: 0xD5B8, symBinAddr: 0x100011474, symSize: 0x58 }
  - { offsetInCU: 0x4ABF7, offset: 0x4ABF7, size: 0x8, addend: 0x0, symName: __ZNKSt8__detail15_Hash_code_baseINSt7__cxx1112basic_stringIcSt11char_traitsIcESaIcEEES6_NS_9_IdentityESt4hashIS6_ENS_18_Mod_range_hashingENS_20_Default_ranged_hashELb1EE12_M_hash_codeERKS6_, symObjAddr: 0xD610, symBinAddr: 0x1000114CC, symSize: 0x28 }
  - { offsetInCU: 0x4AC4A, offset: 0x4AC4A, size: 0x8, addend: 0x0, symName: __ZNSt8__detail14_Node_iteratorINSt7__cxx1112basic_stringIcSt11char_traitsIcESaIcEEELb1ELb1EEppEv, symObjAddr: 0xD598, symBinAddr: 0x100011454, symSize: 0x20 }
  - { offsetInCU: 0x4AC52, offset: 0x4AC52, size: 0x8, addend: 0x0, symName: __ZNKSt8__detail15_Hashtable_baseINSt7__cxx1112basic_stringIcSt11char_traitsIcESaIcEEES6_NS_9_IdentityESt8equal_toIS6_ESt4hashIS6_ENS_18_Mod_range_hashingENS_20_Default_ranged_hashENS_17_Hashtable_traitsILb1ELb1ELb1EEEE13_M_key_equalsERKS6_RKNS_16_Hash_node_valueIS6_Lb1EEE, symObjAddr: 0xD5B8, symBinAddr: 0x100011474, symSize: 0x58 }
  - { offsetInCU: 0x4AC7B, offset: 0x4AC7B, size: 0x8, addend: 0x0, symName: __ZNSt10_HashtableINSt7__cxx1112basic_stringIcSt11char_traitsIcESaIcEEES5_SaIS5_ENSt8__detail9_IdentityESt8equal_toIS5_ESt4hashIS5_ENS7_18_Mod_range_hashingENS7_20_Default_ranged_hashENS7_20_Prime_rehash_policyENS7_17_Hashtable_traitsILb1ELb1ELb1EEEE5beginEv, symObjAddr: 0xD56C, symBinAddr: 0x100011428, symSize: 0x2C }
  - { offsetInCU: 0x4AC83, offset: 0x4AC83, size: 0x8, addend: 0x0, symName: __ZNSt8__detail14_Node_iteratorINSt7__cxx1112basic_stringIcSt11char_traitsIcESaIcEEELb1ELb1EEppEv, symObjAddr: 0xD598, symBinAddr: 0x100011454, symSize: 0x20 }
  - { offsetInCU: 0x4ACAD, offset: 0x4ACAD, size: 0x8, addend: 0x0, symName: __ZNSt10_HashtableINSt7__cxx1112basic_stringIcSt11char_traitsIcESaIcEEES5_SaIS5_ENSt8__detail9_IdentityESt8equal_toIS5_ESt4hashIS5_ENS7_18_Mod_range_hashingENS7_20_Default_ranged_hashENS7_20_Prime_rehash_policyENS7_17_Hashtable_traitsILb1ELb1ELb1EEEE22__small_size_thresholdEv, symObjAddr: 0xD558, symBinAddr: 0x100011414, symSize: 0x14 }
  - { offsetInCU: 0x4ACB5, offset: 0x4ACB5, size: 0x8, addend: 0x0, symName: __ZNSt10_HashtableINSt7__cxx1112basic_stringIcSt11char_traitsIcESaIcEEES5_SaIS5_ENSt8__detail9_IdentityESt8equal_toIS5_ESt4hashIS5_ENS7_18_Mod_range_hashingENS7_20_Default_ranged_hashENS7_20_Prime_rehash_policyENS7_17_Hashtable_traitsILb1ELb1ELb1EEEE5beginEv, symObjAddr: 0xD56C, symBinAddr: 0x100011428, symSize: 0x2C }
  - { offsetInCU: 0x4ACCA, offset: 0x4ACCA, size: 0x8, addend: 0x0, symName: __ZNKSt10_HashtableINSt7__cxx1112basic_stringIcSt11char_traitsIcESaIcEEES5_SaIS5_ENSt8__detail9_IdentityESt8equal_toIS5_ESt4hashIS5_ENS7_18_Mod_range_hashingENS7_20_Default_ranged_hashENS7_20_Prime_rehash_policyENS7_17_Hashtable_traitsILb1ELb1ELb1EEEE4sizeEv, symObjAddr: 0xD540, symBinAddr: 0x1000113FC, symSize: 0x18 }
  - { offsetInCU: 0x4ACD2, offset: 0x4ACD2, size: 0x8, addend: 0x0, symName: __ZNSt10_HashtableINSt7__cxx1112basic_stringIcSt11char_traitsIcESaIcEEES5_SaIS5_ENSt8__detail9_IdentityESt8equal_toIS5_ESt4hashIS5_ENS7_18_Mod_range_hashingENS7_20_Default_ranged_hashENS7_20_Prime_rehash_policyENS7_17_Hashtable_traitsILb1ELb1ELb1EEEE22__small_size_thresholdEv, symObjAddr: 0xD558, symBinAddr: 0x100011414, symSize: 0x14 }
  - { offsetInCU: 0x4ACFB, offset: 0x4ACFB, size: 0x8, addend: 0x0, symName: __ZNKSt8__detail15_Hash_code_baseINSt7__cxx1112basic_stringIcSt11char_traitsIcESaIcEEES6_NS_9_IdentityESt4hashIS6_ENS_18_Mod_range_hashingENS_20_Default_ranged_hashELb1EE15_M_bucket_indexERKNS_16_Hash_node_valueIS6_Lb1EEEm, symObjAddr: 0xD510, symBinAddr: 0x1000113CC, symSize: 0x30 }
  - { offsetInCU: 0x4AD03, offset: 0x4AD03, size: 0x8, addend: 0x0, symName: __ZNKSt10_HashtableINSt7__cxx1112basic_stringIcSt11char_traitsIcESaIcEEES5_SaIS5_ENSt8__detail9_IdentityESt8equal_toIS5_ESt4hashIS5_ENS7_18_Mod_range_hashingENS7_20_Default_ranged_hashENS7_20_Prime_rehash_policyENS7_17_Hashtable_traitsILb1ELb1ELb1EEEE4sizeEv, symObjAddr: 0xD540, symBinAddr: 0x1000113FC, symSize: 0x18 }
  - { offsetInCU: 0x4AD56, offset: 0x4AD56, size: 0x8, addend: 0x0, symName: __ZNSt8__detail16_Hashtable_allocISaINS_10_Hash_nodeINSt7__cxx1112basic_stringIcSt11char_traitsIcESaIcEEELb1EEEEE16_M_allocate_nodeIJRKS7_EEEPS8_DpOT_, symObjAddr: 0xD3A8, symBinAddr: 0x100011264, symSize: 0x168 }
  - { offsetInCU: 0x4AD5E, offset: 0x4AD5E, size: 0x8, addend: 0x0, symName: __ZNKSt8__detail15_Hash_code_baseINSt7__cxx1112basic_stringIcSt11char_traitsIcESaIcEEES6_NS_9_IdentityESt4hashIS6_ENS_18_Mod_range_hashingENS_20_Default_ranged_hashELb1EE15_M_bucket_indexERKNS_16_Hash_node_valueIS6_Lb1EEEm, symObjAddr: 0xD510, symBinAddr: 0x1000113CC, symSize: 0x30 }
  - { offsetInCU: 0x4AF4E, offset: 0x4AF4E, size: 0x8, addend: 0x0, symName: __ZNSt8__detail10_Hash_nodeINSt7__cxx1112basic_stringIcSt11char_traitsIcESaIcEEELb1EEC1Ev, symObjAddr: 0xD388, symBinAddr: 0x100011244, symSize: 0x20 }
  - { offsetInCU: 0x4AF56, offset: 0x4AF56, size: 0x8, addend: 0x0, symName: __ZNSt8__detail16_Hashtable_allocISaINS_10_Hash_nodeINSt7__cxx1112basic_stringIcSt11char_traitsIcESaIcEEELb1EEEEE16_M_allocate_nodeIJRKS7_EEEPS8_DpOT_, symObjAddr: 0xD3A8, symBinAddr: 0x100011264, symSize: 0x168 }
  - { offsetInCU: 0x4AFC3, offset: 0x4AFC3, size: 0x8, addend: 0x0, symName: __ZSt7forwardIRKNSt7__cxx1112basic_stringIcSt11char_traitsIcESaIcEEEEOT_RNSt16remove_referenceIS8_E4typeE, symObjAddr: 0xD374, symBinAddr: 0x100011230, symSize: 0x14 }
  - { offsetInCU: 0x4AFCB, offset: 0x4AFCB, size: 0x8, addend: 0x0, symName: __ZNSt8__detail10_Hash_nodeINSt7__cxx1112basic_stringIcSt11char_traitsIcESaIcEEELb1EEC1Ev, symObjAddr: 0xD388, symBinAddr: 0x100011244, symSize: 0x20 }
  - { offsetInCU: 0x4AF7B, offset: 0x4AF7B, size: 0x8, addend: 0x0, symName: __ZNSt8__detail21_Hash_node_value_baseINSt7__cxx1112basic_stringIcSt11char_traitsIcESaIcEEEE9_M_valptrEv, symObjAddr: 0xD358, symBinAddr: 0x100011214, symSize: 0x1C }
  - { offsetInCU: 0x4AF83, offset: 0x4AF83, size: 0x8, addend: 0x0, symName: __ZSt7forwardIRKNSt7__cxx1112basic_stringIcSt11char_traitsIcESaIcEEEEOT_RNSt16remove_referenceIS8_E4typeE, symObjAddr: 0xD374, symBinAddr: 0x100011230, symSize: 0x14 }
  - { offsetInCU: 0x4AFAC, offset: 0x4AFAC, size: 0x8, addend: 0x0, symName: __ZNSt8__detail16_Hashtable_allocISaINS_10_Hash_nodeINSt7__cxx1112basic_stringIcSt11char_traitsIcESaIcEEELb1EEEEE19_M_allocate_bucketsEm, symObjAddr: 0xD2A0, symBinAddr: 0x10001115C, symSize: 0xB8 }
  - { offsetInCU: 0x4AFB4, offset: 0x4AFB4, size: 0x8, addend: 0x0, symName: __ZNSt8__detail21_Hash_node_value_baseINSt7__cxx1112basic_stringIcSt11char_traitsIcESaIcEEEE9_M_valptrEv, symObjAddr: 0xD358, symBinAddr: 0x100011214, symSize: 0x1C }
  - { offsetInCU: 0x4B133, offset: 0x4B133, size: 0x8, addend: 0x0, symName: __ZN11__gnu_debug18_BeforeBeginHelperINSt7__debug13unordered_mapIiNS1_13unordered_setINSt7__cxx1112basic_stringIcSt11char_traitsIcESaIcEEESt4hashIS9_ESt8equal_toIS9_ESaIS9_EEESA_IiESC_IiESaISt4pairIKiSF_EEEEE5_S_IsINSt8__detail14_Node_iteratorISK_Lb0ELb0EEESt20forward_iterator_tagEEbRKNS_14_Safe_iteratorIT_SM_T0_EE, symObjAddr: 0xD28C, symBinAddr: 0x100011148, symSize: 0x14 }
  - { offsetInCU: 0x4B13B, offset: 0x4B13B, size: 0x8, addend: 0x0, symName: __ZNSt8__detail16_Hashtable_allocISaINS_10_Hash_nodeINSt7__cxx1112basic_stringIcSt11char_traitsIcESaIcEEELb1EEEEE19_M_allocate_bucketsEm, symObjAddr: 0xD2A0, symBinAddr: 0x10001115C, symSize: 0xB8 }
  - { offsetInCU: 0x4B179, offset: 0x4B179, size: 0x8, addend: 0x0, symName: __ZNSt7__debug13unordered_mapIiNS_13unordered_setINSt7__cxx1112basic_stringIcSt11char_traitsIcESaIcEEESt4hashIS7_ESt8equal_toIS7_ESaIS7_EEES8_IiESA_IiESaISt4pairIKiSD_EEE7_M_baseEv, symObjAddr: 0xD274, symBinAddr: 0x100011130, symSize: 0x18 }
  - { offsetInCU: 0x4B181, offset: 0x4B181, size: 0x8, addend: 0x0, symName: __ZN11__gnu_debug18_BeforeBeginHelperINSt7__debug13unordered_mapIiNS1_13unordered_setINSt7__cxx1112basic_stringIcSt11char_traitsIcESaIcEEESt4hashIS9_ESt8equal_toIS9_ESaIS9_EEESA_IiESC_IiESaISt4pairIKiSF_EEEEE5_S_IsINSt8__detail14_Node_iteratorISK_Lb0ELb0EEESt20forward_iterator_tagEEbRKNS_14_Safe_iteratorIT_SM_T0_EE, symObjAddr: 0xD28C, symBinAddr: 0x100011148, symSize: 0x14 }
  - { offsetInCU: 0x4B1AA, offset: 0x4B1AA, size: 0x8, addend: 0x0, symName: __ZN11__gnu_debug14_Safe_iteratorINSt8__detail14_Node_iteratorINSt7__cxx1112basic_stringIcSt11char_traitsIcESaIcEEELb1ELb1EEENSt7__debug13unordered_setIS8_St4hashIS8_ESt8equal_toIS8_ESaIS8_EEESt20forward_iterator_tagE9_M_attachEPNS_19_Safe_sequence_baseE, symObjAddr: 0xD230, symBinAddr: 0x1000110EC, symSize: 0x44 }
  - { offsetInCU: 0x4B1B2, offset: 0x4B1B2, size: 0x8, addend: 0x0, symName: __ZNSt7__debug13unordered_mapIiNS_13unordered_setINSt7__cxx1112basic_stringIcSt11char_traitsIcESaIcEEESt4hashIS7_ESt8equal_toIS7_ESaIS7_EEES8_IiESA_IiESaISt4pairIKiSD_EEE7_M_baseEv, symObjAddr: 0xD274, symBinAddr: 0x100011130, symSize: 0x18 }
  - { offsetInCU: 0x4B1F0, offset: 0x4B1F0, size: 0x8, addend: 0x0, symName: __ZNSt10_HashtableINSt7__cxx1112basic_stringIcSt11char_traitsIcESaIcEEES5_SaIS5_ENSt8__detail9_IdentityESt8equal_toIS5_ESt4hashIS5_ENS7_18_Mod_range_hashingENS7_20_Default_ranged_hashENS7_20_Prime_rehash_policyENS7_17_Hashtable_traitsILb1ELb1ELb1EEEE9_M_insertIRKS5_NS7_10_AllocNodeISaINS7_10_Hash_nodeIS5_Lb1EEEEEEEESt4pairINS7_14_Node_iteratorIS5_Lb1ELb1EEEbEOT_RKT0_St17integral_constantIbLb1EE, symObjAddr: 0xD1EC, symBinAddr: 0x1000110A8, symSize: 0x44 }
  - { offsetInCU: 0x4B1F8, offset: 0x4B1F8, size: 0x8, addend: 0x0, symName: __ZN11__gnu_debug14_Safe_iteratorINSt8__detail14_Node_iteratorINSt7__cxx1112basic_stringIcSt11char_traitsIcESaIcEEELb1ELb1EEENSt7__debug13unordered_setIS8_St4hashIS8_ESt8equal_toIS8_ESaIS8_EEESt20forward_iterator_tagE9_M_attachEPNS_19_Safe_sequence_baseE, symObjAddr: 0xD230, symBinAddr: 0x1000110EC, symSize: 0x44 }
  - { offsetInCU: 0x4B272, offset: 0x4B272, size: 0x8, addend: 0x0, symName: __ZNSt8__detail12_Insert_baseINSt7__cxx1112basic_stringIcSt11char_traitsIcESaIcEEES6_SaIS6_ENS_9_IdentityESt8equal_toIS6_ESt4hashIS6_ENS_18_Mod_range_hashingENS_20_Default_ranged_hashENS_20_Prime_rehash_policyENS_17_Hashtable_traitsILb1ELb1ELb1EEEE20_M_conjure_hashtableEv, symObjAddr: 0xD1D8, symBinAddr: 0x100011094, symSize: 0x14 }
  - { offsetInCU: 0x4B27A, offset: 0x4B27A, size: 0x8, addend: 0x0, symName: __ZNSt10_HashtableINSt7__cxx1112basic_stringIcSt11char_traitsIcESaIcEEES5_SaIS5_ENSt8__detail9_IdentityESt8equal_toIS5_ESt4hashIS5_ENS7_18_Mod_range_hashingENS7_20_Default_ranged_hashENS7_20_Prime_rehash_policyENS7_17_Hashtable_traitsILb1ELb1ELb1EEEE9_M_insertIRKS5_NS7_10_AllocNodeISaINS7_10_Hash_nodeIS5_Lb1EEEEEEEESt4pairINS7_14_Node_iteratorIS5_Lb1ELb1EEEbEOT_RKT0_St17integral_constantIbLb1EE, symObjAddr: 0xD1EC, symBinAddr: 0x1000110A8, symSize: 0x44 }
  - { offsetInCU: 0x4B389, offset: 0x4B389, size: 0x8, addend: 0x0, symName: __ZSt4moveIRSaINSt8__detail10_Hash_nodeINSt7__cxx1112basic_stringIcSt11char_traitsIcESaIcEEELb1EEEEEONSt16remove_referenceIT_E4typeEOSC_, symObjAddr: 0xD1C4, symBinAddr: 0x100011080, symSize: 0x14 }
  - { offsetInCU: 0x4B391, offset: 0x4B391, size: 0x8, addend: 0x0, symName: __ZNSt8__detail12_Insert_baseINSt7__cxx1112basic_stringIcSt11char_traitsIcESaIcEEES6_SaIS6_ENS_9_IdentityESt8equal_toIS6_ESt4hashIS6_ENS_18_Mod_range_hashingENS_20_Default_ranged_hashENS_20_Prime_rehash_policyENS_17_Hashtable_traitsILb1ELb1ELb1EEEE20_M_conjure_hashtableEv, symObjAddr: 0xD1D8, symBinAddr: 0x100011094, symSize: 0x14 }
  - { offsetInCU: 0x4B2F9, offset: 0x4B2F9, size: 0x8, addend: 0x0, symName: __ZNSt8__detail21_Hashtable_ebo_helperILi0ESaINS_10_Hash_nodeINSt7__cxx1112basic_stringIcSt11char_traitsIcESaIcEEELb1EEEELb1EE6_M_getEv, symObjAddr: 0xD1B0, symBinAddr: 0x10001106C, symSize: 0x14 }
  - { offsetInCU: 0x4B301, offset: 0x4B301, size: 0x8, addend: 0x0, symName: __ZSt4moveIRSaINSt8__detail10_Hash_nodeINSt7__cxx1112basic_stringIcSt11char_traitsIcESaIcEEELb1EEEEEONSt16remove_referenceIT_E4typeEOSC_, symObjAddr: 0xD1C4, symBinAddr: 0x100011080, symSize: 0x14 }
  - { offsetInCU: 0x4B33E, offset: 0x4B33E, size: 0x8, addend: 0x0, symName: __ZN11__gnu_debug25_Safe_unordered_containerINSt7__debug13unordered_setINSt7__cxx1112basic_stringIcSt11char_traitsIcESaIcEEESt4hashIS8_ESt8equal_toIS8_ESaIS8_EEEE22_M_invalidate_local_ifIZNSF_20_M_invalidate_localsEvEUlNSt8__detail21_Local_const_iteratorIS8_S8_NSH_9_IdentityESA_NSH_18_Mod_range_hashingENSH_20_Default_ranged_hashELb1ELb1EEEE_EEvT_, symObjAddr: 0xCFC8, symBinAddr: 0x100010E84, symSize: 0x1E8 }
  - { offsetInCU: 0x4B346, offset: 0x4B346, size: 0x8, addend: 0x0, symName: __ZNSt8__detail21_Hashtable_ebo_helperILi0ESaINS_10_Hash_nodeINSt7__cxx1112basic_stringIcSt11char_traitsIcESaIcEEELb1EEEELb1EE6_M_getEv, symObjAddr: 0xD1B0, symBinAddr: 0x10001106C, symSize: 0x14 }
  - { offsetInCU: 0x4B470, offset: 0x4B470, size: 0x8, addend: 0x0, symName: __ZNKSt9__cxx199813unordered_setINSt7__cxx1112basic_stringIcSt11char_traitsIcESaIcEEESt4hashIS6_ESt8equal_toIS6_ESaIS6_EE4cendEm, symObjAddr: 0xCF98, symBinAddr: 0x100010E54, symSize: 0x30 }
  - { offsetInCU: 0x4B478, offset: 0x4B478, size: 0x8, addend: 0x0, symName: __ZN11__gnu_debug25_Safe_unordered_containerINSt7__debug13unordered_setINSt7__cxx1112basic_stringIcSt11char_traitsIcESaIcEEESt4hashIS8_ESt8equal_toIS8_ESaIS8_EEEE22_M_invalidate_local_ifIZNSF_20_M_invalidate_localsEvEUlNSt8__detail21_Local_const_iteratorIS8_S8_NSH_9_IdentityESA_NSH_18_Mod_range_hashingENSH_20_Default_ranged_hashELb1ELb1EEEE_EEvT_, symObjAddr: 0xCFC8, symBinAddr: 0x100010E84, symSize: 0x1E8 }
  - { offsetInCU: 0x4B4B6, offset: 0x4B4B6, size: 0x8, addend: 0x0, symName: __ZN11__gnu_debug14_Safe_iteratorINSt8__detail20_Node_const_iteratorINSt7__cxx1112basic_stringIcSt11char_traitsIcESaIcEEELb1ELb1EEENSt7__debug13unordered_setIS8_St4hashIS8_ESt8equal_toIS8_ESaIS8_EEESt20forward_iterator_tagE4baseEv, symObjAddr: 0xCF84, symBinAddr: 0x100010E40, symSize: 0x14 }
  - { offsetInCU: 0x4B4BE, offset: 0x4B4BE, size: 0x8, addend: 0x0, symName: __ZNKSt9__cxx199813unordered_setINSt7__cxx1112basic_stringIcSt11char_traitsIcESaIcEEESt4hashIS6_ESt8equal_toIS6_ESaIS6_EE4cendEm, symObjAddr: 0xCF98, symBinAddr: 0x100010E54, symSize: 0x30 }
  - { offsetInCU: 0x4B59D, offset: 0x4B59D, size: 0x8, addend: 0x0, symName: __ZNSt8__detail20_Node_const_iteratorINSt7__cxx1112basic_stringIcSt11char_traitsIcESaIcEEELb1ELb1EEC1ERKNS_14_Node_iteratorIS6_Lb1ELb1EEE, symObjAddr: 0xCF50, symBinAddr: 0x100010E0C, symSize: 0x34 }
  - { offsetInCU: 0x4B5A5, offset: 0x4B5A5, size: 0x8, addend: 0x0, symName: __ZN11__gnu_debug14_Safe_iteratorINSt8__detail20_Node_const_iteratorINSt7__cxx1112basic_stringIcSt11char_traitsIcESaIcEEELb1ELb1EEENSt7__debug13unordered_setIS8_St4hashIS8_ESt8equal_toIS8_ESaIS8_EEESt20forward_iterator_tagE4baseEv, symObjAddr: 0xCF84, symBinAddr: 0x100010E40, symSize: 0x14 }
  - { offsetInCU: 0x4B551, offset: 0x4B551, size: 0x8, addend: 0x0, symName: __ZN11__gnu_debug14_Safe_iteratorINSt8__detail14_Node_iteratorINSt7__cxx1112basic_stringIcSt11char_traitsIcESaIcEEELb1ELb1EEENSt7__debug13unordered_setIS8_St4hashIS8_ESt8equal_toIS8_ESaIS8_EEESt20forward_iterator_tagE4baseEv, symObjAddr: 0xCF3C, symBinAddr: 0x100010DF8, symSize: 0x14 }
  - { offsetInCU: 0x4B559, offset: 0x4B559, size: 0x8, addend: 0x0, symName: __ZNSt8__detail20_Node_const_iteratorINSt7__cxx1112basic_stringIcSt11char_traitsIcESaIcEEELb1ELb1EEC1ERKNS_14_Node_iteratorIS6_Lb1ELb1EEE, symObjAddr: 0xCF50, symBinAddr: 0x100010E0C, symSize: 0x34 }
  - { offsetInCU: 0x4B582, offset: 0x4B582, size: 0x8, addend: 0x0, symName: __ZNKSt10_HashtableINSt7__cxx1112basic_stringIcSt11char_traitsIcESaIcEEES5_SaIS5_ENSt8__detail9_IdentityESt8equal_toIS5_ESt4hashIS5_ENS7_18_Mod_range_hashingENS7_20_Default_ranged_hashENS7_20_Prime_rehash_policyENS7_17_Hashtable_traitsILb1ELb1ELb1EEEE3endEv, symObjAddr: 0xCF18, symBinAddr: 0x100010DD4, symSize: 0x24 }
  - { offsetInCU: 0x4B58A, offset: 0x4B58A, size: 0x8, addend: 0x0, symName: __ZN11__gnu_debug14_Safe_iteratorINSt8__detail14_Node_iteratorINSt7__cxx1112basic_stringIcSt11char_traitsIcESaIcEEELb1ELb1EEENSt7__debug13unordered_setIS8_St4hashIS8_ESt8equal_toIS8_ESaIS8_EEESt20forward_iterator_tagE4baseEv, symObjAddr: 0xCF3C, symBinAddr: 0x100010DF8, symSize: 0x14 }
  - { offsetInCU: 0x4B5B3, offset: 0x4B5B3, size: 0x8, addend: 0x0, symName: __ZNSt8__detail16_Hashtable_allocISaINS_10_Hash_nodeINSt7__cxx1112basic_stringIcSt11char_traitsIcESaIcEEELb1EEEEE21_M_deallocate_bucketsEPPNS_15_Hash_node_baseEm, symObjAddr: 0xCEA0, symBinAddr: 0x100010D5C, symSize: 0x78 }
  - { offsetInCU: 0x4B5BB, offset: 0x4B5BB, size: 0x8, addend: 0x0, symName: __ZNKSt10_HashtableINSt7__cxx1112basic_stringIcSt11char_traitsIcESaIcEEES5_SaIS5_ENSt8__detail9_IdentityESt8equal_toIS5_ESt4hashIS5_ENS7_18_Mod_range_hashingENS7_20_Default_ranged_hashENS7_20_Prime_rehash_policyENS7_17_Hashtable_traitsILb1ELb1ELb1EEEE3endEv, symObjAddr: 0xCF18, symBinAddr: 0x100010DD4, symSize: 0x24 }
  - { offsetInCU: 0x4B6F7, offset: 0x4B6F7, size: 0x8, addend: 0x0, symName: __ZNKSt10_HashtableINSt7__cxx1112basic_stringIcSt11char_traitsIcESaIcEEES5_SaIS5_ENSt8__detail9_IdentityESt8equal_toIS5_ESt4hashIS5_ENS7_18_Mod_range_hashingENS7_20_Default_ranged_hashENS7_20_Prime_rehash_policyENS7_17_Hashtable_traitsILb1ELb1ELb1EEEE21_M_uses_single_bucketEPPNS7_15_Hash_node_baseE, symObjAddr: 0xCE64, symBinAddr: 0x100010D20, symSize: 0x3C }
  - { offsetInCU: 0x4B6FF, offset: 0x4B6FF, size: 0x8, addend: 0x0, symName: __ZNSt8__detail16_Hashtable_allocISaINS_10_Hash_nodeINSt7__cxx1112basic_stringIcSt11char_traitsIcESaIcEEELb1EEEEE21_M_deallocate_bucketsEPPNS_15_Hash_node_baseEm, symObjAddr: 0xCEA0, symBinAddr: 0x100010D5C, symSize: 0x78 }
  - { offsetInCU: 0x4B73D, offset: 0x4B73D, size: 0x8, addend: 0x0, symName: __ZNSt8__detail16_Hashtable_allocISaINS_10_Hash_nodeINSt7__cxx1112basic_stringIcSt11char_traitsIcESaIcEEELb1EEEEE18_M_deallocate_nodeEPS8_, symObjAddr: 0xCDF4, symBinAddr: 0x100010CB0, symSize: 0x70 }
  - { offsetInCU: 0x4B745, offset: 0x4B745, size: 0x8, addend: 0x0, symName: __ZNKSt10_HashtableINSt7__cxx1112basic_stringIcSt11char_traitsIcESaIcEEES5_SaIS5_ENSt8__detail9_IdentityESt8equal_toIS5_ESt4hashIS5_ENS7_18_Mod_range_hashingENS7_20_Default_ranged_hashENS7_20_Prime_rehash_policyENS7_17_Hashtable_traitsILb1ELb1ELb1EEEE21_M_uses_single_bucketEPPNS7_15_Hash_node_baseE, symObjAddr: 0xCE64, symBinAddr: 0x100010D20, symSize: 0x3C }
  - { offsetInCU: 0x4B7ED, offset: 0x4B7ED, size: 0x8, addend: 0x0, symName: __ZNSt10_HashtableIiSt4pairIKiNSt7__debug13unordered_setINSt7__cxx1112basic_stringIcSt11char_traitsIcESaIcEEESt4hashIS9_ESt8equal_toIS9_ESaIS9_EEEESaISG_ENSt8__detail10_Select1stESC_IiESA_IiENSI_18_Mod_range_hashingENSI_20_Default_ranged_hashENSI_20_Prime_rehash_policyENSI_17_Hashtable_traitsILb0ELb0ELb1EEEE22_M_insert_bucket_beginEmPNSI_10_Hash_nodeISG_Lb0EEE, symObjAddr: 0xCCE8, symBinAddr: 0x100010BA4, symSize: 0x10C }
  - { offsetInCU: 0x4B7F5, offset: 0x4B7F5, size: 0x8, addend: 0x0, symName: __ZNSt8__detail16_Hashtable_allocISaINS_10_Hash_nodeINSt7__cxx1112basic_stringIcSt11char_traitsIcESaIcEEELb1EEEEE18_M_deallocate_nodeEPS8_, symObjAddr: 0xCDF4, symBinAddr: 0x100010CB0, symSize: 0x70 }
  - { offsetInCU: 0x4B848, offset: 0x4B848, size: 0x8, addend: 0x0, symName: __ZNKSt8__detail15_Hash_code_baseIiSt4pairIKiNSt7__debug13unordered_setINSt7__cxx1112basic_stringIcSt11char_traitsIcESaIcEEESt4hashISA_ESt8equal_toISA_ESaISA_EEEENS_10_Select1stESB_IiENS_18_Mod_range_hashingENS_20_Default_ranged_hashELb0EE13_M_store_codeERNS_21_Hash_node_code_cacheILb0EEEm, symObjAddr: 0xCCCC, symBinAddr: 0x100010B88, symSize: 0x1C }
  - { offsetInCU: 0x4B850, offset: 0x4B850, size: 0x8, addend: 0x0, symName: __ZNSt10_HashtableIiSt4pairIKiNSt7__debug13unordered_setINSt7__cxx1112basic_stringIcSt11char_traitsIcESaIcEEESt4hashIS9_ESt8equal_toIS9_ESaIS9_EEEESaISG_ENSt8__detail10_Select1stESC_IiESA_IiENSI_18_Mod_range_hashingENSI_20_Default_ranged_hashENSI_20_Prime_rehash_policyENSI_17_Hashtable_traitsILb0ELb0ELb1EEEE22_M_insert_bucket_beginEmPNSI_10_Hash_nodeISG_Lb0EEE, symObjAddr: 0xCCE8, symBinAddr: 0x100010BA4, symSize: 0x10C }
  - { offsetInCU: 0x4B893, offset: 0x4B893, size: 0x8, addend: 0x0, symName: __ZNSt10_HashtableIiSt4pairIKiNSt7__debug13unordered_setINSt7__cxx1112basic_stringIcSt11char_traitsIcESaIcEEESt4hashIS9_ESt8equal_toIS9_ESaIS9_EEEESaISG_ENSt8__detail10_Select1stESC_IiESA_IiENSI_18_Mod_range_hashingENSI_20_Default_ranged_hashENSI_20_Prime_rehash_policyENSI_17_Hashtable_traitsILb0ELb0ELb1EEEE9_M_rehashEmRKm, symObjAddr: 0xCC60, symBinAddr: 0x100010B1C, symSize: 0x6C }
  - { offsetInCU: 0x4B89B, offset: 0x4B89B, size: 0x8, addend: 0x0, symName: __ZNKSt8__detail15_Hash_code_baseIiSt4pairIKiNSt7__debug13unordered_setINSt7__cxx1112basic_stringIcSt11char_traitsIcESaIcEEESt4hashISA_ESt8equal_toISA_ESaISA_EEEENS_10_Select1stESB_IiENS_18_Mod_range_hashingENS_20_Default_ranged_hashELb0EE13_M_store_codeERNS_21_Hash_node_code_cacheILb0EEEm, symObjAddr: 0xCCCC, symBinAddr: 0x100010B88, symSize: 0x1C }
  - { offsetInCU: 0x4B8EE, offset: 0x4B8EE, size: 0x8, addend: 0x0, symName: __ZNSt8__detail16_Hashtable_allocISaINS_10_Hash_nodeISt4pairIKiNSt7__debug13unordered_setINSt7__cxx1112basic_stringIcSt11char_traitsIcESaIcEEESt4hashISB_ESt8equal_toISB_ESaISB_EEEELb0EEEEE16_M_allocate_nodeIJRKSt21piecewise_construct_tSt5tupleIJOiEESQ_IJEEEEEPSJ_DpOT_, symObjAddr: 0xCA7C, symBinAddr: 0x100010938, symSize: 0x1E4 }
  - { offsetInCU: 0x4B8F6, offset: 0x4B8F6, size: 0x8, addend: 0x0, symName: __ZNSt10_HashtableIiSt4pairIKiNSt7__debug13unordered_setINSt7__cxx1112basic_stringIcSt11char_traitsIcESaIcEEESt4hashIS9_ESt8equal_toIS9_ESaIS9_EEEESaISG_ENSt8__detail10_Select1stESC_IiESA_IiENSI_18_Mod_range_hashingENSI_20_Default_ranged_hashENSI_20_Prime_rehash_policyENSI_17_Hashtable_traitsILb0ELb0ELb1EEEE9_M_rehashEmRKm, symObjAddr: 0xCC60, symBinAddr: 0x100010B1C, symSize: 0x6C }
  - { offsetInCU: 0x4BB97, offset: 0x4BB97, size: 0x8, addend: 0x0, symName: __ZNSt8__detail10_Hash_nodeISt4pairIKiNSt7__debug13unordered_setINSt7__cxx1112basic_stringIcSt11char_traitsIcESaIcEEESt4hashISA_ESt8equal_toISA_ESaISA_EEEELb0EEC1Ev, symObjAddr: 0xCA5C, symBinAddr: 0x100010918, symSize: 0x20 }
  - { offsetInCU: 0x4BB9F, offset: 0x4BB9F, size: 0x8, addend: 0x0, symName: __ZNSt8__detail16_Hashtable_allocISaINS_10_Hash_nodeISt4pairIKiNSt7__debug13unordered_setINSt7__cxx1112basic_stringIcSt11char_traitsIcESaIcEEESt4hashISB_ESt8equal_toISB_ESaISB_EEEELb0EEEEE16_M_allocate_nodeIJRKSt21piecewise_construct_tSt5tupleIJOiEESQ_IJEEEEEPSJ_DpOT_, symObjAddr: 0xCA7C, symBinAddr: 0x100010938, symSize: 0x1E4 }
  - { offsetInCU: 0x4BB84, offset: 0x4BB84, size: 0x8, addend: 0x0, symName: __ZSt7forwardISt5tupleIJOiEEEOT_RNSt16remove_referenceIS3_E4typeE, symObjAddr: 0xCA48, symBinAddr: 0x100010904, symSize: 0x14 }
  - { offsetInCU: 0x4BB8C, offset: 0x4BB8C, size: 0x8, addend: 0x0, symName: __ZNSt8__detail10_Hash_nodeISt4pairIKiNSt7__debug13unordered_setINSt7__cxx1112basic_stringIcSt11char_traitsIcESaIcEEESt4hashISA_ESt8equal_toISA_ESaISA_EEEELb0EEC1Ev, symObjAddr: 0xCA5C, symBinAddr: 0x100010918, symSize: 0x20 }
  - { offsetInCU: 0x4BBE9, offset: 0x4BBE9, size: 0x8, addend: 0x0, symName: __ZNSt5tupleIJOiEEC1IJiELb1ELb1EEEDpOT_, symObjAddr: 0xCA0C, symBinAddr: 0x1000108C8, symSize: 0x3C }
  - { offsetInCU: 0x4BBF1, offset: 0x4BBF1, size: 0x8, addend: 0x0, symName: __ZSt7forwardISt5tupleIJOiEEEOT_RNSt16remove_referenceIS3_E4typeE, symObjAddr: 0xCA48, symBinAddr: 0x100010904, symSize: 0x14 }
  - { offsetInCU: 0x4BC24, offset: 0x4BC24, size: 0x8, addend: 0x0, symName: __ZNSt8__detail21_Hash_node_value_baseISt4pairIKiNSt7__debug13unordered_setINSt7__cxx1112basic_stringIcSt11char_traitsIcESaIcEEESt4hashISA_ESt8equal_toISA_ESaISA_EEEEE9_M_valptrEv, symObjAddr: 0xC9F0, symBinAddr: 0x1000108AC, symSize: 0x1C }
  - { offsetInCU: 0x4BC2C, offset: 0x4BC2C, size: 0x8, addend: 0x0, symName: __ZNSt5tupleIJOiEEC1IJiELb1ELb1EEEDpOT_, symObjAddr: 0xCA0C, symBinAddr: 0x1000108C8, symSize: 0x3C }
  - { offsetInCU: 0x4BC55, offset: 0x4BC55, size: 0x8, addend: 0x0, symName: __ZNKSt10_HashtableIiSt4pairIKiNSt7__debug13unordered_setINSt7__cxx1112basic_stringIcSt11char_traitsIcESaIcEEESt4hashIS9_ESt8equal_toIS9_ESaIS9_EEEESaISG_ENSt8__detail10_Select1stESC_IiESA_IiENSI_18_Mod_range_hashingENSI_20_Default_ranged_hashENSI_20_Prime_rehash_policyENSI_17_Hashtable_traitsILb0ELb0ELb1EEEE19_M_find_before_nodeEmRS1_m, symObjAddr: 0xC8F0, symBinAddr: 0x1000107AC, symSize: 0x100 }
  - { offsetInCU: 0x4BC5D, offset: 0x4BC5D, size: 0x8, addend: 0x0, symName: __ZNSt8__detail21_Hash_node_value_baseISt4pairIKiNSt7__debug13unordered_setINSt7__cxx1112basic_stringIcSt11char_traitsIcESaIcEEESt4hashISA_ESt8equal_toISA_ESaISA_EEEEE9_M_valptrEv, symObjAddr: 0xC9F0, symBinAddr: 0x1000108AC, symSize: 0x1C }
  - { offsetInCU: 0x4BD02, offset: 0x4BD02, size: 0x8, addend: 0x0, symName: __ZNKSt8__detail15_Hash_code_baseIiSt4pairIKiNSt7__debug13unordered_setINSt7__cxx1112basic_stringIcSt11char_traitsIcESaIcEEESt4hashISA_ESt8equal_toISA_ESaISA_EEEENS_10_Select1stESB_IiENS_18_Mod_range_hashingENS_20_Default_ranged_hashELb0EE15_M_bucket_indexEmm, symObjAddr: 0xC8C4, symBinAddr: 0x100010780, symSize: 0x2C }
  - { offsetInCU: 0x4BD0A, offset: 0x4BD0A, size: 0x8, addend: 0x0, symName: __ZNKSt10_HashtableIiSt4pairIKiNSt7__debug13unordered_setINSt7__cxx1112basic_stringIcSt11char_traitsIcESaIcEEESt4hashIS9_ESt8equal_toIS9_ESaIS9_EEEESaISG_ENSt8__detail10_Select1stESC_IiESA_IiENSI_18_Mod_range_hashingENSI_20_Default_ranged_hashENSI_20_Prime_rehash_policyENSI_17_Hashtable_traitsILb0ELb0ELb1EEEE19_M_find_before_nodeEmRS1_m, symObjAddr: 0xC8F0, symBinAddr: 0x1000107AC, symSize: 0x100 }
  - { offsetInCU: 0x4BD5D, offset: 0x4BD5D, size: 0x8, addend: 0x0, symName: __ZNKSt8__detail15_Hash_code_baseIiSt4pairIKiNSt7__debug13unordered_setINSt7__cxx1112basic_stringIcSt11char_traitsIcESaIcEEESt4hashISA_ESt8equal_toISA_ESaISA_EEEENS_10_Select1stESB_IiENS_18_Mod_range_hashingENS_20_Default_ranged_hashELb0EE7_M_hashEv, symObjAddr: 0xC8A8, symBinAddr: 0x100010764, symSize: 0x1C }
  - { offsetInCU: 0x4BD65, offset: 0x4BD65, size: 0x8, addend: 0x0, symName: __ZNKSt8__detail15_Hash_code_baseIiSt4pairIKiNSt7__debug13unordered_setINSt7__cxx1112basic_stringIcSt11char_traitsIcESaIcEEESt4hashISA_ESt8equal_toISA_ESaISA_EEEENS_10_Select1stESB_IiENS_18_Mod_range_hashingENS_20_Default_ranged_hashELb0EE15_M_bucket_indexEmm, symObjAddr: 0xC8C4, symBinAddr: 0x100010780, symSize: 0x2C }
  - { offsetInCU: 0x4BD8E, offset: 0x4BD8E, size: 0x8, addend: 0x0, symName: __ZNK11__gnu_debug14_Safe_iteratorINSt8__detail14_Node_iteratorISt4pairIKiNSt7__debug13unordered_setINSt7__cxx1112basic_stringIcSt11char_traitsIcESaIcEEESt4hashISC_ESt8equal_toISC_ESaISC_EEEELb0ELb0EEENS5_13unordered_mapIiSI_SD_IiESF_IiESaISJ_EEESt20forward_iterator_tagE11_M_is_beginEv, symObjAddr: 0xC858, symBinAddr: 0x100010714, symSize: 0x50 }
  - { offsetInCU: 0x4BD96, offset: 0x4BD96, size: 0x8, addend: 0x0, symName: __ZNKSt8__detail15_Hash_code_baseIiSt4pairIKiNSt7__debug13unordered_setINSt7__cxx1112basic_stringIcSt11char_traitsIcESaIcEEESt4hashISA_ESt8equal_toISA_ESaISA_EEEENS_10_Select1stESB_IiENS_18_Mod_range_hashingENS_20_Default_ranged_hashELb0EE7_M_hashEv, symObjAddr: 0xC8A8, symBinAddr: 0x100010764, symSize: 0x1C }
  - { offsetInCU: 0x4BDBF, offset: 0x4BDBF, size: 0x8, addend: 0x0, symName: __ZNK11__gnu_debug14_Safe_iteratorINSt8__detail14_Node_iteratorISt4pairIKiNSt7__debug13unordered_setINSt7__cxx1112basic_stringIcSt11char_traitsIcESaIcEEESt4hashISC_ESt8equal_toISC_ESaISC_EEEELb0ELb0EEENS5_13unordered_mapIiSI_SD_IiESF_IiESaISJ_EEESt20forward_iterator_tagE15_M_get_sequenceEv, symObjAddr: 0xC840, symBinAddr: 0x1000106FC, symSize: 0x18 }
  - { offsetInCU: 0x4BDC7, offset: 0x4BDC7, size: 0x8, addend: 0x0, symName: __ZNK11__gnu_debug14_Safe_iteratorINSt8__detail14_Node_iteratorISt4pairIKiNSt7__debug13unordered_setINSt7__cxx1112basic_stringIcSt11char_traitsIcESaIcEEESt4hashISC_ESt8equal_toISC_ESaISC_EEEELb0ELb0EEENS5_13unordered_mapIiSI_SD_IiESF_IiESaISJ_EEESt20forward_iterator_tagE11_M_is_beginEv, symObjAddr: 0xC858, symBinAddr: 0x100010714, symSize: 0x50 }
  - { offsetInCU: 0x4C04E, offset: 0x4C04E, size: 0x8, addend: 0x0, symName: __ZSt11__addressofIKN11__gnu_debug14_Safe_iteratorINSt8__detail14_Node_iteratorISt4pairIKiNSt7__debug13unordered_setINSt7__cxx1112basic_stringIcSt11char_traitsIcESaIcEEESt4hashISD_ESt8equal_toISD_ESaISD_EEEELb0ELb0EEENS6_13unordered_mapIiSJ_SE_IiESG_IiESaISK_EEESt20forward_iterator_tagEEEPT_RSU_, symObjAddr: 0xC82C, symBinAddr: 0x1000106E8, symSize: 0x14 }
  - { offsetInCU: 0x4C056, offset: 0x4C056, size: 0x8, addend: 0x0, symName: __ZNK11__gnu_debug14_Safe_iteratorINSt8__detail14_Node_iteratorISt4pairIKiNSt7__debug13unordered_setINSt7__cxx1112basic_stringIcSt11char_traitsIcESaIcEEESt4hashISC_ESt8equal_toISC_ESaISC_EEEELb0ELb0EEENS5_13unordered_mapIiSI_SD_IiESF_IiESaISJ_EEESt20forward_iterator_tagE15_M_get_sequenceEv, symObjAddr: 0xC840, symBinAddr: 0x1000106FC, symSize: 0x18 }
  - { offsetInCU: 0x4BF2E, offset: 0x4BF2E, size: 0x8, addend: 0x0, symName: __ZNSt8__detail14_Node_iteratorISt4pairIKiNSt7__debug13unordered_setINSt7__cxx1112basic_stringIcSt11char_traitsIcESaIcEEESt4hashISA_ESt8equal_toISA_ESaISA_EEEELb0ELb0EEC1EPNS_10_Hash_nodeISH_Lb0EEE, symObjAddr: 0xC804, symBinAddr: 0x1000106C0, symSize: 0x28 }
  - { offsetInCU: 0x4BF36, offset: 0x4BF36, size: 0x8, addend: 0x0, symName: __ZSt11__addressofIKN11__gnu_debug14_Safe_iteratorINSt8__detail14_Node_iteratorISt4pairIKiNSt7__debug13unordered_setINSt7__cxx1112basic_stringIcSt11char_traitsIcESaIcEEESt4hashISD_ESt8equal_toISD_ESaISD_EEEELb0ELb0EEENS6_13unordered_mapIiSJ_SE_IiESG_IiESaISK_EEESt20forward_iterator_tagEEEPT_RSU_, symObjAddr: 0xC82C, symBinAddr: 0x1000106E8, symSize: 0x14 }
  - { offsetInCU: 0x4BEA6, offset: 0x4BEA6, size: 0x8, addend: 0x0, symName: __ZNKSt8__detail15_Hashtable_baseIiSt4pairIKiNSt7__debug13unordered_setINSt7__cxx1112basic_stringIcSt11char_traitsIcESaIcEEESt4hashISA_ESt8equal_toISA_ESaISA_EEEENS_10_Select1stESD_IiESB_IiENS_18_Mod_range_hashingENS_20_Default_ranged_hashENS_17_Hashtable_traitsILb0ELb0ELb1EEEE13_M_key_equalsERS2_RKNS_16_Hash_node_valueISH_Lb0EEE, symObjAddr: 0xC7AC, symBinAddr: 0x100010668, symSize: 0x58 }
  - { offsetInCU: 0x4BEAE, offset: 0x4BEAE, size: 0x8, addend: 0x0, symName: __ZNSt8__detail14_Node_iteratorISt4pairIKiNSt7__debug13unordered_setINSt7__cxx1112basic_stringIcSt11char_traitsIcESaIcEEESt4hashISA_ESt8equal_toISA_ESaISA_EEEELb0ELb0EEC1EPNS_10_Hash_nodeISH_Lb0EEE, symObjAddr: 0xC804, symBinAddr: 0x1000106C0, symSize: 0x28 }
  - { offsetInCU: 0x4BF02, offset: 0x4BF02, size: 0x8, addend: 0x0, symName: __ZNSt10_HashtableIiSt4pairIKiNSt7__debug13unordered_setINSt7__cxx1112basic_stringIcSt11char_traitsIcESaIcEEESt4hashIS9_ESt8equal_toIS9_ESaIS9_EEEESaISG_ENSt8__detail10_Select1stESC_IiESA_IiENSI_18_Mod_range_hashingENSI_20_Default_ranged_hashENSI_20_Prime_rehash_policyENSI_17_Hashtable_traitsILb0ELb0ELb1EEEE22__small_size_thresholdEv, symObjAddr: 0xC798, symBinAddr: 0x100010654, symSize: 0x14 }
  - { offsetInCU: 0x4BF0A, offset: 0x4BF0A, size: 0x8, addend: 0x0, symName: __ZNKSt8__detail15_Hashtable_baseIiSt4pairIKiNSt7__debug13unordered_setINSt7__cxx1112basic_stringIcSt11char_traitsIcESaIcEEESt4hashISA_ESt8equal_toISA_ESaISA_EEEENS_10_Select1stESD_IiESB_IiENS_18_Mod_range_hashingENS_20_Default_ranged_hashENS_17_Hashtable_traitsILb0ELb0ELb1EEEE13_M_key_equalsERS2_RKNS_16_Hash_node_valueISH_Lb0EEE, symObjAddr: 0xC7AC, symBinAddr: 0x100010668, symSize: 0x58 }
  - { offsetInCU: 0x4BF1F, offset: 0x4BF1F, size: 0x8, addend: 0x0, symName: __ZNKSt10_HashtableIiSt4pairIKiNSt7__debug13unordered_setINSt7__cxx1112basic_stringIcSt11char_traitsIcESaIcEEESt4hashIS9_ESt8equal_toIS9_ESaIS9_EEEESaISG_ENSt8__detail10_Select1stESC_IiESA_IiENSI_18_Mod_range_hashingENSI_20_Default_ranged_hashENSI_20_Prime_rehash_policyENSI_17_Hashtable_traitsILb0ELb0ELb1EEEE4sizeEv, symObjAddr: 0xC780, symBinAddr: 0x10001063C, symSize: 0x18 }
  - { offsetInCU: 0x4BF27, offset: 0x4BF27, size: 0x8, addend: 0x0, symName: __ZNSt10_HashtableIiSt4pairIKiNSt7__debug13unordered_setINSt7__cxx1112basic_stringIcSt11char_traitsIcESaIcEEESt4hashIS9_ESt8equal_toIS9_ESaIS9_EEEESaISG_ENSt8__detail10_Select1stESC_IiESA_IiENSI_18_Mod_range_hashingENSI_20_Default_ranged_hashENSI_20_Prime_rehash_policyENSI_17_Hashtable_traitsILb0ELb0ELb1EEEE22__small_size_thresholdEv, symObjAddr: 0xC798, symBinAddr: 0x100010654, symSize: 0x14 }
  - { offsetInCU: 0x4C16F, offset: 0x4C16F, size: 0x8, addend: 0x0, symName: __ZSt11__addressofIKN11__gnu_debug14_Safe_iteratorIN9__gnu_cxx17__normal_iteratorIPNSt7__cxx1112basic_stringIcSt11char_traitsIcESaIcEEENSt9__cxx19986vectorIS9_SaIS9_EEEEENSt7__debug6vectorIS9_SD_EESt20forward_iterator_tagEEEPT_RSM_, symObjAddr: 0xC76C, symBinAddr: 0x100010628, symSize: 0x14 }
  - { offsetInCU: 0x4C177, offset: 0x4C177, size: 0x8, addend: 0x0, symName: __ZNKSt10_HashtableIiSt4pairIKiNSt7__debug13unordered_setINSt7__cxx1112basic_stringIcSt11char_traitsIcESaIcEEESt4hashIS9_ESt8equal_toIS9_ESaIS9_EEEESaISG_ENSt8__detail10_Select1stESC_IiESA_IiENSI_18_Mod_range_hashingENSI_20_Default_ranged_hashENSI_20_Prime_rehash_policyENSI_17_Hashtable_traitsILb0ELb0ELb1EEEE4sizeEv, symObjAddr: 0xC780, symBinAddr: 0x10001063C, symSize: 0x18 }
  - { offsetInCU: 0x4BF9C, offset: 0x4BF9C, size: 0x8, addend: 0x0, symName: __ZN11__gnu_debug18_BeforeBeginHelperINSt7__debug6vectorINSt7__cxx1112basic_stringIcSt11char_traitsIcESaIcEEESaIS8_EEEE5_S_IsIN9__gnu_cxx17__normal_iteratorIPS8_NSt9__cxx19986vectorIS8_S9_EEEESt20forward_iterator_tagEEbRKNS_14_Safe_iteratorIT_SA_T0_EE, symObjAddr: 0xC758, symBinAddr: 0x100010614, symSize: 0x14 }
  - { offsetInCU: 0x4BFA4, offset: 0x4BFA4, size: 0x8, addend: 0x0, symName: __ZSt11__addressofIKN11__gnu_debug14_Safe_iteratorIN9__gnu_cxx17__normal_iteratorIPNSt7__cxx1112basic_stringIcSt11char_traitsIcESaIcEEENSt9__cxx19986vectorIS9_SaIS9_EEEEENSt7__debug6vectorIS9_SD_EESt20forward_iterator_tagEEEPT_RSM_, symObjAddr: 0xC76C, symBinAddr: 0x100010628, symSize: 0x14 }
  - { offsetInCU: 0x4BFE2, offset: 0x4BFE2, size: 0x8, addend: 0x0, symName: __ZNSt7__debug6vectorINSt7__cxx1112basic_stringIcSt11char_traitsIcESaIcEEESaIS6_EE7_M_baseEv, symObjAddr: 0xC740, symBinAddr: 0x1000105FC, symSize: 0x18 }
  - { offsetInCU: 0x4BFEA, offset: 0x4BFEA, size: 0x8, addend: 0x0, symName: __ZN11__gnu_debug18_BeforeBeginHelperINSt7__debug6vectorINSt7__cxx1112basic_stringIcSt11char_traitsIcESaIcEEESaIS8_EEEE5_S_IsIN9__gnu_cxx17__normal_iteratorIPS8_NSt9__cxx19986vectorIS8_S9_EEEESt20forward_iterator_tagEEbRKNS_14_Safe_iteratorIT_SA_T0_EE, symObjAddr: 0xC758, symBinAddr: 0x100010614, symSize: 0x14 }
  - { offsetInCU: 0x4C013, offset: 0x4C013, size: 0x8, addend: 0x0, symName: __ZN9__gnu_cxx17__normal_iteratorIPNSt7__cxx1112basic_stringIcSt11char_traitsIcESaIcEEENSt9__cxx19986vectorIS6_SaIS6_EEEEppEv, symObjAddr: 0xC718, symBinAddr: 0x1000105D4, symSize: 0x28 }
  - { offsetInCU: 0x4C01B, offset: 0x4C01B, size: 0x8, addend: 0x0, symName: __ZNSt7__debug6vectorINSt7__cxx1112basic_stringIcSt11char_traitsIcESaIcEEESaIS6_EE7_M_baseEv, symObjAddr: 0xC740, symBinAddr: 0x1000105FC, symSize: 0x18 }
  - { offsetInCU: 0x4C044, offset: 0x4C044, size: 0x8, addend: 0x0, symName: __ZN11__gnu_debug14_Safe_iteratorIN9__gnu_cxx17__normal_iteratorIPNSt7__cxx1112basic_stringIcSt11char_traitsIcESaIcEEENSt9__cxx19986vectorIS8_SaIS8_EEEEENSt7__debug6vectorIS8_SC_EESt20forward_iterator_tagE4baseEv, symObjAddr: 0xC704, symBinAddr: 0x1000105C0, symSize: 0x14 }
  - { offsetInCU: 0x4C04C, offset: 0x4C04C, size: 0x8, addend: 0x0, symName: __ZN9__gnu_cxx17__normal_iteratorIPNSt7__cxx1112basic_stringIcSt11char_traitsIcESaIcEEENSt9__cxx19986vectorIS6_SaIS6_EEEEppEv, symObjAddr: 0xC718, symBinAddr: 0x1000105D4, symSize: 0x28 }
  - { offsetInCU: 0x4C075, offset: 0x4C075, size: 0x8, addend: 0x0, symName: __ZNK11__gnu_debug14_Safe_iteratorIN9__gnu_cxx17__normal_iteratorIPNSt7__cxx1112basic_stringIcSt11char_traitsIcESaIcEEENSt9__cxx19986vectorIS8_SaIS8_EEEEENSt7__debug6vectorIS8_SC_EESt20forward_iterator_tagE16_M_incrementableEv, symObjAddr: 0xC6A0, symBinAddr: 0x10001055C, symSize: 0x64 }
  - { offsetInCU: 0x4C07D, offset: 0x4C07D, size: 0x8, addend: 0x0, symName: __ZN11__gnu_debug14_Safe_iteratorIN9__gnu_cxx17__normal_iteratorIPNSt7__cxx1112basic_stringIcSt11char_traitsIcESaIcEEENSt9__cxx19986vectorIS8_SaIS8_EEEEENSt7__debug6vectorIS8_SC_EESt20forward_iterator_tagE4baseEv, symObjAddr: 0xC704, symBinAddr: 0x1000105C0, symSize: 0x14 }
  - { offsetInCU: 0x4C0A6, offset: 0x4C0A6, size: 0x8, addend: 0x0, symName: __ZNK11__gnu_debug14_Safe_iteratorIN9__gnu_cxx17__normal_iteratorIPNSt7__cxx1112basic_stringIcSt11char_traitsIcESaIcEEENSt9__cxx19986vectorIS8_SaIS8_EEEEENSt7__debug6vectorIS8_SC_EESt20forward_iterator_tagE11_M_is_beginEv, symObjAddr: 0xC650, symBinAddr: 0x10001050C, symSize: 0x50 }
  - { offsetInCU: 0x4C0AE, offset: 0x4C0AE, size: 0x8, addend: 0x0, symName: __ZNK11__gnu_debug14_Safe_iteratorIN9__gnu_cxx17__normal_iteratorIPNSt7__cxx1112basic_stringIcSt11char_traitsIcESaIcEEENSt9__cxx19986vectorIS8_SaIS8_EEEEENSt7__debug6vectorIS8_SC_EESt20forward_iterator_tagE16_M_incrementableEv, symObjAddr: 0xC6A0, symBinAddr: 0x10001055C, symSize: 0x64 }
  - { offsetInCU: 0x4C0D7, offset: 0x4C0D7, size: 0x8, addend: 0x0, symName: __ZNK11__gnu_debug14_Safe_iteratorIN9__gnu_cxx17__normal_iteratorIPNSt7__cxx1112basic_stringIcSt11char_traitsIcESaIcEEENSt9__cxx19986vectorIS8_SaIS8_EEEEENSt7__debug6vectorIS8_SC_EESt20forward_iterator_tagE15_M_get_sequenceEv, symObjAddr: 0xC638, symBinAddr: 0x1000104F4, symSize: 0x18 }
  - { offsetInCU: 0x4C0DF, offset: 0x4C0DF, size: 0x8, addend: 0x0, symName: __ZNK11__gnu_debug14_Safe_iteratorIN9__gnu_cxx17__normal_iteratorIPNSt7__cxx1112basic_stringIcSt11char_traitsIcESaIcEEENSt9__cxx19986vectorIS8_SaIS8_EEEEENSt7__debug6vectorIS8_SC_EESt20forward_iterator_tagE11_M_is_beginEv, symObjAddr: 0xC650, symBinAddr: 0x10001050C, symSize: 0x50 }
  - { offsetInCU: 0x4C333, offset: 0x4C333, size: 0x8, addend: 0x0, symName: __ZSt11__addressofIKN11__gnu_debug14_Safe_iteratorIN9__gnu_cxx17__normal_iteratorIPNSt7__cxx1112basic_stringIcSt11char_traitsIcESaIcEEENSt9__cxx19986vectorIS9_SaIS9_EEEEENSt7__debug6vectorIS9_SD_EESt26random_access_iterator_tagEEEPT_RSM_, symObjAddr: 0xC624, symBinAddr: 0x1000104E0, symSize: 0x14 }
  - { offsetInCU: 0x4C33B, offset: 0x4C33B, size: 0x8, addend: 0x0, symName: __ZNK11__gnu_debug14_Safe_iteratorIN9__gnu_cxx17__normal_iteratorIPNSt7__cxx1112basic_stringIcSt11char_traitsIcESaIcEEENSt9__cxx19986vectorIS8_SaIS8_EEEEENSt7__debug6vectorIS8_SC_EESt20forward_iterator_tagE15_M_get_sequenceEv, symObjAddr: 0xC638, symBinAddr: 0x1000104F4, symSize: 0x18 }
  - { offsetInCU: 0x4C27F, offset: 0x4C27F, size: 0x8, addend: 0x0, symName: __ZN11__gnu_debug14_Safe_iteratorIN9__gnu_cxx17__normal_iteratorIPNSt7__cxx1112basic_stringIcSt11char_traitsIcESaIcEEENSt9__cxx19986vectorIS8_SaIS8_EEEEENSt7__debug6vectorIS8_SC_EESt20forward_iterator_tagEC2ESE_PKNS_19_Safe_sequence_baseE, symObjAddr: 0xC5D0, symBinAddr: 0x10001048C, symSize: 0x54 }
  - { offsetInCU: 0x4C287, offset: 0x4C287, size: 0x8, addend: 0x0, symName: __ZSt11__addressofIKN11__gnu_debug14_Safe_iteratorIN9__gnu_cxx17__normal_iteratorIPNSt7__cxx1112basic_stringIcSt11char_traitsIcESaIcEEENSt9__cxx19986vectorIS9_SaIS9_EEEEENSt7__debug6vectorIS9_SD_EESt26random_access_iterator_tagEEEPT_RSM_, symObjAddr: 0xC624, symBinAddr: 0x1000104E0, symSize: 0x14 }
  - { offsetInCU: 0x4C1DB, offset: 0x4C1DB, size: 0x8, addend: 0x0, symName: __ZNSt8__detail16_Hashtable_allocISaINS_10_Hash_nodeISt4pairIKiNSt7__debug13unordered_setINSt7__cxx1112basic_stringIcSt11char_traitsIcESaIcEEESt4hashISB_ESt8equal_toISB_ESaISB_EEEELb0EEEEE21_M_deallocate_bucketsEPPNS_15_Hash_node_baseEm, symObjAddr: 0xC558, symBinAddr: 0x100010414, symSize: 0x78 }
  - { offsetInCU: 0x4C1E3, offset: 0x4C1E3, size: 0x8, addend: 0x0, symName: __ZN11__gnu_debug14_Safe_iteratorIN9__gnu_cxx17__normal_iteratorIPNSt7__cxx1112basic_stringIcSt11char_traitsIcESaIcEEENSt9__cxx19986vectorIS8_SaIS8_EEEEENSt7__debug6vectorIS8_SC_EESt20forward_iterator_tagEC2ESE_PKNS_19_Safe_sequence_baseE, symObjAddr: 0xC5D0, symBinAddr: 0x10001048C, symSize: 0x54 }
  - { offsetInCU: 0x4C31F, offset: 0x4C31F, size: 0x8, addend: 0x0, symName: __ZNKSt10_HashtableIiSt4pairIKiNSt7__debug13unordered_setINSt7__cxx1112basic_stringIcSt11char_traitsIcESaIcEEESt4hashIS9_ESt8equal_toIS9_ESaIS9_EEEESaISG_ENSt8__detail10_Select1stESC_IiESA_IiENSI_18_Mod_range_hashingENSI_20_Default_ranged_hashENSI_20_Prime_rehash_policyENSI_17_Hashtable_traitsILb0ELb0ELb1EEEE21_M_uses_single_bucketEPPNSI_15_Hash_node_baseE, symObjAddr: 0xC51C, symBinAddr: 0x1000103D8, symSize: 0x3C }
  - { offsetInCU: 0x4C327, offset: 0x4C327, size: 0x8, addend: 0x0, symName: __ZNSt8__detail16_Hashtable_allocISaINS_10_Hash_nodeISt4pairIKiNSt7__debug13unordered_setINSt7__cxx1112basic_stringIcSt11char_traitsIcESaIcEEESt4hashISB_ESt8equal_toISB_ESaISB_EEEELb0EEEEE21_M_deallocate_bucketsEPPNS_15_Hash_node_baseEm, symObjAddr: 0xC558, symBinAddr: 0x100010414, symSize: 0x78 }
  - { offsetInCU: 0x4C365, offset: 0x4C365, size: 0x8, addend: 0x0, symName: __ZNSt8__detail16_Hashtable_allocISaINS_10_Hash_nodeISt4pairIKiNSt7__debug13unordered_setINSt7__cxx1112basic_stringIcSt11char_traitsIcESaIcEEESt4hashISB_ESt8equal_toISB_ESaISB_EEEELb0EEEEE18_M_deallocate_nodeEPSJ_, symObjAddr: 0xC4AC, symBinAddr: 0x100010368, symSize: 0x70 }
  - { offsetInCU: 0x4C36D, offset: 0x4C36D, size: 0x8, addend: 0x0, symName: __ZNKSt10_HashtableIiSt4pairIKiNSt7__debug13unordered_setINSt7__cxx1112basic_stringIcSt11char_traitsIcESaIcEEESt4hashIS9_ESt8equal_toIS9_ESaIS9_EEEESaISG_ENSt8__detail10_Select1stESC_IiESA_IiENSI_18_Mod_range_hashingENSI_20_Default_ranged_hashENSI_20_Prime_rehash_policyENSI_17_Hashtable_traitsILb0ELb0ELb1EEEE21_M_uses_single_bucketEPPNSI_15_Hash_node_baseE, symObjAddr: 0xC51C, symBinAddr: 0x1000103D8, symSize: 0x3C }
  - { offsetInCU: 0x4C415, offset: 0x4C415, size: 0x8, addend: 0x0, symName: __ZNKSt8__detail10_Hash_nodeISt4pairIKiNSt7__debug13unordered_setINSt7__cxx1112basic_stringIcSt11char_traitsIcESaIcEEESt4hashISA_ESt8equal_toISA_ESaISA_EEEELb0EE7_M_nextEv, symObjAddr: 0xC494, symBinAddr: 0x100010350, symSize: 0x18 }
  - { offsetInCU: 0x4C41D, offset: 0x4C41D, size: 0x8, addend: 0x0, symName: __ZNSt8__detail16_Hashtable_allocISaINS_10_Hash_nodeISt4pairIKiNSt7__debug13unordered_setINSt7__cxx1112basic_stringIcSt11char_traitsIcESaIcEEESt4hashISB_ESt8equal_toISB_ESaISB_EEEELb0EEEEE18_M_deallocate_nodeEPSJ_, symObjAddr: 0xC4AC, symBinAddr: 0x100010368, symSize: 0x70 }
  - { offsetInCU: 0x4C446, offset: 0x4C446, size: 0x8, addend: 0x0, symName: __ZNSt8__detail16_Hashtable_allocISaINS_10_Hash_nodeISt4pairIKiNSt7__debug6vectorINSt7__cxx1112basic_stringIcSt11char_traitsIcESaIcEEESaISB_EEEELb0EEEEE21_M_deallocate_bucketsEPPNS_15_Hash_node_baseEm, symObjAddr: 0xC41C, symBinAddr: 0x1000102D8, symSize: 0x78 }
  - { offsetInCU: 0x4C44E, offset: 0x4C44E, size: 0x8, addend: 0x0, symName: __ZNKSt8__detail10_Hash_nodeISt4pairIKiNSt7__debug13unordered_setINSt7__cxx1112basic_stringIcSt11char_traitsIcESaIcEEESt4hashISA_ESt8equal_toISA_ESaISA_EEEELb0EE7_M_nextEv, symObjAddr: 0xC494, symBinAddr: 0x100010350, symSize: 0x18 }
  - { offsetInCU: 0x4C58A, offset: 0x4C58A, size: 0x8, addend: 0x0, symName: __ZNKSt10_HashtableIiSt4pairIKiNSt7__debug6vectorINSt7__cxx1112basic_stringIcSt11char_traitsIcESaIcEEESaIS9_EEEESaISC_ENSt8__detail10_Select1stESt8equal_toIiESt4hashIiENSE_18_Mod_range_hashingENSE_20_Default_ranged_hashENSE_20_Prime_rehash_policyENSE_17_Hashtable_traitsILb0ELb0ELb1EEEE21_M_uses_single_bucketEPPNSE_15_Hash_node_baseE, symObjAddr: 0xC3E0, symBinAddr: 0x10001029C, symSize: 0x3C }
  - { offsetInCU: 0x4C592, offset: 0x4C592, size: 0x8, addend: 0x0, symName: __ZNSt8__detail16_Hashtable_allocISaINS_10_Hash_nodeISt4pairIKiNSt7__debug6vectorINSt7__cxx1112basic_stringIcSt11char_traitsIcESaIcEEESaISB_EEEELb0EEEEE21_M_deallocate_bucketsEPPNS_15_Hash_node_baseEm, symObjAddr: 0xC41C, symBinAddr: 0x1000102D8, symSize: 0x78 }
  - { offsetInCU: 0x4C5D0, offset: 0x4C5D0, size: 0x8, addend: 0x0, symName: __ZNSt8__detail16_Hashtable_allocISaINS_10_Hash_nodeISt4pairIKiNSt7__debug6vectorINSt7__cxx1112basic_stringIcSt11char_traitsIcESaIcEEESaISB_EEEELb0EEEEE18_M_deallocate_nodeEPSF_, symObjAddr: 0xC370, symBinAddr: 0x10001022C, symSize: 0x70 }
  - { offsetInCU: 0x4C5D8, offset: 0x4C5D8, size: 0x8, addend: 0x0, symName: __ZNKSt10_HashtableIiSt4pairIKiNSt7__debug6vectorINSt7__cxx1112basic_stringIcSt11char_traitsIcESaIcEEESaIS9_EEEESaISC_ENSt8__detail10_Select1stESt8equal_toIiESt4hashIiENSE_18_Mod_range_hashingENSE_20_Default_ranged_hashENSE_20_Prime_rehash_policyENSE_17_Hashtable_traitsILb0ELb0ELb1EEEE21_M_uses_single_bucketEPPNSE_15_Hash_node_baseE, symObjAddr: 0xC3E0, symBinAddr: 0x10001029C, symSize: 0x3C }
  - { offsetInCU: 0x4C680, offset: 0x4C680, size: 0x8, addend: 0x0, symName: __ZNKSt8__detail10_Hash_nodeISt4pairIKiNSt7__debug6vectorINSt7__cxx1112basic_stringIcSt11char_traitsIcESaIcEEESaISA_EEEELb0EE7_M_nextEv, symObjAddr: 0xC358, symBinAddr: 0x100010214, symSize: 0x18 }
  - { offsetInCU: 0x4C688, offset: 0x4C688, size: 0x8, addend: 0x0, symName: __ZNSt8__detail16_Hashtable_allocISaINS_10_Hash_nodeISt4pairIKiNSt7__debug6vectorINSt7__cxx1112basic_stringIcSt11char_traitsIcESaIcEEESaISB_EEEELb0EEEEE18_M_deallocate_nodeEPSF_, symObjAddr: 0xC370, symBinAddr: 0x10001022C, symSize: 0x70 }
  - { offsetInCU: 0x4C71A, offset: 0x4C71A, size: 0x8, addend: 0x0, symName: __ZSt11__addressofIKNSt7__debug6vectorIiSaIiEEEEPT_RS5_, symObjAddr: 0xC344, symBinAddr: 0x100010200, symSize: 0x14 }
  - { offsetInCU: 0x4C722, offset: 0x4C722, size: 0x8, addend: 0x0, symName: __ZNKSt8__detail10_Hash_nodeISt4pairIKiNSt7__debug6vectorINSt7__cxx1112basic_stringIcSt11char_traitsIcESaIcEEESaISA_EEEELb0EE7_M_nextEv, symObjAddr: 0xC358, symBinAddr: 0x100010214, symSize: 0x18 }
  - { offsetInCU: 0x4C6FD, offset: 0x4C6FD, size: 0x8, addend: 0x0, symName: __ZNSt10_HashtableINSt7__cxx1112basic_stringIcSt11char_traitsIcESaIcEEESt4pairIKS5_iESaIS8_ENSt8__detail10_Select1stESt8equal_toIS5_ESt4hashIS5_ENSA_18_Mod_range_hashingENSA_20_Default_ranged_hashENSA_20_Prime_rehash_policyENSA_17_Hashtable_traitsILb1ELb0ELb1EEEE22_M_insert_bucket_beginEmPNSA_10_Hash_nodeIS8_Lb1EEE, symObjAddr: 0xC238, symBinAddr: 0x1000100F4, symSize: 0x10C }
  - { offsetInCU: 0x4C705, offset: 0x4C705, size: 0x8, addend: 0x0, symName: __ZSt11__addressofIKNSt7__debug6vectorIiSaIiEEEEPT_RS5_, symObjAddr: 0xC344, symBinAddr: 0x100010200, symSize: 0x14 }
  - { offsetInCU: 0x4C758, offset: 0x4C758, size: 0x8, addend: 0x0, symName: __ZNKSt8__detail15_Hash_code_baseINSt7__cxx1112basic_stringIcSt11char_traitsIcESaIcEEESt4pairIKS6_iENS_10_Select1stESt4hashIS6_ENS_18_Mod_range_hashingENS_20_Default_ranged_hashELb1EE13_M_store_codeERNS_21_Hash_node_code_cacheILb1EEEm, symObjAddr: 0xC210, symBinAddr: 0x1000100CC, symSize: 0x28 }
  - { offsetInCU: 0x4C760, offset: 0x4C760, size: 0x8, addend: 0x0, symName: __ZNSt10_HashtableINSt7__cxx1112basic_stringIcSt11char_traitsIcESaIcEEESt4pairIKS5_iESaIS8_ENSt8__detail10_Select1stESt8equal_toIS5_ESt4hashIS5_ENSA_18_Mod_range_hashingENSA_20_Default_ranged_hashENSA_20_Prime_rehash_policyENSA_17_Hashtable_traitsILb1ELb0ELb1EEEE22_M_insert_bucket_beginEmPNSA_10_Hash_nodeIS8_Lb1EEE, symObjAddr: 0xC238, symBinAddr: 0x1000100F4, symSize: 0x10C }
  - { offsetInCU: 0x4C7B3, offset: 0x4C7B3, size: 0x8, addend: 0x0, symName: __ZNSt10_HashtableINSt7__cxx1112basic_stringIcSt11char_traitsIcESaIcEEESt4pairIKS5_iESaIS8_ENSt8__detail10_Select1stESt8equal_toIS5_ESt4hashIS5_ENSA_18_Mod_range_hashingENSA_20_Default_ranged_hashENSA_20_Prime_rehash_policyENSA_17_Hashtable_traitsILb1ELb0ELb1EEEE9_M_rehashEmRKm, symObjAddr: 0xC1A4, symBinAddr: 0x100010060, symSize: 0x6C }
  - { offsetInCU: 0x4C7BB, offset: 0x4C7BB, size: 0x8, addend: 0x0, symName: __ZNKSt8__detail15_Hash_code_baseINSt7__cxx1112basic_stringIcSt11char_traitsIcESaIcEEESt4pairIKS6_iENS_10_Select1stESt4hashIS6_ENS_18_Mod_range_hashingENS_20_Default_ranged_hashELb1EE13_M_store_codeERNS_21_Hash_node_code_cacheILb1EEEm, symObjAddr: 0xC210, symBinAddr: 0x1000100CC, symSize: 0x28 }
  - { offsetInCU: 0x4C80E, offset: 0x4C80E, size: 0x8, addend: 0x0, symName: __ZNSt8__detail16_Hashtable_allocISaINS_10_Hash_nodeISt4pairIKNSt7__cxx1112basic_stringIcSt11char_traitsIcESaIcEEEiELb1EEEEE16_M_allocate_nodeIJRKSt21piecewise_construct_tSt5tupleIJRS9_EESI_IJEEEEEPSB_DpOT_, symObjAddr: 0xBFC0, symBinAddr: 0x10000FE7C, symSize: 0x1E4 }
  - { offsetInCU: 0x4C816, offset: 0x4C816, size: 0x8, addend: 0x0, symName: __ZNSt10_HashtableINSt7__cxx1112basic_stringIcSt11char_traitsIcESaIcEEESt4pairIKS5_iESaIS8_ENSt8__detail10_Select1stESt8equal_toIS5_ESt4hashIS5_ENSA_18_Mod_range_hashingENSA_20_Default_ranged_hashENSA_20_Prime_rehash_policyENSA_17_Hashtable_traitsILb1ELb0ELb1EEEE9_M_rehashEmRKm, symObjAddr: 0xC1A4, symBinAddr: 0x100010060, symSize: 0x6C }
  - { offsetInCU: 0x4CA77, offset: 0x4CA77, size: 0x8, addend: 0x0, symName: __ZNSt8__detail10_Hash_nodeISt4pairIKNSt7__cxx1112basic_stringIcSt11char_traitsIcESaIcEEEiELb1EEC1Ev, symObjAddr: 0xBFA0, symBinAddr: 0x10000FE5C, symSize: 0x20 }
  - { offsetInCU: 0x4CA7F, offset: 0x4CA7F, size: 0x8, addend: 0x0, symName: __ZNSt8__detail16_Hashtable_allocISaINS_10_Hash_nodeISt4pairIKNSt7__cxx1112basic_stringIcSt11char_traitsIcESaIcEEEiELb1EEEEE16_M_allocate_nodeIJRKSt21piecewise_construct_tSt5tupleIJRS9_EESI_IJEEEEEPSB_DpOT_, symObjAddr: 0xBFC0, symBinAddr: 0x10000FE7C, symSize: 0x1E4 }
  - { offsetInCU: 0x4CA9D, offset: 0x4CA9D, size: 0x8, addend: 0x0, symName: __ZSt7forwardISt5tupleIJEEEOT_RNSt16remove_referenceIS2_E4typeE, symObjAddr: 0xBF8C, symBinAddr: 0x10000FE48, symSize: 0x14 }
  - { offsetInCU: 0x4CAA5, offset: 0x4CAA5, size: 0x8, addend: 0x0, symName: __ZNSt8__detail10_Hash_nodeISt4pairIKNSt7__cxx1112basic_stringIcSt11char_traitsIcESaIcEEEiELb1EEC1Ev, symObjAddr: 0xBFA0, symBinAddr: 0x10000FE5C, symSize: 0x20 }
  - { offsetInCU: 0x4CB7F, offset: 0x4CB7F, size: 0x8, addend: 0x0, symName: __ZSt7forwardISt5tupleIJRKNSt7__cxx1112basic_stringIcSt11char_traitsIcESaIcEEEEEEOT_RNSt16remove_referenceISA_E4typeE, symObjAddr: 0xBF78, symBinAddr: 0x10000FE34, symSize: 0x14 }
  - { offsetInCU: 0x4CB87, offset: 0x4CB87, size: 0x8, addend: 0x0, symName: __ZSt7forwardISt5tupleIJEEEOT_RNSt16remove_referenceIS2_E4typeE, symObjAddr: 0xBF8C, symBinAddr: 0x10000FE48, symSize: 0x14 }
  - { offsetInCU: 0x4CB6C, offset: 0x4CB6C, size: 0x8, addend: 0x0, symName: __ZSt7forwardIRKSt21piecewise_construct_tEOT_RNSt16remove_referenceIS3_E4typeE, symObjAddr: 0xBF64, symBinAddr: 0x10000FE20, symSize: 0x14 }
  - { offsetInCU: 0x4CB74, offset: 0x4CB74, size: 0x8, addend: 0x0, symName: __ZSt7forwardISt5tupleIJRKNSt7__cxx1112basic_stringIcSt11char_traitsIcESaIcEEEEEEOT_RNSt16remove_referenceISA_E4typeE, symObjAddr: 0xBF78, symBinAddr: 0x10000FE34, symSize: 0x14 }
  - { offsetInCU: 0x4CBC9, offset: 0x4CBC9, size: 0x8, addend: 0x0, symName: __ZNSt11_Tuple_implILm0EJRKNSt7__cxx1112basic_stringIcSt11char_traitsIcESaIcEEEEEC2ES7_, symObjAddr: 0xBF3C, symBinAddr: 0x10000FDF8, symSize: 0x28 }
  - { offsetInCU: 0x4CBD1, offset: 0x4CBD1, size: 0x8, addend: 0x0, symName: __ZSt7forwardIRKSt21piecewise_construct_tEOT_RNSt16remove_referenceIS3_E4typeE, symObjAddr: 0xBF64, symBinAddr: 0x10000FE20, symSize: 0x14 }
  - { offsetInCU: 0x4CBAF, offset: 0x4CBAF, size: 0x8, addend: 0x0, symName: __ZNSt8__detail21_Hash_node_value_baseISt4pairIKNSt7__cxx1112basic_stringIcSt11char_traitsIcESaIcEEEiEE9_M_valptrEv, symObjAddr: 0xBF20, symBinAddr: 0x10000FDDC, symSize: 0x1C }
  - { offsetInCU: 0x4CBB7, offset: 0x4CBB7, size: 0x8, addend: 0x0, symName: __ZNSt11_Tuple_implILm0EJRKNSt7__cxx1112basic_stringIcSt11char_traitsIcESaIcEEEEEC2ES7_, symObjAddr: 0xBF3C, symBinAddr: 0x10000FDF8, symSize: 0x28 }
  - { offsetInCU: 0x4CBE0, offset: 0x4CBE0, size: 0x8, addend: 0x0, symName: __ZNKSt10_HashtableINSt7__cxx1112basic_stringIcSt11char_traitsIcESaIcEEESt4pairIKS5_iESaIS8_ENSt8__detail10_Select1stESt8equal_toIS5_ESt4hashIS5_ENSA_18_Mod_range_hashingENSA_20_Default_ranged_hashENSA_20_Prime_rehash_policyENSA_17_Hashtable_traitsILb1ELb0ELb1EEEE19_M_find_before_nodeEmRS7_m, symObjAddr: 0xBE20, symBinAddr: 0x10000FCDC, symSize: 0x100 }
  - { offsetInCU: 0x4CBE8, offset: 0x4CBE8, size: 0x8, addend: 0x0, symName: __ZNSt8__detail21_Hash_node_value_baseISt4pairIKNSt7__cxx1112basic_stringIcSt11char_traitsIcESaIcEEEiEE9_M_valptrEv, symObjAddr: 0xBF20, symBinAddr: 0x10000FDDC, symSize: 0x1C }
  - { offsetInCU: 0x4CC8D, offset: 0x4CC8D, size: 0x8, addend: 0x0, symName: __ZNKSt8__detail15_Hash_code_baseINSt7__cxx1112basic_stringIcSt11char_traitsIcESaIcEEESt4pairIKS6_iENS_10_Select1stESt4hashIS6_ENS_18_Mod_range_hashingENS_20_Default_ranged_hashELb1EE15_M_bucket_indexEmm, symObjAddr: 0xBDF4, symBinAddr: 0x10000FCB0, symSize: 0x2C }
  - { offsetInCU: 0x4CC95, offset: 0x4CC95, size: 0x8, addend: 0x0, symName: __ZNKSt10_HashtableINSt7__cxx1112basic_stringIcSt11char_traitsIcESaIcEEESt4pairIKS5_iESaIS8_ENSt8__detail10_Select1stESt8equal_toIS5_ESt4hashIS5_ENSA_18_Mod_range_hashingENSA_20_Default_ranged_hashENSA_20_Prime_rehash_policyENSA_17_Hashtable_traitsILb1ELb0ELb1EEEE19_M_find_before_nodeEmRS7_m, symObjAddr: 0xBE20, symBinAddr: 0x10000FCDC, symSize: 0x100 }
  - { offsetInCU: 0x4CCE8, offset: 0x4CCE8, size: 0x8, addend: 0x0, symName: __ZNKSt15__str_hash_baseIcSaIcENSt7__cxx1112basic_stringIcSt11char_traitsIcES0_EEEclERKS5_, symObjAddr: 0xBDAC, symBinAddr: 0x10000FC68, symSize: 0x48 }
  - { offsetInCU: 0x4CCF0, offset: 0x4CCF0, size: 0x8, addend: 0x0, symName: __ZNKSt8__detail15_Hash_code_baseINSt7__cxx1112basic_stringIcSt11char_traitsIcESaIcEEESt4pairIKS6_iENS_10_Select1stESt4hashIS6_ENS_18_Mod_range_hashingENS_20_Default_ranged_hashELb1EE15_M_bucket_indexEmm, symObjAddr: 0xBDF4, symBinAddr: 0x10000FCB0, symSize: 0x2C }
  - { offsetInCU: 0x4CD2E, offset: 0x4CD2E, size: 0x8, addend: 0x0, symName: __ZNKSt8__detail15_Hash_code_baseINSt7__cxx1112basic_stringIcSt11char_traitsIcESaIcEEESt4pairIKS6_iENS_10_Select1stESt4hashIS6_ENS_18_Mod_range_hashingENS_20_Default_ranged_hashELb1EE7_M_hashEv, symObjAddr: 0xBD90, symBinAddr: 0x10000FC4C, symSize: 0x1C }
  - { offsetInCU: 0x4CD36, offset: 0x4CD36, size: 0x8, addend: 0x0, symName: __ZNKSt15__str_hash_baseIcSaIcENSt7__cxx1112basic_stringIcSt11char_traitsIcES0_EEEclERKS5_, symObjAddr: 0xBDAC, symBinAddr: 0x10000FC68, symSize: 0x48 }
  - { offsetInCU: 0x4CD5F, offset: 0x4CD5F, size: 0x8, addend: 0x0, symName: __ZNK11__gnu_debug14_Safe_iteratorINSt8__detail14_Node_iteratorISt4pairIKNSt7__cxx1112basic_stringIcSt11char_traitsIcESaIcEEEiELb0ELb1EEENSt7__debug13unordered_mapIS9_iSt4hashIS9_ESt8equal_toIS9_ESaISB_EEESt20forward_iterator_tagE11_M_is_beginEv, symObjAddr: 0xBD40, symBinAddr: 0x10000FBFC, symSize: 0x50 }
  - { offsetInCU: 0x4CD67, offset: 0x4CD67, size: 0x8, addend: 0x0, symName: __ZNKSt8__detail15_Hash_code_baseINSt7__cxx1112basic_stringIcSt11char_traitsIcESaIcEEESt4pairIKS6_iENS_10_Select1stESt4hashIS6_ENS_18_Mod_range_hashingENS_20_Default_ranged_hashELb1EE7_M_hashEv, symObjAddr: 0xBD90, symBinAddr: 0x10000FC4C, symSize: 0x1C }
  - { offsetInCU: 0x4CD90, offset: 0x4CD90, size: 0x8, addend: 0x0, symName: __ZNK11__gnu_debug14_Safe_iteratorINSt8__detail14_Node_iteratorISt4pairIKNSt7__cxx1112basic_stringIcSt11char_traitsIcESaIcEEEiELb0ELb1EEENSt7__debug13unordered_mapIS9_iSt4hashIS9_ESt8equal_toIS9_ESaISB_EEESt20forward_iterator_tagE9_M_is_endEv, symObjAddr: 0xBCF0, symBinAddr: 0x10000FBAC, symSize: 0x50 }
  - { offsetInCU: 0x4CD98, offset: 0x4CD98, size: 0x8, addend: 0x0, symName: __ZNK11__gnu_debug14_Safe_iteratorINSt8__detail14_Node_iteratorISt4pairIKNSt7__cxx1112basic_stringIcSt11char_traitsIcESaIcEEEiELb0ELb1EEENSt7__debug13unordered_mapIS9_iSt4hashIS9_ESt8equal_toIS9_ESaISB_EEESt20forward_iterator_tagE11_M_is_beginEv, symObjAddr: 0xBD40, symBinAddr: 0x10000FBFC, symSize: 0x50 }
  - { offsetInCU: 0x4CDC1, offset: 0x4CDC1, size: 0x8, addend: 0x0, symName: __ZNK11__gnu_debug14_Safe_iteratorINSt8__detail14_Node_iteratorISt4pairIKNSt7__cxx1112basic_stringIcSt11char_traitsIcESaIcEEEiELb0ELb1EEENSt7__debug13unordered_mapIS9_iSt4hashIS9_ESt8equal_toIS9_ESaISB_EEESt20forward_iterator_tagE18_M_is_before_beginEv, symObjAddr: 0xBCD0, symBinAddr: 0x10000FB8C, symSize: 0x20 }
  - { offsetInCU: 0x4CDC9, offset: 0x4CDC9, size: 0x8, addend: 0x0, symName: __ZNK11__gnu_debug14_Safe_iteratorINSt8__detail14_Node_iteratorISt4pairIKNSt7__cxx1112basic_stringIcSt11char_traitsIcESaIcEEEiELb0ELb1EEENSt7__debug13unordered_mapIS9_iSt4hashIS9_ESt8equal_toIS9_ESaISB_EEESt20forward_iterator_tagE9_M_is_endEv, symObjAddr: 0xBCF0, symBinAddr: 0x10000FBAC, symSize: 0x50 }
  - { offsetInCU: 0x4CDF2, offset: 0x4CDF2, size: 0x8, addend: 0x0, symName: __ZNK11__gnu_debug14_Safe_iteratorINSt8__detail14_Node_iteratorISt4pairIKNSt7__cxx1112basic_stringIcSt11char_traitsIcESaIcEEEiELb0ELb1EEENSt7__debug13unordered_mapIS9_iSt4hashIS9_ESt8equal_toIS9_ESaISB_EEESt20forward_iterator_tagE15_M_get_sequenceEv, symObjAddr: 0xBCB8, symBinAddr: 0x10000FB74, symSize: 0x18 }
  - { offsetInCU: 0x4CDFA, offset: 0x4CDFA, size: 0x8, addend: 0x0, symName: __ZNK11__gnu_debug14_Safe_iteratorINSt8__detail14_Node_iteratorISt4pairIKNSt7__cxx1112basic_stringIcSt11char_traitsIcESaIcEEEiELb0ELb1EEENSt7__debug13unordered_mapIS9_iSt4hashIS9_ESt8equal_toIS9_ESaISB_EEESt20forward_iterator_tagE18_M_is_before_beginEv, symObjAddr: 0xBCD0, symBinAddr: 0x10000FB8C, symSize: 0x20 }
  - { offsetInCU: 0x4D019, offset: 0x4D019, size: 0x8, addend: 0x0, symName: __ZSt11__addressofIKN11__gnu_debug14_Safe_iteratorINSt8__detail14_Node_iteratorISt4pairIKNSt7__cxx1112basic_stringIcSt11char_traitsIcESaIcEEEiELb0ELb1EEENSt7__debug13unordered_mapISA_iSt4hashISA_ESt8equal_toISA_ESaISC_EEESt20forward_iterator_tagEEEPT_RSP_, symObjAddr: 0xBCA4, symBinAddr: 0x10000FB60, symSize: 0x14 }
  - { offsetInCU: 0x4D021, offset: 0x4D021, size: 0x8, addend: 0x0, symName: __ZNK11__gnu_debug14_Safe_iteratorINSt8__detail14_Node_iteratorISt4pairIKNSt7__cxx1112basic_stringIcSt11char_traitsIcESaIcEEEiELb0ELb1EEENSt7__debug13unordered_mapIS9_iSt4hashIS9_ESt8equal_toIS9_ESaISB_EEESt20forward_iterator_tagE15_M_get_sequenceEv, symObjAddr: 0xBCB8, symBinAddr: 0x10000FB74, symSize: 0x18 }
  - { offsetInCU: 0x4CF21, offset: 0x4CF21, size: 0x8, addend: 0x0, symName: __ZNSt8__detail14_Node_iteratorISt4pairIKNSt7__cxx1112basic_stringIcSt11char_traitsIcESaIcEEEiELb0ELb1EEC1EPNS_10_Hash_nodeIS9_Lb1EEE, symObjAddr: 0xBC7C, symBinAddr: 0x10000FB38, symSize: 0x28 }
  - { offsetInCU: 0x4CF29, offset: 0x4CF29, size: 0x8, addend: 0x0, symName: __ZSt11__addressofIKN11__gnu_debug14_Safe_iteratorINSt8__detail14_Node_iteratorISt4pairIKNSt7__cxx1112basic_stringIcSt11char_traitsIcESaIcEEEiELb0ELb1EEENSt7__debug13unordered_mapISA_iSt4hashISA_ESt8equal_toISA_ESaISC_EEESt20forward_iterator_tagEEEPT_RSP_, symObjAddr: 0xBCA4, symBinAddr: 0x10000FB60, symSize: 0x14 }
  - { offsetInCU: 0x4CED9, offset: 0x4CED9, size: 0x8, addend: 0x0, symName: __ZNKSt8__detail15_Hashtable_baseINSt7__cxx1112basic_stringIcSt11char_traitsIcESaIcEEESt4pairIKS6_iENS_10_Select1stESt8equal_toIS6_ESt4hashIS6_ENS_18_Mod_range_hashingENS_20_Default_ranged_hashENS_17_Hashtable_traitsILb1ELb0ELb1EEEE13_M_key_equalsERS8_RKNS_16_Hash_node_valueIS9_Lb1EEE, symObjAddr: 0xBC24, symBinAddr: 0x10000FAE0, symSize: 0x58 }
  - { offsetInCU: 0x4CEE1, offset: 0x4CEE1, size: 0x8, addend: 0x0, symName: __ZNSt8__detail14_Node_iteratorISt4pairIKNSt7__cxx1112basic_stringIcSt11char_traitsIcESaIcEEEiELb0ELb1EEC1EPNS_10_Hash_nodeIS9_Lb1EEE, symObjAddr: 0xBC7C, symBinAddr: 0x10000FB38, symSize: 0x28 }
  - { offsetInCU: 0x4CF34, offset: 0x4CF34, size: 0x8, addend: 0x0, symName: __ZNSt8__detail14_Node_iteratorISt4pairIKNSt7__cxx1112basic_stringIcSt11char_traitsIcESaIcEEEiELb0ELb1EEppEv, symObjAddr: 0xBC04, symBinAddr: 0x10000FAC0, symSize: 0x20 }
  - { offsetInCU: 0x4CF3C, offset: 0x4CF3C, size: 0x8, addend: 0x0, symName: __ZNKSt8__detail15_Hashtable_baseINSt7__cxx1112basic_stringIcSt11char_traitsIcESaIcEEESt4pairIKS6_iENS_10_Select1stESt8equal_toIS6_ESt4hashIS6_ENS_18_Mod_range_hashingENS_20_Default_ranged_hashENS_17_Hashtable_traitsILb1ELb0ELb1EEEE13_M_key_equalsERS8_RKNS_16_Hash_node_valueIS9_Lb1EEE, symObjAddr: 0xBC24, symBinAddr: 0x10000FAE0, symSize: 0x58 }
  - { offsetInCU: 0x4CF65, offset: 0x4CF65, size: 0x8, addend: 0x0, symName: __ZNSt10_HashtableINSt7__cxx1112basic_stringIcSt11char_traitsIcESaIcEEESt4pairIKS5_iESaIS8_ENSt8__detail10_Select1stESt8equal_toIS5_ESt4hashIS5_ENSA_18_Mod_range_hashingENSA_20_Default_ranged_hashENSA_20_Prime_rehash_policyENSA_17_Hashtable_traitsILb1ELb0ELb1EEEE5beginEv, symObjAddr: 0xBBD8, symBinAddr: 0x10000FA94, symSize: 0x2C }
  - { offsetInCU: 0x4CF6D, offset: 0x4CF6D, size: 0x8, addend: 0x0, symName: __ZNSt8__detail14_Node_iteratorISt4pairIKNSt7__cxx1112basic_stringIcSt11char_traitsIcESaIcEEEiELb0ELb1EEppEv, symObjAddr: 0xBC04, symBinAddr: 0x10000FAC0, symSize: 0x20 }
  - { offsetInCU: 0x4CF97, offset: 0x4CF97, size: 0x8, addend: 0x0, symName: __ZNSt10_HashtableINSt7__cxx1112basic_stringIcSt11char_traitsIcESaIcEEESt4pairIKS5_iESaIS8_ENSt8__detail10_Select1stESt8equal_toIS5_ESt4hashIS5_ENSA_18_Mod_range_hashingENSA_20_Default_ranged_hashENSA_20_Prime_rehash_policyENSA_17_Hashtable_traitsILb1ELb0ELb1EEEE22__small_size_thresholdEv, symObjAddr: 0xBBC4, symBinAddr: 0x10000FA80, symSize: 0x14 }
  - { offsetInCU: 0x4CF9F, offset: 0x4CF9F, size: 0x8, addend: 0x0, symName: __ZNSt10_HashtableINSt7__cxx1112basic_stringIcSt11char_traitsIcESaIcEEESt4pairIKS5_iESaIS8_ENSt8__detail10_Select1stESt8equal_toIS5_ESt4hashIS5_ENSA_18_Mod_range_hashingENSA_20_Default_ranged_hashENSA_20_Prime_rehash_policyENSA_17_Hashtable_traitsILb1ELb0ELb1EEEE5beginEv, symObjAddr: 0xBBD8, symBinAddr: 0x10000FA94, symSize: 0x2C }
  - { offsetInCU: 0x4CFB4, offset: 0x4CFB4, size: 0x8, addend: 0x0, symName: __ZNKSt10_HashtableINSt7__cxx1112basic_stringIcSt11char_traitsIcESaIcEEESt4pairIKS5_iESaIS8_ENSt8__detail10_Select1stESt8equal_toIS5_ESt4hashIS5_ENSA_18_Mod_range_hashingENSA_20_Default_ranged_hashENSA_20_Prime_rehash_policyENSA_17_Hashtable_traitsILb1ELb0ELb1EEEE4sizeEv, symObjAddr: 0xBBAC, symBinAddr: 0x10000FA68, symSize: 0x18 }
  - { offsetInCU: 0x4CFBC, offset: 0x4CFBC, size: 0x8, addend: 0x0, symName: __ZNSt10_HashtableINSt7__cxx1112basic_stringIcSt11char_traitsIcESaIcEEESt4pairIKS5_iESaIS8_ENSt8__detail10_Select1stESt8equal_toIS5_ESt4hashIS5_ENSA_18_Mod_range_hashingENSA_20_Default_ranged_hashENSA_20_Prime_rehash_policyENSA_17_Hashtable_traitsILb1ELb0ELb1EEEE22__small_size_thresholdEv, symObjAddr: 0xBBC4, symBinAddr: 0x10000FA80, symSize: 0x14 }
  - { offsetInCU: 0x4D0A1, offset: 0x4D0A1, size: 0x8, addend: 0x0, symName: __ZSt11__addressofIKNSt7__debug6vectorINSt7__cxx1112basic_stringIcSt11char_traitsIcESaIcEEESaIS7_EEEEPT_RSB_, symObjAddr: 0xBB98, symBinAddr: 0x10000FA54, symSize: 0x14 }
  - { offsetInCU: 0x4D0A9, offset: 0x4D0A9, size: 0x8, addend: 0x0, symName: __ZNKSt10_HashtableINSt7__cxx1112basic_stringIcSt11char_traitsIcESaIcEEESt4pairIKS5_iESaIS8_ENSt8__detail10_Select1stESt8equal_toIS5_ESt4hashIS5_ENSA_18_Mod_range_hashingENSA_20_Default_ranged_hashENSA_20_Prime_rehash_policyENSA_17_Hashtable_traitsILb1ELb0ELb1EEEE4sizeEv, symObjAddr: 0xBBAC, symBinAddr: 0x10000FA68, symSize: 0x18 }
  - { offsetInCU: 0x4D031, offset: 0x4D031, size: 0x8, addend: 0x0, symName: __ZNSt8__detail16_Hashtable_allocISaINS_10_Hash_nodeISt4pairIKNSt7__cxx1112basic_stringIcSt11char_traitsIcESaIcEEEiELb1EEEEE21_M_deallocate_bucketsEPPNS_15_Hash_node_baseEm, symObjAddr: 0xBB20, symBinAddr: 0x10000F9DC, symSize: 0x78 }
  - { offsetInCU: 0x4D039, offset: 0x4D039, size: 0x8, addend: 0x0, symName: __ZSt11__addressofIKNSt7__debug6vectorINSt7__cxx1112basic_stringIcSt11char_traitsIcESaIcEEESaIS7_EEEEPT_RSB_, symObjAddr: 0xBB98, symBinAddr: 0x10000FA54, symSize: 0x14 }
  - { offsetInCU: 0x4D175, offset: 0x4D175, size: 0x8, addend: 0x0, symName: __ZNKSt10_HashtableINSt7__cxx1112basic_stringIcSt11char_traitsIcESaIcEEESt4pairIKS5_iESaIS8_ENSt8__detail10_Select1stESt8equal_toIS5_ESt4hashIS5_ENSA_18_Mod_range_hashingENSA_20_Default_ranged_hashENSA_20_Prime_rehash_policyENSA_17_Hashtable_traitsILb1ELb0ELb1EEEE21_M_uses_single_bucketEPPNSA_15_Hash_node_baseE, symObjAddr: 0xBAE4, symBinAddr: 0x10000F9A0, symSize: 0x3C }
  - { offsetInCU: 0x4D17D, offset: 0x4D17D, size: 0x8, addend: 0x0, symName: __ZNSt8__detail16_Hashtable_allocISaINS_10_Hash_nodeISt4pairIKNSt7__cxx1112basic_stringIcSt11char_traitsIcESaIcEEEiELb1EEEEE21_M_deallocate_bucketsEPPNS_15_Hash_node_baseEm, symObjAddr: 0xBB20, symBinAddr: 0x10000F9DC, symSize: 0x78 }
  - { offsetInCU: 0x4D1BB, offset: 0x4D1BB, size: 0x8, addend: 0x0, symName: __ZNSt8__detail16_Hashtable_allocISaINS_10_Hash_nodeISt4pairIKNSt7__cxx1112basic_stringIcSt11char_traitsIcESaIcEEEiELb1EEEEE18_M_deallocate_nodeEPSB_, symObjAddr: 0xBA74, symBinAddr: 0x10000F930, symSize: 0x70 }
  - { offsetInCU: 0x4D1C3, offset: 0x4D1C3, size: 0x8, addend: 0x0, symName: __ZNKSt10_HashtableINSt7__cxx1112basic_stringIcSt11char_traitsIcESaIcEEESt4pairIKS5_iESaIS8_ENSt8__detail10_Select1stESt8equal_toIS5_ESt4hashIS5_ENSA_18_Mod_range_hashingENSA_20_Default_ranged_hashENSA_20_Prime_rehash_policyENSA_17_Hashtable_traitsILb1ELb0ELb1EEEE21_M_uses_single_bucketEPPNSA_15_Hash_node_baseE, symObjAddr: 0xBAE4, symBinAddr: 0x10000F9A0, symSize: 0x3C }
  - { offsetInCU: 0x4D26B, offset: 0x4D26B, size: 0x8, addend: 0x0, symName: __ZNKSt8__detail10_Hash_nodeISt4pairIKNSt7__cxx1112basic_stringIcSt11char_traitsIcESaIcEEEiELb1EE7_M_nextEv, symObjAddr: 0xBA5C, symBinAddr: 0x10000F918, symSize: 0x18 }
  - { offsetInCU: 0x4D273, offset: 0x4D273, size: 0x8, addend: 0x0, symName: __ZNSt8__detail16_Hashtable_allocISaINS_10_Hash_nodeISt4pairIKNSt7__cxx1112basic_stringIcSt11char_traitsIcESaIcEEEiELb1EEEEE18_M_deallocate_nodeEPSB_, symObjAddr: 0xBA74, symBinAddr: 0x10000F930, symSize: 0x70 }
  - { offsetInCU: 0x4D29C, offset: 0x4D29C, size: 0x8, addend: 0x0, symName: __ZNSt12_Destroy_auxILb1EE9__destroyIPiEEvT_S3_, symObjAddr: 0xBA44, symBinAddr: 0x10000F900, symSize: 0x18 }
  - { offsetInCU: 0x4D2A4, offset: 0x4D2A4, size: 0x8, addend: 0x0, symName: __ZNKSt8__detail10_Hash_nodeISt4pairIKNSt7__cxx1112basic_stringIcSt11char_traitsIcESaIcEEEiELb1EE7_M_nextEv, symObjAddr: 0xBA5C, symBinAddr: 0x10000F918, symSize: 0x18 }
  - { offsetInCU: 0x4D324, offset: 0x4D324, size: 0x8, addend: 0x0, symName: __ZNK11__gnu_debug12_Safe_vectorINSt7__debug6vectorIiSaIiEEENSt9__cxx19986vectorIiS3_EEE6_M_seqEv, symObjAddr: 0xBA2C, symBinAddr: 0x10000F8E8, symSize: 0x18 }
  - { offsetInCU: 0x4D32C, offset: 0x4D32C, size: 0x8, addend: 0x0, symName: __ZNSt12_Destroy_auxILb1EE9__destroyIPiEEvT_S3_, symObjAddr: 0xBA44, symBinAddr: 0x10000F900, symSize: 0x18 }
  - { offsetInCU: 0x4D3C0, offset: 0x4D3C0, size: 0x8, addend: 0x0, symName: __ZSt22__uninitialized_copy_aIPKiPiiET0_T_S4_S3_RSaIT1_E, symObjAddr: 0xB9FC, symBinAddr: 0x10000F8B8, symSize: 0x30 }
  - { offsetInCU: 0x4D3C8, offset: 0x4D3C8, size: 0x8, addend: 0x0, symName: __ZNK11__gnu_debug12_Safe_vectorINSt7__debug6vectorIiSaIiEEENSt9__cxx19986vectorIiS3_EEE6_M_seqEv, symObjAddr: 0xBA2C, symBinAddr: 0x10000F8E8, symSize: 0x18 }
  - { offsetInCU: 0x4D3F4, offset: 0x4D3F4, size: 0x8, addend: 0x0, symName: __ZNSt9__cxx199812_Vector_baseIiSaIiEE11_M_allocateEm, symObjAddr: 0xB9AC, symBinAddr: 0x10000F868, symSize: 0x50 }
  - { offsetInCU: 0x4D3FC, offset: 0x4D3FC, size: 0x8, addend: 0x0, symName: __ZSt22__uninitialized_copy_aIPKiPiiET0_T_S4_S3_RSaIT1_E, symObjAddr: 0xB9FC, symBinAddr: 0x10000F8B8, symSize: 0x30 }
  - { offsetInCU: 0x4D46F, offset: 0x4D46F, size: 0x8, addend: 0x0, symName: __ZNSt9__cxx19986vectorIiSaIiEE17_S_check_init_lenEmRKS1_, symObjAddr: 0xB928, symBinAddr: 0x10000F7E4, symSize: 0x84 }
  - { offsetInCU: 0x4D477, offset: 0x4D477, size: 0x8, addend: 0x0, symName: __ZNSt9__cxx199812_Vector_baseIiSaIiEE11_M_allocateEm, symObjAddr: 0xB9AC, symBinAddr: 0x10000F868, symSize: 0x50 }
  - { offsetInCU: 0x4D5C2, offset: 0x4D5C2, size: 0x8, addend: 0x0, symName: __ZNKSt16initializer_listIiE4sizeEv, symObjAddr: 0xB910, symBinAddr: 0x10000F7CC, symSize: 0x18 }
  - { offsetInCU: 0x4D5CA, offset: 0x4D5CA, size: 0x8, addend: 0x0, symName: __ZNSt9__cxx19986vectorIiSaIiEE17_S_check_init_lenEmRKS1_, symObjAddr: 0xB928, symBinAddr: 0x10000F7E4, symSize: 0x84 }
  - { offsetInCU: 0x4D65B, offset: 0x4D65B, size: 0x8, addend: 0x0, symName: __ZNSt9__cxx199812_Vector_baseIiSaIiEE12_Vector_implC1ERKS1_, symObjAddr: 0xB8C4, symBinAddr: 0x10000F780, symSize: 0x4C }
  - { offsetInCU: 0x4D663, offset: 0x4D663, size: 0x8, addend: 0x0, symName: __ZNKSt16initializer_listIiE4sizeEv, symObjAddr: 0xB910, symBinAddr: 0x10000F7CC, symSize: 0x18 }
  - { offsetInCU: 0x4D6C6, offset: 0x4D6C6, size: 0x8, addend: 0x0, symName: __ZNSt12_Destroy_auxILb0EE9__destroyIPNSt7__cxx1112basic_stringIcSt11char_traitsIcESaIcEEEEEvT_S9_, symObjAddr: 0xB878, symBinAddr: 0x10000F734, symSize: 0x4C }
  - { offsetInCU: 0x4D6CE, offset: 0x4D6CE, size: 0x8, addend: 0x0, symName: __ZNSt9__cxx199812_Vector_baseIiSaIiEE12_Vector_implC1ERKS1_, symObjAddr: 0xB8C4, symBinAddr: 0x10000F780, symSize: 0x4C }
  - { offsetInCU: 0x4D7FF, offset: 0x4D7FF, size: 0x8, addend: 0x0, symName: __ZSt22__uninitialized_copy_aIPKPKcPNSt7__cxx1112basic_stringIcSt11char_traitsIcESaIcEEES9_ET0_T_SC_SB_RSaIT1_E, symObjAddr: 0xB848, symBinAddr: 0x10000F704, symSize: 0x30 }
  - { offsetInCU: 0x4D807, offset: 0x4D807, size: 0x8, addend: 0x0, symName: __ZNSt12_Destroy_auxILb0EE9__destroyIPNSt7__cxx1112basic_stringIcSt11char_traitsIcESaIcEEEEEvT_S9_, symObjAddr: 0xB878, symBinAddr: 0x10000F734, symSize: 0x4C }
  - { offsetInCU: 0x4D7B9, offset: 0x4D7B9, size: 0x8, addend: 0x0, symName: __ZNSt9__cxx199812_Vector_baseINSt7__cxx1112basic_stringIcSt11char_traitsIcESaIcEEESaIS6_EE11_M_allocateEm, symObjAddr: 0xB7F8, symBinAddr: 0x10000F6B4, symSize: 0x50 }
  - { offsetInCU: 0x4D7C1, offset: 0x4D7C1, size: 0x8, addend: 0x0, symName: __ZSt22__uninitialized_copy_aIPKPKcPNSt7__cxx1112basic_stringIcSt11char_traitsIcESaIcEEES9_ET0_T_SC_SB_RSaIT1_E, symObjAddr: 0xB848, symBinAddr: 0x10000F704, symSize: 0x30 }
  - { offsetInCU: 0x4D834, offset: 0x4D834, size: 0x8, addend: 0x0, symName: __ZNSt9__cxx19986vectorINSt7__cxx1112basic_stringIcSt11char_traitsIcESaIcEEESaIS6_EE17_S_check_init_lenEmRKS7_, symObjAddr: 0xB774, symBinAddr: 0x10000F630, symSize: 0x84 }
  - { offsetInCU: 0x4D83C, offset: 0x4D83C, size: 0x8, addend: 0x0, symName: __ZNSt9__cxx199812_Vector_baseINSt7__cxx1112basic_stringIcSt11char_traitsIcESaIcEEESaIS6_EE11_M_allocateEm, symObjAddr: 0xB7F8, symBinAddr: 0x10000F6B4, symSize: 0x50 }
  - { offsetInCU: 0x4D9F6, offset: 0x4D9F6, size: 0x8, addend: 0x0, symName: __ZNSt9__cxx199812_Vector_baseINSt7__cxx1112basic_stringIcSt11char_traitsIcESaIcEEESaIS6_EE12_Vector_implC1ERKS7_, symObjAddr: 0xB728, symBinAddr: 0x10000F5E4, symSize: 0x4C }
  - { offsetInCU: 0x4D9FE, offset: 0x4D9FE, size: 0x8, addend: 0x0, symName: __ZNSt9__cxx19986vectorINSt7__cxx1112basic_stringIcSt11char_traitsIcESaIcEEESaIS6_EE17_S_check_init_lenEmRKS7_, symObjAddr: 0xB774, symBinAddr: 0x10000F630, symSize: 0x84 }
  - { offsetInCU: 0x4DAD4, offset: 0x4DAD4, size: 0x8, addend: 0x0, symName: __ZN11__gnu_debug16_Error_formatter10_ParameterC1IPKcEERKPKT_S4_NS0_12_Is_iteratorE, symObjAddr: 0xB678, symBinAddr: 0x10000F534, symSize: 0xB0 }
  - { offsetInCU: 0x4DADC, offset: 0x4DADC, size: 0x8, addend: 0x0, symName: __ZNSt9__cxx199812_Vector_baseINSt7__cxx1112basic_stringIcSt11char_traitsIcESaIcEEESaIS6_EE12_Vector_implC1ERKS7_, symObjAddr: 0xB728, symBinAddr: 0x10000F5E4, symSize: 0x4C }
  - { offsetInCU: 0x4DB30, offset: 0x4DB30, size: 0x8, addend: 0x0, symName: __ZN11__gnu_debug17__valid_range_auxIPKPKcEEbT_S5_St12__false_type, symObjAddr: 0xB644, symBinAddr: 0x10000F500, symSize: 0x34 }
  - { offsetInCU: 0x4DB38, offset: 0x4DB38, size: 0x8, addend: 0x0, symName: __ZN11__gnu_debug16_Error_formatter10_ParameterC1IPKcEERKPKT_S4_NS0_12_Is_iteratorE, symObjAddr: 0xB678, symBinAddr: 0x10000F534, symSize: 0xB0 }
  - { offsetInCU: 0x4DC00, offset: 0x4DC00, size: 0x8, addend: 0x0, symName: __ZSt11__addressofIKNSt7__cxx1112basic_stringIcSt11char_traitsIcESaIcEEEEPT_RS7_, symObjAddr: 0xB630, symBinAddr: 0x10000F4EC, symSize: 0x14 }
  - { offsetInCU: 0x4DC08, offset: 0x4DC08, size: 0x8, addend: 0x0, symName: __ZN11__gnu_debug17__valid_range_auxIPKPKcEEbT_S5_St12__false_type, symObjAddr: 0xB644, symBinAddr: 0x10000F500, symSize: 0x34 }
  - { offsetInCU: 0x4DBF3, offset: 0x4DBF3, size: 0x8, addend: 0x0, symName: __ZNSt15__new_allocatorIcE10deallocateEPcm, symObjAddr: 0xB608, symBinAddr: 0x10000F4C4, symSize: 0x28 }
  - { offsetInCU: 0x4DBFB, offset: 0x4DBFB, size: 0x8, addend: 0x0, symName: __ZSt11__addressofIKNSt7__cxx1112basic_stringIcSt11char_traitsIcESaIcEEEEPT_RS7_, symObjAddr: 0xB630, symBinAddr: 0x10000F4EC, symSize: 0x14 }
  - { offsetInCU: 0x4DCA1, offset: 0x4DCA1, size: 0x8, addend: 0x0, symName: __ZNSt7__cxx1112basic_stringIcSt11char_traitsIcESaIcEE9_M_appendEPKcm, symObjAddr: 0xB540, symBinAddr: 0x10000F3FC, symSize: 0xC8 }
  - { offsetInCU: 0x4DCA9, offset: 0x4DCA9, size: 0x8, addend: 0x0, symName: __ZNSt15__new_allocatorIcE10deallocateEPcm, symObjAddr: 0xB608, symBinAddr: 0x10000F4C4, symSize: 0x28 }
  - { offsetInCU: 0x4DD10, offset: 0x4DD10, size: 0x8, addend: 0x0, symName: __ZNKSt7__cxx1112basic_stringIcSt11char_traitsIcESaIcEE15_M_check_lengthEmmPKc, symObjAddr: 0xB4CC, symBinAddr: 0x10000F388, symSize: 0x74 }
  - { offsetInCU: 0x4DD18, offset: 0x4DD18, size: 0x8, addend: 0x0, symName: __ZNSt7__cxx1112basic_stringIcSt11char_traitsIcESaIcEE9_M_appendEPKcm, symObjAddr: 0xB540, symBinAddr: 0x10000F3FC, symSize: 0xC8 }
  - { offsetInCU: 0x4DDFE, offset: 0x4DDFE, size: 0x8, addend: 0x0, symName: __ZNSt19__ptr_traits_ptr_toIPKcS0_Lb0EE10pointer_toERS0_, symObjAddr: 0xB4B0, symBinAddr: 0x10000F36C, symSize: 0x1C }
  - { offsetInCU: 0x4DE06, offset: 0x4DE06, size: 0x8, addend: 0x0, symName: __ZNKSt7__cxx1112basic_stringIcSt11char_traitsIcESaIcEE15_M_check_lengthEmmPKc, symObjAddr: 0xB4CC, symBinAddr: 0x10000F388, symSize: 0x74 }
  - { offsetInCU: 0x4DE31, offset: 0x4DE31, size: 0x8, addend: 0x0, symName: __ZNKSt7__cxx1112basic_stringIcSt11char_traitsIcESaIcEE8max_sizeEv, symObjAddr: 0xB46C, symBinAddr: 0x10000F328, symSize: 0x44 }
  - { offsetInCU: 0x4DE39, offset: 0x4DE39, size: 0x8, addend: 0x0, symName: __ZNSt19__ptr_traits_ptr_toIPKcS0_Lb0EE10pointer_toERS0_, symObjAddr: 0xB4B0, symBinAddr: 0x10000F36C, symSize: 0x1C }
  - { offsetInCU: 0x4DF2B, offset: 0x4DF2B, size: 0x8, addend: 0x0, symName: __ZSt9addressofIcEPT_RS0_, symObjAddr: 0xB450, symBinAddr: 0x10000F30C, symSize: 0x1C }
  - { offsetInCU: 0x4DF33, offset: 0x4DF33, size: 0x8, addend: 0x0, symName: __ZNKSt7__cxx1112basic_stringIcSt11char_traitsIcESaIcEE8max_sizeEv, symObjAddr: 0xB46C, symBinAddr: 0x10000F328, symSize: 0x44 }
  - { offsetInCU: 0x4E15B, offset: 0x4E15B, size: 0x8, addend: 0x0, symName: __ZNSt10_HashtableIiSt4pairIKiNSt7__debug6vectorINSt7__cxx1112basic_stringIcSt11char_traitsIcESaIcEEESaIS9_EEEESaISC_ENSt8__detail10_Select1stESt8equal_toIiESt4hashIiENSE_18_Mod_range_hashingENSE_20_Default_ranged_hashENSE_20_Prime_rehash_policyENSE_17_Hashtable_traitsILb0ELb0ELb1EEEE12_Scoped_nodeC1IJRKSt21piecewise_construct_tSt5tupleIJRS1_EESV_IJEEEEEPNSE_16_Hashtable_allocISaINSE_10_Hash_nodeISC_Lb0EEEEEEDpOT_, symObjAddr: 0xB3C8, symBinAddr: 0x10000F284, symSize: 0x88 }
  - { offsetInCU: 0x4E163, offset: 0x4E163, size: 0x8, addend: 0x0, symName: __ZSt9addressofIcEPT_RS0_, symObjAddr: 0xB450, symBinAddr: 0x10000F30C, symSize: 0x1C }
  - { offsetInCU: 0x4E0A5, offset: 0x4E0A5, size: 0x8, addend: 0x0, symName: __ZNSt5tupleIJRKiEEC1ILb1ELb1EEES1_, symObjAddr: 0xB3A0, symBinAddr: 0x10000F25C, symSize: 0x28 }
  - { offsetInCU: 0x4E0AD, offset: 0x4E0AD, size: 0x8, addend: 0x0, symName: __ZNSt10_HashtableIiSt4pairIKiNSt7__debug6vectorINSt7__cxx1112basic_stringIcSt11char_traitsIcESaIcEEESaIS9_EEEESaISC_ENSt8__detail10_Select1stESt8equal_toIiESt4hashIiENSE_18_Mod_range_hashingENSE_20_Default_ranged_hashENSE_20_Prime_rehash_policyENSE_17_Hashtable_traitsILb0ELb0ELb1EEEE12_Scoped_nodeC1IJRKSt21piecewise_construct_tSt5tupleIJRS1_EESV_IJEEEEEPNSE_16_Hashtable_allocISaINSE_10_Hash_nodeISC_Lb0EEEEEEDpOT_, symObjAddr: 0xB3C8, symBinAddr: 0x10000F284, symSize: 0x88 }
  - { offsetInCU: 0x4E0D3, offset: 0x4E0D3, size: 0x8, addend: 0x0, symName: __ZNSt7__cxx1112basic_stringIcSt11char_traitsIcESaIcEE9_M_mutateEmmPKcm, symObjAddr: 0xB248, symBinAddr: 0x10000F104, symSize: 0x158 }
  - { offsetInCU: 0x4E0DB, offset: 0x4E0DB, size: 0x8, addend: 0x0, symName: __ZNSt5tupleIJRKiEEC1ILb1ELb1EEES1_, symObjAddr: 0xB3A0, symBinAddr: 0x10000F25C, symSize: 0x28 }
  - { offsetInCU: 0x4E197, offset: 0x4E197, size: 0x8, addend: 0x0, symName: __ZNSt9__cxx19986vectorINSt7__cxx1112basic_stringIcSt11char_traitsIcESaIcEEESaIS6_EE17_M_realloc_insertIJRKS6_EEEvN9__gnu_cxx17__normal_iteratorIPS6_S8_EEDpOT_, symObjAddr: 0xAFB8, symBinAddr: 0x10000EE74, symSize: 0x290 }
  - { offsetInCU: 0x4E19F, offset: 0x4E19F, size: 0x8, addend: 0x0, symName: __ZNSt7__cxx1112basic_stringIcSt11char_traitsIcESaIcEE9_M_mutateEmmPKcm, symObjAddr: 0xB248, symBinAddr: 0x10000F104, symSize: 0x158 }
  - { offsetInCU: 0x4E418, offset: 0x4E418, size: 0x8, addend: 0x0, symName: __ZNKSt7__debug6vectorINSt7__cxx1112basic_stringIcSt11char_traitsIcESaIcEEESaIS6_EE8capacityEv, symObjAddr: 0xAF98, symBinAddr: 0x10000EE54, symSize: 0x20 }
  - { offsetInCU: 0x4E420, offset: 0x4E420, size: 0x8, addend: 0x0, symName: __ZNSt9__cxx19986vectorINSt7__cxx1112basic_stringIcSt11char_traitsIcESaIcEEESaIS6_EE17_M_realloc_insertIJRKS6_EEEvN9__gnu_cxx17__normal_iteratorIPS6_S8_EEDpOT_, symObjAddr: 0xAFB8, symBinAddr: 0x10000EE74, symSize: 0x290 }
  - { offsetInCU: 0x4E48B, offset: 0x4E48B, size: 0x8, addend: 0x0, symName: __ZNSt9__cxx199812_Vector_baseINSt7__cxx1112basic_stringIcSt11char_traitsIcESaIcEEESaIS6_EE17_Vector_impl_data12_M_swap_dataERS9_, symObjAddr: 0xAF4C, symBinAddr: 0x10000EE08, symSize: 0x4C }
  - { offsetInCU: 0x4E493, offset: 0x4E493, size: 0x8, addend: 0x0, symName: __ZNKSt7__debug6vectorINSt7__cxx1112basic_stringIcSt11char_traitsIcESaIcEEESaIS6_EE8capacityEv, symObjAddr: 0xAF98, symBinAddr: 0x10000EE54, symSize: 0x20 }
  - { offsetInCU: 0x4E56C, offset: 0x4E56C, size: 0x8, addend: 0x0, symName: __ZNSt9__cxx19986vectorINSt7__cxx1112basic_stringIcSt11char_traitsIcESaIcEEESaIS6_EEC1ERKS7_, symObjAddr: 0xAF24, symBinAddr: 0x10000EDE0, symSize: 0x28 }
  - { offsetInCU: 0x4E574, offset: 0x4E574, size: 0x8, addend: 0x0, symName: __ZNSt9__cxx199812_Vector_baseINSt7__cxx1112basic_stringIcSt11char_traitsIcESaIcEEESaIS6_EE17_Vector_impl_data12_M_swap_dataERS9_, symObjAddr: 0xAF4C, symBinAddr: 0x10000EE08, symSize: 0x4C }
  - { offsetInCU: 0x4E579, offset: 0x4E579, size: 0x8, addend: 0x0, symName: __ZNKSt9__cxx199812_Vector_baseINSt7__cxx1112basic_stringIcSt11char_traitsIcESaIcEEESaIS6_EE19_M_get_Tp_allocatorEv, symObjAddr: 0xAF10, symBinAddr: 0x10000EDCC, symSize: 0x14 }
  - { offsetInCU: 0x4E581, offset: 0x4E581, size: 0x8, addend: 0x0, symName: __ZNSt9__cxx19986vectorINSt7__cxx1112basic_stringIcSt11char_traitsIcESaIcEEESaIS6_EEC1ERKS7_, symObjAddr: 0xAF24, symBinAddr: 0x10000EDE0, symSize: 0x28 }
  - { offsetInCU: 0x4E5AA, offset: 0x4E5AA, size: 0x8, addend: 0x0, symName: __ZNK11__gnu_debug12_Safe_vectorINSt7__debug6vectorINSt7__cxx1112basic_stringIcSt11char_traitsIcESaIcEEESaIS8_EEENSt9__cxx19986vectorIS8_S9_EEE6_M_seqEv, symObjAddr: 0xAEF8, symBinAddr: 0x10000EDB4, symSize: 0x18 }
  - { offsetInCU: 0x4E5B2, offset: 0x4E5B2, size: 0x8, addend: 0x0, symName: __ZNKSt9__cxx199812_Vector_baseINSt7__cxx1112basic_stringIcSt11char_traitsIcESaIcEEESaIS6_EE19_M_get_Tp_allocatorEv, symObjAddr: 0xAF10, symBinAddr: 0x10000EDCC, symSize: 0x14 }
  - { offsetInCU: 0x4E61D, offset: 0x4E61D, size: 0x8, addend: 0x0, symName: __ZNKSt8__detail14_Node_iteratorISt4pairIKiNSt7__debug6vectorINSt7__cxx1112basic_stringIcSt11char_traitsIcESaIcEEESaISA_EEEELb0ELb0EEptEv, symObjAddr: 0xAED4, symBinAddr: 0x10000ED90, symSize: 0x24 }
  - { offsetInCU: 0x4E625, offset: 0x4E625, size: 0x8, addend: 0x0, symName: __ZNK11__gnu_debug12_Safe_vectorINSt7__debug6vectorINSt7__cxx1112basic_stringIcSt11char_traitsIcESaIcEEESaIS8_EEENSt9__cxx19986vectorIS8_S9_EEE6_M_seqEv, symObjAddr: 0xAEF8, symBinAddr: 0x10000EDB4, symSize: 0x18 }
  - { offsetInCU: 0x4E64E, offset: 0x4E64E, size: 0x8, addend: 0x0, symName: __ZNSt10_HashtableIiSt4pairIKiNSt7__debug6vectorINSt7__cxx1112basic_stringIcSt11char_traitsIcESaIcEEESaIS9_EEEESaISC_ENSt8__detail10_Select1stESt8equal_toIiESt4hashIiENSE_18_Mod_range_hashingENSE_20_Default_ranged_hashENSE_20_Prime_rehash_policyENSE_17_Hashtable_traitsILb0ELb0ELb1EEEE21_M_insert_unique_nodeEmmPNSE_10_Hash_nodeISC_Lb0EEEm, symObjAddr: 0xADEC, symBinAddr: 0x10000ECA8, symSize: 0xE8 }
  - { offsetInCU: 0x4E656, offset: 0x4E656, size: 0x8, addend: 0x0, symName: __ZNKSt8__detail14_Node_iteratorISt4pairIKiNSt7__debug6vectorINSt7__cxx1112basic_stringIcSt11char_traitsIcESaIcEEESaISA_EEEELb0ELb0EEptEv, symObjAddr: 0xAED4, symBinAddr: 0x10000ED90, symSize: 0x24 }
  - { offsetInCU: 0x4E859, offset: 0x4E859, size: 0x8, addend: 0x0, symName: __ZNSt10_HashtableIiSt4pairIKiNSt7__debug6vectorINSt7__cxx1112basic_stringIcSt11char_traitsIcESaIcEEESaIS9_EEEESaISC_ENSt8__detail10_Select1stESt8equal_toIiESt4hashIiENSE_18_Mod_range_hashingENSE_20_Default_ranged_hashENSE_20_Prime_rehash_policyENSE_17_Hashtable_traitsILb0ELb0ELb1EEEE12_Scoped_nodeD1Ev, symObjAddr: 0xADA8, symBinAddr: 0x10000EC64, symSize: 0x44 }
  - { offsetInCU: 0x4E861, offset: 0x4E861, size: 0x8, addend: 0x0, symName: __ZNSt10_HashtableIiSt4pairIKiNSt7__debug6vectorINSt7__cxx1112basic_stringIcSt11char_traitsIcESaIcEEESaIS9_EEEESaISC_ENSt8__detail10_Select1stESt8equal_toIiESt4hashIiENSE_18_Mod_range_hashingENSE_20_Default_ranged_hashENSE_20_Prime_rehash_policyENSE_17_Hashtable_traitsILb0ELb0ELb1EEEE21_M_insert_unique_nodeEmmPNSE_10_Hash_nodeISC_Lb0EEEm, symObjAddr: 0xADEC, symBinAddr: 0x10000ECA8, symSize: 0xE8 }
  - { offsetInCU: 0x4E969, offset: 0x4E969, size: 0x8, addend: 0x0, symName: __ZNSt10_HashtableIiSt4pairIKiNSt7__debug6vectorINSt7__cxx1112basic_stringIcSt11char_traitsIcESaIcEEESaIS9_EEEESaISC_ENSt8__detail10_Select1stESt8equal_toIiESt4hashIiENSE_18_Mod_range_hashingENSE_20_Default_ranged_hashENSE_20_Prime_rehash_policyENSE_17_Hashtable_traitsILb0ELb0ELb1EEEE12_Scoped_nodeC1IJRKSt21piecewise_construct_tSt5tupleIJOiEESV_IJEEEEEPNSE_16_Hashtable_allocISaINSE_10_Hash_nodeISC_Lb0EEEEEEDpOT_, symObjAddr: 0xAD20, symBinAddr: 0x10000EBDC, symSize: 0x88 }
  - { offsetInCU: 0x4E971, offset: 0x4E971, size: 0x8, addend: 0x0, symName: __ZNSt10_HashtableIiSt4pairIKiNSt7__debug6vectorINSt7__cxx1112basic_stringIcSt11char_traitsIcESaIcEEESaIS9_EEEESaISC_ENSt8__detail10_Select1stESt8equal_toIiESt4hashIiENSE_18_Mod_range_hashingENSE_20_Default_ranged_hashENSE_20_Prime_rehash_policyENSE_17_Hashtable_traitsILb0ELb0ELb1EEEE12_Scoped_nodeD1Ev, symObjAddr: 0xADA8, symBinAddr: 0x10000EC64, symSize: 0x44 }
  - { offsetInCU: 0x4E856, offset: 0x4E856, size: 0x8, addend: 0x0, symName: __ZNSt8__detail21_Hash_node_value_baseISt4pairIKiNSt7__debug6vectorINSt7__cxx1112basic_stringIcSt11char_traitsIcESaIcEEESaISA_EEEEE4_M_vEv, symObjAddr: 0xAD04, symBinAddr: 0x10000EBC0, symSize: 0x1C }
  - { offsetInCU: 0x4E85E, offset: 0x4E85E, size: 0x8, addend: 0x0, symName: __ZNSt10_HashtableIiSt4pairIKiNSt7__debug6vectorINSt7__cxx1112basic_stringIcSt11char_traitsIcESaIcEEESaIS9_EEEESaISC_ENSt8__detail10_Select1stESt8equal_toIiESt4hashIiENSE_18_Mod_range_hashingENSE_20_Default_ranged_hashENSE_20_Prime_rehash_policyENSE_17_Hashtable_traitsILb0ELb0ELb1EEEE12_Scoped_nodeC1IJRKSt21piecewise_construct_tSt5tupleIJOiEESV_IJEEEEEPNSE_16_Hashtable_allocISaINSE_10_Hash_nodeISC_Lb0EEEEEEDpOT_, symObjAddr: 0xAD20, symBinAddr: 0x10000EBDC, symSize: 0x88 }
  - { offsetInCU: 0x4E887, offset: 0x4E887, size: 0x8, addend: 0x0, symName: __ZNKSt10_HashtableIiSt4pairIKiNSt7__debug6vectorINSt7__cxx1112basic_stringIcSt11char_traitsIcESaIcEEESaIS9_EEEESaISC_ENSt8__detail10_Select1stESt8equal_toIiESt4hashIiENSE_18_Mod_range_hashingENSE_20_Default_ranged_hashENSE_20_Prime_rehash_policyENSE_17_Hashtable_traitsILb0ELb0ELb1EEEE12_M_find_nodeEmRS1_m, symObjAddr: 0xACB0, symBinAddr: 0x10000EB6C, symSize: 0x54 }
  - { offsetInCU: 0x4E88F, offset: 0x4E88F, size: 0x8, addend: 0x0, symName: __ZNSt8__detail21_Hash_node_value_baseISt4pairIKiNSt7__debug6vectorINSt7__cxx1112basic_stringIcSt11char_traitsIcESaIcEEESaISA_EEEEE4_M_vEv, symObjAddr: 0xAD04, symBinAddr: 0x10000EBC0, symSize: 0x1C }
  - { offsetInCU: 0x4E90C, offset: 0x4E90C, size: 0x8, addend: 0x0, symName: __ZNKSt10_HashtableIiSt4pairIKiNSt7__debug6vectorINSt7__cxx1112basic_stringIcSt11char_traitsIcESaIcEEESaIS9_EEEESaISC_ENSt8__detail10_Select1stESt8equal_toIiESt4hashIiENSE_18_Mod_range_hashingENSE_20_Default_ranged_hashENSE_20_Prime_rehash_policyENSE_17_Hashtable_traitsILb0ELb0ELb1EEEE15_M_bucket_indexEm, symObjAddr: 0xAC80, symBinAddr: 0x10000EB3C, symSize: 0x30 }
  - { offsetInCU: 0x4E914, offset: 0x4E914, size: 0x8, addend: 0x0, symName: __ZNKSt10_HashtableIiSt4pairIKiNSt7__debug6vectorINSt7__cxx1112basic_stringIcSt11char_traitsIcESaIcEEESaIS9_EEEESaISC_ENSt8__detail10_Select1stESt8equal_toIiESt4hashIiENSE_18_Mod_range_hashingENSE_20_Default_ranged_hashENSE_20_Prime_rehash_policyENSE_17_Hashtable_traitsILb0ELb0ELb1EEEE12_M_find_nodeEmRS1_m, symObjAddr: 0xACB0, symBinAddr: 0x10000EB6C, symSize: 0x54 }
  - { offsetInCU: 0x4E952, offset: 0x4E952, size: 0x8, addend: 0x0, symName: __ZNKSt8__detail15_Hash_code_baseIiSt4pairIKiNSt7__debug6vectorINSt7__cxx1112basic_stringIcSt11char_traitsIcESaIcEEESaISA_EEEENS_10_Select1stESt4hashIiENS_18_Mod_range_hashingENS_20_Default_ranged_hashELb0EE12_M_hash_codeERS2_, symObjAddr: 0xAC48, symBinAddr: 0x10000EB04, symSize: 0x38 }
  - { offsetInCU: 0x4E95A, offset: 0x4E95A, size: 0x8, addend: 0x0, symName: __ZNKSt10_HashtableIiSt4pairIKiNSt7__debug6vectorINSt7__cxx1112basic_stringIcSt11char_traitsIcESaIcEEESaIS9_EEEESaISC_ENSt8__detail10_Select1stESt8equal_toIiESt4hashIiENSE_18_Mod_range_hashingENSE_20_Default_ranged_hashENSE_20_Prime_rehash_policyENSE_17_Hashtable_traitsILb0ELb0ELb1EEEE15_M_bucket_indexEm, symObjAddr: 0xAC80, symBinAddr: 0x10000EB3C, symSize: 0x30 }
  - { offsetInCU: 0x4EB44, offset: 0x4EB44, size: 0x8, addend: 0x0, symName: __ZN11__gnu_debug16_Error_formatter10_ParameterC1INSt8__detail14_Node_iteratorISt4pairIKiNSt7__debug6vectorINSt7__cxx1112basic_stringIcSt11char_traitsIcESaIcEEESaISE_EEEELb0ELb0EEENS7_13unordered_mapIiSG_St4hashIiESt8equal_toIiESaISH_EEESt20forward_iterator_tagEERKNS_14_Safe_iteratorIT_T0_T1_EEPKcNS0_12_Is_iteratorE, symObjAddr: 0xAACC, symBinAddr: 0x10000E988, symSize: 0x17C }
  - { offsetInCU: 0x4EB4C, offset: 0x4EB4C, size: 0x8, addend: 0x0, symName: __ZNKSt8__detail15_Hash_code_baseIiSt4pairIKiNSt7__debug6vectorINSt7__cxx1112basic_stringIcSt11char_traitsIcESaIcEEESaISA_EEEENS_10_Select1stESt4hashIiENS_18_Mod_range_hashingENS_20_Default_ranged_hashELb0EE12_M_hash_codeERS2_, symObjAddr: 0xAC48, symBinAddr: 0x10000EB04, symSize: 0x38 }
  - { offsetInCU: 0x4EB29, offset: 0x4EB29, size: 0x8, addend: 0x0, symName: __ZNSt8__detail19_Node_iterator_baseISt4pairIKiNSt7__debug6vectorINSt7__cxx1112basic_stringIcSt11char_traitsIcESaIcEEESaISA_EEEELb0EEC2Ev, symObjAddr: 0xAAB0, symBinAddr: 0x10000E96C, symSize: 0x1C }
  - { offsetInCU: 0x4EB31, offset: 0x4EB31, size: 0x8, addend: 0x0, symName: __ZN11__gnu_debug16_Error_formatter10_ParameterC1INSt8__detail14_Node_iteratorISt4pairIKiNSt7__debug6vectorINSt7__cxx1112basic_stringIcSt11char_traitsIcESaIcEEESaISE_EEEELb0ELb0EEENS7_13unordered_mapIiSG_St4hashIiESt8equal_toIiESaISH_EEESt20forward_iterator_tagEERKNS_14_Safe_iteratorIT_T0_T1_EEPKcNS0_12_Is_iteratorE, symObjAddr: 0xAACC, symBinAddr: 0x10000E988, symSize: 0x17C }
  - { offsetInCU: 0x4EAD0, offset: 0x4EAD0, size: 0x8, addend: 0x0, symName: __ZNSt10_HashtableIiSt4pairIKiNSt7__debug6vectorINSt7__cxx1112basic_stringIcSt11char_traitsIcESaIcEEESaIS9_EEEESaISC_ENSt8__detail10_Select1stESt8equal_toIiESt4hashIiENSE_18_Mod_range_hashingENSE_20_Default_ranged_hashENSE_20_Prime_rehash_policyENSE_17_Hashtable_traitsILb0ELb0ELb1EEEE3endEv, symObjAddr: 0xAA8C, symBinAddr: 0x10000E948, symSize: 0x24 }
  - { offsetInCU: 0x4EAD8, offset: 0x4EAD8, size: 0x8, addend: 0x0, symName: __ZNSt8__detail19_Node_iterator_baseISt4pairIKiNSt7__debug6vectorINSt7__cxx1112basic_stringIcSt11char_traitsIcESaIcEEESaISA_EEEELb0EEC2Ev, symObjAddr: 0xAAB0, symBinAddr: 0x10000E96C, symSize: 0x1C }
  - { offsetInCU: 0x4EB02, offset: 0x4EB02, size: 0x8, addend: 0x0, symName: __ZN11__gnu_debug14_Safe_iteratorINSt8__detail14_Node_iteratorISt4pairIKiNSt7__debug6vectorINSt7__cxx1112basic_stringIcSt11char_traitsIcESaIcEEESaISC_EEEELb0ELb0EEENS5_13unordered_mapIiSE_St4hashIiESt8equal_toIiESaISF_EEESt20forward_iterator_tagE11_S_constantEv, symObjAddr: 0xAA84, symBinAddr: 0x10000E940, symSize: 0x8 }
  - { offsetInCU: 0x4EB0A, offset: 0x4EB0A, size: 0x8, addend: 0x0, symName: __ZNSt10_HashtableIiSt4pairIKiNSt7__debug6vectorINSt7__cxx1112basic_stringIcSt11char_traitsIcESaIcEEESaIS9_EEEESaISC_ENSt8__detail10_Select1stESt8equal_toIiESt4hashIiENSE_18_Mod_range_hashingENSE_20_Default_ranged_hashENSE_20_Prime_rehash_policyENSE_17_Hashtable_traitsILb0ELb0ELb1EEEE3endEv, symObjAddr: 0xAA8C, symBinAddr: 0x10000E948, symSize: 0x24 }
  - { offsetInCU: 0x4EB1E, offset: 0x4EB1E, size: 0x8, addend: 0x0, symName: __ZNSt10_HashtableIiSt4pairIKiNSt7__debug6vectorINSt7__cxx1112basic_stringIcSt11char_traitsIcESaIcEEESaIS9_EEEESaISC_ENSt8__detail10_Select1stESt8equal_toIiESt4hashIiENSE_18_Mod_range_hashingENSE_20_Default_ranged_hashENSE_20_Prime_rehash_policyENSE_17_Hashtable_traitsILb0ELb0ELb1EEEE4findERS1_, symObjAddr: 0xA97C, symBinAddr: 0x10000E838, symSize: 0x108 }
  - { offsetInCU: 0x4EB26, offset: 0x4EB26, size: 0x8, addend: 0x0, symName: __ZN11__gnu_debug14_Safe_iteratorINSt8__detail14_Node_iteratorISt4pairIKiNSt7__debug6vectorINSt7__cxx1112basic_stringIcSt11char_traitsIcESaIcEEESaISC_EEEELb0ELb0EEENS5_13unordered_mapIiSE_St4hashIiESt8equal_toIiESaISF_EEESt20forward_iterator_tagE11_S_constantEv, symObjAddr: 0xAA84, symBinAddr: 0x10000E940, symSize: 0x8 }
  - { offsetInCU: 0x4ED45, offset: 0x4ED45, size: 0x8, addend: 0x0, symName: __ZN11__gnu_debug16_Error_formatter10_ParameterC1INSt8__detail14_Node_iteratorINSt7__cxx1112basic_stringIcSt11char_traitsIcESaIcEEELb1ELb1EEENSt7__debug13unordered_setISA_St4hashISA_ESt8equal_toISA_ESaISA_EEESt20forward_iterator_tagEERKNS_14_Safe_iteratorIT_T0_T1_EEPKcNS0_12_Is_iteratorE, symObjAddr: 0xA800, symBinAddr: 0x10000E6BC, symSize: 0x17C }
  - { offsetInCU: 0x4ED4D, offset: 0x4ED4D, size: 0x8, addend: 0x0, symName: __ZNSt10_HashtableIiSt4pairIKiNSt7__debug6vectorINSt7__cxx1112basic_stringIcSt11char_traitsIcESaIcEEESaIS9_EEEESaISC_ENSt8__detail10_Select1stESt8equal_toIiESt4hashIiENSE_18_Mod_range_hashingENSE_20_Default_ranged_hashENSE_20_Prime_rehash_policyENSE_17_Hashtable_traitsILb0ELb0ELb1EEEE4findERS1_, symObjAddr: 0xA97C, symBinAddr: 0x10000E838, symSize: 0x108 }
  - { offsetInCU: 0x4ED16, offset: 0x4ED16, size: 0x8, addend: 0x0, symName: __ZNSt8__detaileqERKNS_19_Node_iterator_baseINSt7__cxx1112basic_stringIcSt11char_traitsIcESaIcEEELb1EEES9_, symObjAddr: 0xA7D0, symBinAddr: 0x10000E68C, symSize: 0x30 }
  - { offsetInCU: 0x4ED1E, offset: 0x4ED1E, size: 0x8, addend: 0x0, symName: __ZN11__gnu_debug16_Error_formatter10_ParameterC1INSt8__detail14_Node_iteratorINSt7__cxx1112basic_stringIcSt11char_traitsIcESaIcEEELb1ELb1EEENSt7__debug13unordered_setISA_St4hashISA_ESt8equal_toISA_ESaISA_EEESt20forward_iterator_tagEERKNS_14_Safe_iteratorIT_T0_T1_EEPKcNS0_12_Is_iteratorE, symObjAddr: 0xA800, symBinAddr: 0x10000E6BC, symSize: 0x17C }
  - { offsetInCU: 0x4ED80, offset: 0x4ED80, size: 0x8, addend: 0x0, symName: __ZNSt8__detail19_Node_iterator_baseINSt7__cxx1112basic_stringIcSt11char_traitsIcESaIcEEELb1EEC2Ev, symObjAddr: 0xA7B4, symBinAddr: 0x10000E670, symSize: 0x1C }
  - { offsetInCU: 0x4ED88, offset: 0x4ED88, size: 0x8, addend: 0x0, symName: __ZNSt8__detaileqERKNS_19_Node_iterator_baseINSt7__cxx1112basic_stringIcSt11char_traitsIcESaIcEEELb1EEES9_, symObjAddr: 0xA7D0, symBinAddr: 0x10000E68C, symSize: 0x30 }
  - { offsetInCU: 0x4ED4E, offset: 0x4ED4E, size: 0x8, addend: 0x0, symName: __ZNSt10_HashtableINSt7__cxx1112basic_stringIcSt11char_traitsIcESaIcEEES5_SaIS5_ENSt8__detail9_IdentityESt8equal_toIS5_ESt4hashIS5_ENS7_18_Mod_range_hashingENS7_20_Default_ranged_hashENS7_20_Prime_rehash_policyENS7_17_Hashtable_traitsILb1ELb1ELb1EEEE3endEv, symObjAddr: 0xA790, symBinAddr: 0x10000E64C, symSize: 0x24 }
  - { offsetInCU: 0x4ED56, offset: 0x4ED56, size: 0x8, addend: 0x0, symName: __ZNSt8__detail19_Node_iterator_baseINSt7__cxx1112basic_stringIcSt11char_traitsIcESaIcEEELb1EEC2Ev, symObjAddr: 0xA7B4, symBinAddr: 0x10000E670, symSize: 0x1C }
  - { offsetInCU: 0x4ED7F, offset: 0x4ED7F, size: 0x8, addend: 0x0, symName: __ZNSt10_HashtableINSt7__cxx1112basic_stringIcSt11char_traitsIcESaIcEEES5_SaIS5_ENSt8__detail9_IdentityESt8equal_toIS5_ESt4hashIS5_ENS7_18_Mod_range_hashingENS7_20_Default_ranged_hashENS7_20_Prime_rehash_policyENS7_17_Hashtable_traitsILb1ELb1ELb1EEEE4findERKS5_, symObjAddr: 0xA688, symBinAddr: 0x10000E544, symSize: 0x108 }
  - { offsetInCU: 0x4ED87, offset: 0x4ED87, size: 0x8, addend: 0x0, symName: __ZNSt10_HashtableINSt7__cxx1112basic_stringIcSt11char_traitsIcESaIcEEES5_SaIS5_ENSt8__detail9_IdentityESt8equal_toIS5_ESt4hashIS5_ENS7_18_Mod_range_hashingENS7_20_Default_ranged_hashENS7_20_Prime_rehash_policyENS7_17_Hashtable_traitsILb1ELb1ELb1EEEE3endEv, symObjAddr: 0xA790, symBinAddr: 0x10000E64C, symSize: 0x24 }
  - { offsetInCU: 0x4EE17, offset: 0x4EE17, size: 0x8, addend: 0x0, symName: __ZNKSt10_HashtableINSt7__cxx1112basic_stringIcSt11char_traitsIcESaIcEEES5_SaIS5_ENSt8__detail9_IdentityESt8equal_toIS5_ESt4hashIS5_ENS7_18_Mod_range_hashingENS7_20_Default_ranged_hashENS7_20_Prime_rehash_policyENS7_17_Hashtable_traitsILb1ELb1ELb1EEEE15_M_bucket_indexERKNS7_16_Hash_node_valueIS5_Lb1EEE, symObjAddr: 0xA658, symBinAddr: 0x10000E514, symSize: 0x30 }
  - { offsetInCU: 0x4EE1F, offset: 0x4EE1F, size: 0x8, addend: 0x0, symName: __ZNSt10_HashtableINSt7__cxx1112basic_stringIcSt11char_traitsIcESaIcEEES5_SaIS5_ENSt8__detail9_IdentityESt8equal_toIS5_ESt4hashIS5_ENS7_18_Mod_range_hashingENS7_20_Default_ranged_hashENS7_20_Prime_rehash_policyENS7_17_Hashtable_traitsILb1ELb1ELb1EEEE4findERKS5_, symObjAddr: 0xA688, symBinAddr: 0x10000E544, symSize: 0x108 }
  - { offsetInCU: 0x4EE5D, offset: 0x4EE5D, size: 0x8, addend: 0x0, symName: __ZNKSt8__detail10_Hash_nodeINSt7__cxx1112basic_stringIcSt11char_traitsIcESaIcEEELb1EE7_M_nextEv, symObjAddr: 0xA640, symBinAddr: 0x10000E4FC, symSize: 0x18 }
  - { offsetInCU: 0x4EE65, offset: 0x4EE65, size: 0x8, addend: 0x0, symName: __ZNKSt10_HashtableINSt7__cxx1112basic_stringIcSt11char_traitsIcESaIcEEES5_SaIS5_ENSt8__detail9_IdentityESt8equal_toIS5_ESt4hashIS5_ENS7_18_Mod_range_hashingENS7_20_Default_ranged_hashENS7_20_Prime_rehash_policyENS7_17_Hashtable_traitsILb1ELb1ELb1EEEE15_M_bucket_indexERKNS7_16_Hash_node_valueIS5_Lb1EEE, symObjAddr: 0xA658, symBinAddr: 0x10000E514, symSize: 0x30 }
  - { offsetInCU: 0x4EE8E, offset: 0x4EE8E, size: 0x8, addend: 0x0, symName: __ZNSt10_HashtableINSt7__cxx1112basic_stringIcSt11char_traitsIcESaIcEEES5_SaIS5_ENSt8__detail9_IdentityESt8equal_toIS5_ESt4hashIS5_ENS7_18_Mod_range_hashingENS7_20_Default_ranged_hashENS7_20_Prime_rehash_policyENS7_17_Hashtable_traitsILb1ELb1ELb1EEEE16_M_update_bbeginEPNS7_10_Hash_nodeIS5_Lb1EEE, symObjAddr: 0xA610, symBinAddr: 0x10000E4CC, symSize: 0x30 }
  - { offsetInCU: 0x4EE96, offset: 0x4EE96, size: 0x8, addend: 0x0, symName: __ZNKSt8__detail10_Hash_nodeINSt7__cxx1112basic_stringIcSt11char_traitsIcESaIcEEELb1EE7_M_nextEv, symObjAddr: 0xA640, symBinAddr: 0x10000E4FC, symSize: 0x18 }
  - { offsetInCU: 0x4EED4, offset: 0x4EED4, size: 0x8, addend: 0x0, symName: __ZNKSt8__detail15_Hash_code_baseINSt7__cxx1112basic_stringIcSt11char_traitsIcESaIcEEES6_NS_9_IdentityESt4hashIS6_ENS_18_Mod_range_hashingENS_20_Default_ranged_hashELb1EE12_M_copy_codeERNS_21_Hash_node_code_cacheILb1EEERKSE_, symObjAddr: 0xA5E4, symBinAddr: 0x10000E4A0, symSize: 0x2C }
  - { offsetInCU: 0x4EEDC, offset: 0x4EEDC, size: 0x8, addend: 0x0, symName: __ZNSt10_HashtableINSt7__cxx1112basic_stringIcSt11char_traitsIcESaIcEEES5_SaIS5_ENSt8__detail9_IdentityESt8equal_toIS5_ESt4hashIS5_ENS7_18_Mod_range_hashingENS7_20_Default_ranged_hashENS7_20_Prime_rehash_policyENS7_17_Hashtable_traitsILb1ELb1ELb1EEEE16_M_update_bbeginEPNS7_10_Hash_nodeIS5_Lb1EEE, symObjAddr: 0xA610, symBinAddr: 0x10000E4CC, symSize: 0x30 }
  - { offsetInCU: 0x4EF42, offset: 0x4EF42, size: 0x8, addend: 0x0, symName: __ZNKSt8__detail10_AllocNodeISaINS_10_Hash_nodeINSt7__cxx1112basic_stringIcSt11char_traitsIcESaIcEEELb1EEEEEclIJRKS7_EEEPS8_DpOT_, symObjAddr: 0xA5A8, symBinAddr: 0x10000E464, symSize: 0x3C }
  - { offsetInCU: 0x4EF4A, offset: 0x4EF4A, size: 0x8, addend: 0x0, symName: __ZNKSt8__detail15_Hash_code_baseINSt7__cxx1112basic_stringIcSt11char_traitsIcESaIcEEES6_NS_9_IdentityESt4hashIS6_ENS_18_Mod_range_hashingENS_20_Default_ranged_hashELb1EE12_M_copy_codeERNS_21_Hash_node_code_cacheILb1EEERKSE_, symObjAddr: 0xA5E4, symBinAddr: 0x10000E4A0, symSize: 0x2C }
  - { offsetInCU: 0x4EFA5, offset: 0x4EFA5, size: 0x8, addend: 0x0, symName: __ZNSt10_HashtableINSt7__cxx1112basic_stringIcSt11char_traitsIcESaIcEEES5_SaIS5_ENSt8__detail9_IdentityESt8equal_toIS5_ESt4hashIS5_ENS7_18_Mod_range_hashingENS7_20_Default_ranged_hashENS7_20_Prime_rehash_policyENS7_17_Hashtable_traitsILb1ELb1ELb1EEEE15__fwd_value_forIRKSI_EENSt13__conditionalIXsrSt19is_lvalue_referenceIT_E5valueEE4typeIRKS5_OS5_EERS5_, symObjAddr: 0xA58C, symBinAddr: 0x10000E448, symSize: 0x1C }
  - { offsetInCU: 0x4EFAD, offset: 0x4EFAD, size: 0x8, addend: 0x0, symName: __ZNKSt8__detail10_AllocNodeISaINS_10_Hash_nodeINSt7__cxx1112basic_stringIcSt11char_traitsIcESaIcEEELb1EEEEEclIJRKS7_EEEPS8_DpOT_, symObjAddr: 0xA5A8, symBinAddr: 0x10000E464, symSize: 0x3C }
  - { offsetInCU: 0x4EFE6, offset: 0x4EFE6, size: 0x8, addend: 0x0, symName: __ZNSt8__detail21_Hash_node_value_baseINSt7__cxx1112basic_stringIcSt11char_traitsIcESaIcEEEE4_M_vEv, symObjAddr: 0xA570, symBinAddr: 0x10000E42C, symSize: 0x1C }
  - { offsetInCU: 0x4EFEE, offset: 0x4EFEE, size: 0x8, addend: 0x0, symName: __ZNSt10_HashtableINSt7__cxx1112basic_stringIcSt11char_traitsIcESaIcEEES5_SaIS5_ENSt8__detail9_IdentityESt8equal_toIS5_ESt4hashIS5_ENS7_18_Mod_range_hashingENS7_20_Default_ranged_hashENS7_20_Prime_rehash_policyENS7_17_Hashtable_traitsILb1ELb1ELb1EEEE15__fwd_value_forIRKSI_EENSt13__conditionalIXsrSt19is_lvalue_referenceIT_E5valueEE4typeIRKS5_OS5_EERS5_, symObjAddr: 0xA58C, symBinAddr: 0x10000E448, symSize: 0x1C }
  - { offsetInCU: 0x4F017, offset: 0x4F017, size: 0x8, addend: 0x0, symName: __ZNSt10_HashtableINSt7__cxx1112basic_stringIcSt11char_traitsIcESaIcEEES5_SaIS5_ENSt8__detail9_IdentityESt8equal_toIS5_ESt4hashIS5_ENS7_18_Mod_range_hashingENS7_20_Default_ranged_hashENS7_20_Prime_rehash_policyENS7_17_Hashtable_traitsILb1ELb1ELb1EEEE19_M_allocate_bucketsEm, symObjAddr: 0xA518, symBinAddr: 0x10000E3D4, symSize: 0x58 }
  - { offsetInCU: 0x4F01F, offset: 0x4F01F, size: 0x8, addend: 0x0, symName: __ZNSt8__detail21_Hash_node_value_baseINSt7__cxx1112basic_stringIcSt11char_traitsIcESaIcEEEE4_M_vEv, symObjAddr: 0xA570, symBinAddr: 0x10000E42C, symSize: 0x1C }
  - { offsetInCU: 0x4F120, offset: 0x4F120, size: 0x8, addend: 0x0, symName: __ZNSt8__detail21_Hashtable_ebo_helperILi0ESaINS_10_Hash_nodeINSt7__cxx1112basic_stringIcSt11char_traitsIcESaIcEEELb1EEEELb1EEC2IS9_EEOT_, symObjAddr: 0xA4CC, symBinAddr: 0x10000E388, symSize: 0x4C }
  - { offsetInCU: 0x4F128, offset: 0x4F128, size: 0x8, addend: 0x0, symName: __ZNSt10_HashtableINSt7__cxx1112basic_stringIcSt11char_traitsIcESaIcEEES5_SaIS5_ENSt8__detail9_IdentityESt8equal_toIS5_ESt4hashIS5_ENS7_18_Mod_range_hashingENS7_20_Default_ranged_hashENS7_20_Prime_rehash_policyENS7_17_Hashtable_traitsILb1ELb1ELb1EEEE19_M_allocate_bucketsEm, symObjAddr: 0xA518, symBinAddr: 0x10000E3D4, symSize: 0x58 }
  - { offsetInCU: 0x4F236, offset: 0x4F236, size: 0x8, addend: 0x0, symName: __ZSt7forwardISaINSt8__detail10_Hash_nodeINSt7__cxx1112basic_stringIcSt11char_traitsIcESaIcEEELb1EEEEEOT_RNSt16remove_referenceISA_E4typeE, symObjAddr: 0xA4B8, symBinAddr: 0x10000E374, symSize: 0x14 }
  - { offsetInCU: 0x4F23E, offset: 0x4F23E, size: 0x8, addend: 0x0, symName: __ZNSt8__detail21_Hashtable_ebo_helperILi0ESaINS_10_Hash_nodeINSt7__cxx1112basic_stringIcSt11char_traitsIcESaIcEEELb1EEEELb1EEC2IS9_EEOT_, symObjAddr: 0xA4CC, symBinAddr: 0x10000E388, symSize: 0x4C }
  - { offsetInCU: 0x4F1BF, offset: 0x4F1BF, size: 0x8, addend: 0x0, symName: __ZNKSt8__detail21_Hashtable_ebo_helperILi0ESaINS_10_Hash_nodeINSt7__cxx1112basic_stringIcSt11char_traitsIcESaIcEEELb1EEEELb1EE7_M_cgetEv, symObjAddr: 0xA4A4, symBinAddr: 0x10000E360, symSize: 0x14 }
  - { offsetInCU: 0x4F1C7, offset: 0x4F1C7, size: 0x8, addend: 0x0, symName: __ZSt7forwardISaINSt8__detail10_Hash_nodeINSt7__cxx1112basic_stringIcSt11char_traitsIcESaIcEEELb1EEEEEOT_RNSt16remove_referenceISA_E4typeE, symObjAddr: 0xA4B8, symBinAddr: 0x10000E374, symSize: 0x14 }
  - { offsetInCU: 0x4F1F0, offset: 0x4F1F0, size: 0x8, addend: 0x0, symName: __ZNK11__gnu_debug14_Safe_iteratorINSt8__detail14_Node_iteratorISt4pairIKiNSt7__debug13unordered_setINSt7__cxx1112basic_stringIcSt11char_traitsIcESaIcEEESt4hashISC_ESt8equal_toISC_ESaISC_EEEELb0ELb0EEENS5_13unordered_mapIiSI_SD_IiESF_IiESaISJ_EEESt20forward_iterator_tagE18_M_is_before_beginEv, symObjAddr: 0xA484, symBinAddr: 0x10000E340, symSize: 0x20 }
  - { offsetInCU: 0x4F1F8, offset: 0x4F1F8, size: 0x8, addend: 0x0, symName: __ZNKSt8__detail21_Hashtable_ebo_helperILi0ESaINS_10_Hash_nodeINSt7__cxx1112basic_stringIcSt11char_traitsIcESaIcEEELb1EEEELb1EE7_M_cgetEv, symObjAddr: 0xA4A4, symBinAddr: 0x10000E360, symSize: 0x14 }
  - { offsetInCU: 0x4F221, offset: 0x4F221, size: 0x8, addend: 0x0, symName: __ZNSt8__detail19_Node_iterator_baseISt4pairIKiNSt7__debug13unordered_setINSt7__cxx1112basic_stringIcSt11char_traitsIcESaIcEEESt4hashISA_ESt8equal_toISA_ESaISA_EEEELb0EE7_M_incrEv, symObjAddr: 0xA454, symBinAddr: 0x10000E310, symSize: 0x30 }
  - { offsetInCU: 0x4F229, offset: 0x4F229, size: 0x8, addend: 0x0, symName: __ZNK11__gnu_debug14_Safe_iteratorINSt8__detail14_Node_iteratorISt4pairIKiNSt7__debug13unordered_setINSt7__cxx1112basic_stringIcSt11char_traitsIcESaIcEEESt4hashISC_ESt8equal_toISC_ESaISC_EEEELb0ELb0EEENS5_13unordered_mapIiSI_SD_IiESF_IiESaISJ_EEESt20forward_iterator_tagE18_M_is_before_beginEv, symObjAddr: 0xA484, symBinAddr: 0x10000E340, symSize: 0x20 }
  - { offsetInCU: 0x4F252, offset: 0x4F252, size: 0x8, addend: 0x0, symName: __ZNK11__gnu_debug14_Safe_iteratorINSt8__detail14_Node_iteratorISt4pairIKiNSt7__debug13unordered_setINSt7__cxx1112basic_stringIcSt11char_traitsIcESaIcEEESt4hashISC_ESt8equal_toISC_ESaISC_EEEELb0ELb0EEENS5_13unordered_mapIiSI_SD_IiESF_IiESaISJ_EEESt20forward_iterator_tagE9_M_is_endEv, symObjAddr: 0xA404, symBinAddr: 0x10000E2C0, symSize: 0x50 }
  - { offsetInCU: 0x4F25A, offset: 0x4F25A, size: 0x8, addend: 0x0, symName: __ZNSt8__detail19_Node_iterator_baseISt4pairIKiNSt7__debug13unordered_setINSt7__cxx1112basic_stringIcSt11char_traitsIcESaIcEEESt4hashISA_ESt8equal_toISA_ESaISA_EEEELb0EE7_M_incrEv, symObjAddr: 0xA454, symBinAddr: 0x10000E310, symSize: 0x30 }
  - { offsetInCU: 0x4F283, offset: 0x4F283, size: 0x8, addend: 0x0, symName: __ZNSt10_HashtableIiSt4pairIKiNSt7__debug13unordered_setINSt7__cxx1112basic_stringIcSt11char_traitsIcESaIcEEESt4hashIS9_ESt8equal_toIS9_ESaIS9_EEEESaISG_ENSt8__detail10_Select1stESC_IiESA_IiENSI_18_Mod_range_hashingENSI_20_Default_ranged_hashENSI_20_Prime_rehash_policyENSI_17_Hashtable_traitsILb0ELb0ELb1EEEE5beginEv, symObjAddr: 0xA3D8, symBinAddr: 0x10000E294, symSize: 0x2C }
  - { offsetInCU: 0x4F28B, offset: 0x4F28B, size: 0x8, addend: 0x0, symName: __ZNK11__gnu_debug14_Safe_iteratorINSt8__detail14_Node_iteratorISt4pairIKiNSt7__debug13unordered_setINSt7__cxx1112basic_stringIcSt11char_traitsIcESaIcEEESt4hashISC_ESt8equal_toISC_ESaISC_EEEELb0ELb0EEENS5_13unordered_mapIiSI_SD_IiESF_IiESaISJ_EEESt20forward_iterator_tagE9_M_is_endEv, symObjAddr: 0xA404, symBinAddr: 0x10000E2C0, symSize: 0x50 }
  - { offsetInCU: 0x4F3EF, offset: 0x4F3EF, size: 0x8, addend: 0x0, symName: __ZN11__gnu_debug14_Safe_iteratorINSt8__detail14_Node_iteratorINSt7__cxx1112basic_stringIcSt11char_traitsIcESaIcEEELb1ELb1EEENSt7__debug13unordered_setIS8_St4hashIS8_ESt8equal_toIS8_ESaIS8_EEESt20forward_iterator_tagEC1ERKSJ_, symObjAddr: 0xA268, symBinAddr: 0x10000E124, symSize: 0x170 }
  - { offsetInCU: 0x4F3F7, offset: 0x4F3F7, size: 0x8, addend: 0x0, symName: __ZNSt10_HashtableIiSt4pairIKiNSt7__debug13unordered_setINSt7__cxx1112basic_stringIcSt11char_traitsIcESaIcEEESt4hashIS9_ESt8equal_toIS9_ESaIS9_EEEESaISG_ENSt8__detail10_Select1stESC_IiESA_IiENSI_18_Mod_range_hashingENSI_20_Default_ranged_hashENSI_20_Prime_rehash_policyENSI_17_Hashtable_traitsILb0ELb0ELb1EEEE5beginEv, symObjAddr: 0xA3D8, symBinAddr: 0x10000E294, symSize: 0x2C }
  - { offsetInCU: 0x4F360, offset: 0x4F360, size: 0x8, addend: 0x0, symName: __ZN11__gnu_debug14_Safe_iteratorINSt8__detail14_Node_iteratorINSt7__cxx1112basic_stringIcSt11char_traitsIcESaIcEEELb1ELb1EEENSt7__debug13unordered_setIS8_St4hashIS8_ESt8equal_toIS8_ESaIS8_EEESt20forward_iterator_tagE11_S_constantEv, symObjAddr: 0xA260, symBinAddr: 0x10000E11C, symSize: 0x8 }
  - { offsetInCU: 0x4F368, offset: 0x4F368, size: 0x8, addend: 0x0, symName: __ZN11__gnu_debug14_Safe_iteratorINSt8__detail14_Node_iteratorINSt7__cxx1112basic_stringIcSt11char_traitsIcESaIcEEELb1ELb1EEENSt7__debug13unordered_setIS8_St4hashIS8_ESt8equal_toIS8_ESaIS8_EEESt20forward_iterator_tagEC1ERKSJ_, symObjAddr: 0xA268, symBinAddr: 0x10000E124, symSize: 0x170 }
  - { offsetInCU: 0x4F37C, offset: 0x4F37C, size: 0x8, addend: 0x0, symName: __ZNSt8__detail12_Insert_baseINSt7__cxx1112basic_stringIcSt11char_traitsIcESaIcEEES6_SaIS6_ENS_9_IdentityESt8equal_toIS6_ESt4hashIS6_ENS_18_Mod_range_hashingENS_20_Default_ranged_hashENS_20_Prime_rehash_policyENS_17_Hashtable_traitsILb1ELb1ELb1EEEE6insertERKS6_, symObjAddr: 0xA210, symBinAddr: 0x10000E0CC, symSize: 0x50 }
  - { offsetInCU: 0x4F384, offset: 0x4F384, size: 0x8, addend: 0x0, symName: __ZN11__gnu_debug14_Safe_iteratorINSt8__detail14_Node_iteratorINSt7__cxx1112basic_stringIcSt11char_traitsIcESaIcEEELb1ELb1EEENSt7__debug13unordered_setIS8_St4hashIS8_ESt8equal_toIS8_ESaIS8_EEESt20forward_iterator_tagE11_S_constantEv, symObjAddr: 0xA260, symBinAddr: 0x10000E11C, symSize: 0x8 }
  - { offsetInCU: 0x4F3EC, offset: 0x4F3EC, size: 0x8, addend: 0x0, symName: __ZNKSt10_HashtableINSt7__cxx1112basic_stringIcSt11char_traitsIcESaIcEEES5_SaIS5_ENSt8__detail9_IdentityESt8equal_toIS5_ESt4hashIS5_ENS7_18_Mod_range_hashingENS7_20_Default_ranged_hashENS7_20_Prime_rehash_policyENS7_17_Hashtable_traitsILb1ELb1ELb1EEEE12bucket_countEv, symObjAddr: 0xA1F8, symBinAddr: 0x10000E0B4, symSize: 0x18 }
  - { offsetInCU: 0x4F3F4, offset: 0x4F3F4, size: 0x8, addend: 0x0, symName: __ZNSt8__detail12_Insert_baseINSt7__cxx1112basic_stringIcSt11char_traitsIcESaIcEEES6_SaIS6_ENS_9_IdentityESt8equal_toIS6_ESt4hashIS6_ENS_18_Mod_range_hashingENS_20_Default_ranged_hashENS_20_Prime_rehash_policyENS_17_Hashtable_traitsILb1ELb1ELb1EEEE6insertERKS6_, symObjAddr: 0xA210, symBinAddr: 0x10000E0CC, symSize: 0x50 }
  - { offsetInCU: 0x4F41D, offset: 0x4F41D, size: 0x8, addend: 0x0, symName: __ZNSt10_HashtableINSt7__cxx1112basic_stringIcSt11char_traitsIcESaIcEEES5_SaIS5_ENSt8__detail9_IdentityESt8equal_toIS5_ESt4hashIS5_ENS7_18_Mod_range_hashingENS7_20_Default_ranged_hashENS7_20_Prime_rehash_policyENS7_17_Hashtable_traitsILb1ELb1ELb1EEEE8_M_resetEv, symObjAddr: 0xA1A0, symBinAddr: 0x10000E05C, symSize: 0x58 }
  - { offsetInCU: 0x4F425, offset: 0x4F425, size: 0x8, addend: 0x0, symName: __ZNKSt10_HashtableINSt7__cxx1112basic_stringIcSt11char_traitsIcESaIcEEES5_SaIS5_ENSt8__detail9_IdentityESt8equal_toIS5_ESt4hashIS5_ENS7_18_Mod_range_hashingENS7_20_Default_ranged_hashENS7_20_Prime_rehash_policyENS7_17_Hashtable_traitsILb1ELb1ELb1EEEE12bucket_countEv, symObjAddr: 0xA1F8, symBinAddr: 0x10000E0B4, symSize: 0x18 }
  - { offsetInCU: 0x4F44E, offset: 0x4F44E, size: 0x8, addend: 0x0, symName: __ZNSt10_HashtableINSt7__cxx1112basic_stringIcSt11char_traitsIcESaIcEEES5_SaIS5_ENSt8__detail9_IdentityESt8equal_toIS5_ESt4hashIS5_ENS7_18_Mod_range_hashingENS7_20_Default_ranged_hashENS7_20_Prime_rehash_policyENS7_17_Hashtable_traitsILb1ELb1ELb1EEEE16_M_update_bbeginEv, symObjAddr: 0xA12C, symBinAddr: 0x10000DFE8, symSize: 0x74 }
  - { offsetInCU: 0x4F456, offset: 0x4F456, size: 0x8, addend: 0x0, symName: __ZNSt10_HashtableINSt7__cxx1112basic_stringIcSt11char_traitsIcESaIcEEES5_SaIS5_ENSt8__detail9_IdentityESt8equal_toIS5_ESt4hashIS5_ENS7_18_Mod_range_hashingENS7_20_Default_ranged_hashENS7_20_Prime_rehash_policyENS7_17_Hashtable_traitsILb1ELb1ELb1EEEE8_M_resetEv, symObjAddr: 0xA1A0, symBinAddr: 0x10000E05C, symSize: 0x58 }
  - { offsetInCU: 0x4F4C1, offset: 0x4F4C1, size: 0x8, addend: 0x0, symName: __ZNSt8__detail16_Hashtable_allocISaINS_10_Hash_nodeINSt7__cxx1112basic_stringIcSt11char_traitsIcESaIcEEELb1EEEEE17_M_node_allocatorEv, symObjAddr: 0xA110, symBinAddr: 0x10000DFCC, symSize: 0x1C }
  - { offsetInCU: 0x4F4C9, offset: 0x4F4C9, size: 0x8, addend: 0x0, symName: __ZNSt10_HashtableINSt7__cxx1112basic_stringIcSt11char_traitsIcESaIcEEES5_SaIS5_ENSt8__detail9_IdentityESt8equal_toIS5_ESt4hashIS5_ENS7_18_Mod_range_hashingENS7_20_Default_ranged_hashENS7_20_Prime_rehash_policyENS7_17_Hashtable_traitsILb1ELb1ELb1EEEE16_M_update_bbeginEv, symObjAddr: 0xA12C, symBinAddr: 0x10000DFE8, symSize: 0x74 }
  - { offsetInCU: 0x4F4F2, offset: 0x4F4F2, size: 0x8, addend: 0x0, symName: __ZNKSt10_HashtableINSt7__cxx1112basic_stringIcSt11char_traitsIcESaIcEEES5_SaIS5_ENSt8__detail9_IdentityESt8equal_toIS5_ESt4hashIS5_ENS7_18_Mod_range_hashingENS7_20_Default_ranged_hashENS7_20_Prime_rehash_policyENS7_17_Hashtable_traitsILb1ELb1ELb1EEEE21_M_uses_single_bucketEv, symObjAddr: 0xA0E4, symBinAddr: 0x10000DFA0, symSize: 0x2C }
  - { offsetInCU: 0x4F4FA, offset: 0x4F4FA, size: 0x8, addend: 0x0, symName: __ZNSt8__detail16_Hashtable_allocISaINS_10_Hash_nodeINSt7__cxx1112basic_stringIcSt11char_traitsIcESaIcEEELb1EEEEE17_M_node_allocatorEv, symObjAddr: 0xA110, symBinAddr: 0x10000DFCC, symSize: 0x1C }
  - { offsetInCU: 0x4F7E9, offset: 0x4F7E9, size: 0x8, addend: 0x0, symName: __ZSt11__addressofISt10_HashtableINSt7__cxx1112basic_stringIcSt11char_traitsIcESaIcEEES6_SaIS6_ENSt8__detail9_IdentityESt8equal_toIS6_ESt4hashIS6_ENS8_18_Mod_range_hashingENS8_20_Default_ranged_hashENS8_20_Prime_rehash_policyENS8_17_Hashtable_traitsILb1ELb1ELb1EEEEEPT_RSK_, symObjAddr: 0xA0D0, symBinAddr: 0x10000DF8C, symSize: 0x14 }
  - { offsetInCU: 0x4F7F1, offset: 0x4F7F1, size: 0x8, addend: 0x0, symName: __ZNKSt10_HashtableINSt7__cxx1112basic_stringIcSt11char_traitsIcESaIcEEES5_SaIS5_ENSt8__detail9_IdentityESt8equal_toIS5_ESt4hashIS5_ENS7_18_Mod_range_hashingENS7_20_Default_ranged_hashENS7_20_Prime_rehash_policyENS7_17_Hashtable_traitsILb1ELb1ELb1EEEE21_M_uses_single_bucketEv, symObjAddr: 0xA0E4, symBinAddr: 0x10000DFA0, symSize: 0x2C }
  - { offsetInCU: 0x4F56F, offset: 0x4F56F, size: 0x8, addend: 0x0, symName: __ZN11__gnu_debug25_Safe_unordered_containerINSt7__debug13unordered_setINSt7__cxx1112basic_stringIcSt11char_traitsIcESaIcEEESt4hashIS8_ESt8equal_toIS8_ESaIS8_EEEE20_M_invalidate_localsEv, symObjAddr: 0xA054, symBinAddr: 0x10000DF10, symSize: 0x7C }
  - { offsetInCU: 0x4F577, offset: 0x4F577, size: 0x8, addend: 0x0, symName: __ZSt11__addressofISt10_HashtableINSt7__cxx1112basic_stringIcSt11char_traitsIcESaIcEEES6_SaIS6_ENSt8__detail9_IdentityESt8equal_toIS6_ESt4hashIS6_ENS8_18_Mod_range_hashingENS8_20_Default_ranged_hashENS8_20_Prime_rehash_policyENS8_17_Hashtable_traitsILb1ELb1ELb1EEEEEPT_RSK_, symObjAddr: 0xA0D0, symBinAddr: 0x10000DF8C, symSize: 0x14 }
  - { offsetInCU: 0x4F734, offset: 0x4F734, size: 0x8, addend: 0x0, symName: __ZZN11__gnu_debug25_Safe_unordered_containerINSt7__debug13unordered_setINSt7__cxx1112basic_stringIcSt11char_traitsIcESaIcEEESt4hashIS8_ESt8equal_toIS8_ESaIS8_EEEE20_M_invalidate_localsEvENKUlNSt8__detail21_Local_const_iteratorIS8_S8_NSG_9_IdentityESA_NSG_18_Mod_range_hashingENSG_20_Default_ranged_hashELb1ELb1EEEE_clESL_, symObjAddr: 0xA020, symBinAddr: 0x10000DEDC, symSize: 0x34 }
  - { offsetInCU: 0x4F73C, offset: 0x4F73C, size: 0x8, addend: 0x0, symName: __ZN11__gnu_debug25_Safe_unordered_containerINSt7__debug13unordered_setINSt7__cxx1112basic_stringIcSt11char_traitsIcESaIcEEESt4hashIS8_ESt8equal_toIS8_ESaIS8_EEEE20_M_invalidate_localsEv, symObjAddr: 0xA054, symBinAddr: 0x10000DF10, symSize: 0x7C }
  - { offsetInCU: 0x4F675, offset: 0x4F675, size: 0x8, addend: 0x0, symName: __ZN11__gnu_debug25_Safe_unordered_containerINSt7__debug13unordered_setINSt7__cxx1112basic_stringIcSt11char_traitsIcESaIcEEESt4hashIS8_ESt8equal_toIS8_ESaIS8_EEEE16_M_invalidate_ifIZNSF_17_M_invalidate_allEvEUlNSt8__detail20_Node_const_iteratorIS8_Lb1ELb1EEEE_EEvT_, symObjAddr: 0x9E74, symBinAddr: 0x10000DD30, symSize: 0x1AC }
  - { offsetInCU: 0x4F67D, offset: 0x4F67D, size: 0x8, addend: 0x0, symName: __ZZN11__gnu_debug25_Safe_unordered_containerINSt7__debug13unordered_setINSt7__cxx1112basic_stringIcSt11char_traitsIcESaIcEEESt4hashIS8_ESt8equal_toIS8_ESaIS8_EEEE20_M_invalidate_localsEvENKUlNSt8__detail21_Local_const_iteratorIS8_S8_NSG_9_IdentityESA_NSG_18_Mod_range_hashingENSG_20_Default_ranged_hashELb1ELb1EEEE_clESL_, symObjAddr: 0xA020, symBinAddr: 0x10000DEDC, symSize: 0x34 }
  - { offsetInCU: 0x4F7A6, offset: 0x4F7A6, size: 0x8, addend: 0x0, symName: __ZNKSt9__cxx199813unordered_setINSt7__cxx1112basic_stringIcSt11char_traitsIcESaIcEEESt4hashIS6_ESt8equal_toIS6_ESaIS6_EE4cendEv, symObjAddr: 0x9E58, symBinAddr: 0x10000DD14, symSize: 0x1C }
  - { offsetInCU: 0x4F7AE, offset: 0x4F7AE, size: 0x8, addend: 0x0, symName: __ZN11__gnu_debug25_Safe_unordered_containerINSt7__debug13unordered_setINSt7__cxx1112basic_stringIcSt11char_traitsIcESaIcEEESt4hashIS8_ESt8equal_toIS8_ESaIS8_EEEE16_M_invalidate_ifIZNSF_17_M_invalidate_allEvEUlNSt8__detail20_Node_const_iteratorIS8_Lb1ELb1EEEE_EEvT_, symObjAddr: 0x9E74, symBinAddr: 0x10000DD30, symSize: 0x1AC }
  - { offsetInCU: 0x4F7D7, offset: 0x4F7D7, size: 0x8, addend: 0x0, symName: __ZNSt7__debug13unordered_setINSt7__cxx1112basic_stringIcSt11char_traitsIcESaIcEEESt4hashIS6_ESt8equal_toIS6_ESaIS6_EE7_M_baseEv, symObjAddr: 0x9E40, symBinAddr: 0x10000DCFC, symSize: 0x18 }
  - { offsetInCU: 0x4F7DF, offset: 0x4F7DF, size: 0x8, addend: 0x0, symName: __ZNKSt9__cxx199813unordered_setINSt7__cxx1112basic_stringIcSt11char_traitsIcESaIcEEESt4hashIS6_ESt8equal_toIS6_ESaIS6_EE4cendEv, symObjAddr: 0x9E58, symBinAddr: 0x10000DD14, symSize: 0x1C }
  - { offsetInCU: 0x4F808, offset: 0x4F808, size: 0x8, addend: 0x0, symName: __ZN11__gnu_debug25_Safe_unordered_containerINSt7__debug13unordered_setINSt7__cxx1112basic_stringIcSt11char_traitsIcESaIcEEESt4hashIS8_ESt8equal_toIS8_ESaIS8_EEEE7_M_contEv, symObjAddr: 0x9E2C, symBinAddr: 0x10000DCE8, symSize: 0x14 }
  - { offsetInCU: 0x4F810, offset: 0x4F810, size: 0x8, addend: 0x0, symName: __ZNSt7__debug13unordered_setINSt7__cxx1112basic_stringIcSt11char_traitsIcESaIcEEESt4hashIS6_ESt8equal_toIS6_ESaIS6_EE7_M_baseEv, symObjAddr: 0x9E40, symBinAddr: 0x10000DCFC, symSize: 0x18 }
  - { offsetInCU: 0x4F839, offset: 0x4F839, size: 0x8, addend: 0x0, symName: __ZNSt10_HashtableINSt7__cxx1112basic_stringIcSt11char_traitsIcESaIcEEES5_SaIS5_ENSt8__detail9_IdentityESt8equal_toIS5_ESt4hashIS5_ENS7_18_Mod_range_hashingENS7_20_Default_ranged_hashENS7_20_Prime_rehash_policyENS7_17_Hashtable_traitsILb1ELb1ELb1EEEE21_M_deallocate_bucketsEPPNS7_15_Hash_node_baseEm, symObjAddr: 0x9DDC, symBinAddr: 0x10000DC98, symSize: 0x50 }
  - { offsetInCU: 0x4F841, offset: 0x4F841, size: 0x8, addend: 0x0, symName: __ZN11__gnu_debug25_Safe_unordered_containerINSt7__debug13unordered_setINSt7__cxx1112basic_stringIcSt11char_traitsIcESaIcEEESt4hashIS8_ESt8equal_toIS8_ESaIS8_EEEE7_M_contEv, symObjAddr: 0x9E2C, symBinAddr: 0x10000DCE8, symSize: 0x14 }
  - { offsetInCU: 0x4F894, offset: 0x4F894, size: 0x8, addend: 0x0, symName: __ZNSt8__detail16_Hashtable_allocISaINS_10_Hash_nodeINSt7__cxx1112basic_stringIcSt11char_traitsIcESaIcEEELb1EEEEE19_M_deallocate_nodesEPS8_, symObjAddr: 0x9D8C, symBinAddr: 0x10000DC48, symSize: 0x50 }
  - { offsetInCU: 0x4F89C, offset: 0x4F89C, size: 0x8, addend: 0x0, symName: __ZNSt10_HashtableINSt7__cxx1112basic_stringIcSt11char_traitsIcESaIcEEES5_SaIS5_ENSt8__detail9_IdentityESt8equal_toIS5_ESt4hashIS5_ENS7_18_Mod_range_hashingENS7_20_Default_ranged_hashENS7_20_Prime_rehash_policyENS7_17_Hashtable_traitsILb1ELb1ELb1EEEE21_M_deallocate_bucketsEPPNS7_15_Hash_node_baseEm, symObjAddr: 0x9DDC, symBinAddr: 0x10000DC98, symSize: 0x50 }
  - { offsetInCU: 0x4F902, offset: 0x4F902, size: 0x8, addend: 0x0, symName: __ZNKSt10_HashtableINSt7__cxx1112basic_stringIcSt11char_traitsIcESaIcEEES5_SaIS5_ENSt8__detail9_IdentityESt8equal_toIS5_ESt4hashIS5_ENS7_18_Mod_range_hashingENS7_20_Default_ranged_hashENS7_20_Prime_rehash_policyENS7_17_Hashtable_traitsILb1ELb1ELb1EEEE8_M_beginEv, symObjAddr: 0x9D74, symBinAddr: 0x10000DC30, symSize: 0x18 }
  - { offsetInCU: 0x4F90A, offset: 0x4F90A, size: 0x8, addend: 0x0, symName: __ZNSt8__detail16_Hashtable_allocISaINS_10_Hash_nodeINSt7__cxx1112basic_stringIcSt11char_traitsIcESaIcEEELb1EEEEE19_M_deallocate_nodesEPS8_, symObjAddr: 0x9D8C, symBinAddr: 0x10000DC48, symSize: 0x50 }
  - { offsetInCU: 0x4F94E, offset: 0x4F94E, size: 0x8, addend: 0x0, symName: __ZNKSt8__detail14_Node_iteratorISt4pairIKiNSt7__debug13unordered_setINSt7__cxx1112basic_stringIcSt11char_traitsIcESaIcEEESt4hashISA_ESt8equal_toISA_ESaISA_EEEELb0ELb0EEptEv, symObjAddr: 0x9D50, symBinAddr: 0x10000DC0C, symSize: 0x24 }
  - { offsetInCU: 0x4F956, offset: 0x4F956, size: 0x8, addend: 0x0, symName: __ZNKSt10_HashtableINSt7__cxx1112basic_stringIcSt11char_traitsIcESaIcEEES5_SaIS5_ENSt8__detail9_IdentityESt8equal_toIS5_ESt4hashIS5_ENS7_18_Mod_range_hashingENS7_20_Default_ranged_hashENS7_20_Prime_rehash_policyENS7_17_Hashtable_traitsILb1ELb1ELb1EEEE8_M_beginEv, symObjAddr: 0x9D74, symBinAddr: 0x10000DC30, symSize: 0x18 }
  - { offsetInCU: 0x4F97F, offset: 0x4F97F, size: 0x8, addend: 0x0, symName: __ZNSt10_HashtableIiSt4pairIKiNSt7__debug13unordered_setINSt7__cxx1112basic_stringIcSt11char_traitsIcESaIcEEESt4hashIS9_ESt8equal_toIS9_ESaIS9_EEEESaISG_ENSt8__detail10_Select1stESC_IiESA_IiENSI_18_Mod_range_hashingENSI_20_Default_ranged_hashENSI_20_Prime_rehash_policyENSI_17_Hashtable_traitsILb0ELb0ELb1EEEE21_M_insert_unique_nodeEmmPNSI_10_Hash_nodeISG_Lb0EEEm, symObjAddr: 0x9C68, symBinAddr: 0x10000DB24, symSize: 0xE8 }
  - { offsetInCU: 0x4F987, offset: 0x4F987, size: 0x8, addend: 0x0, symName: __ZNKSt8__detail14_Node_iteratorISt4pairIKiNSt7__debug13unordered_setINSt7__cxx1112basic_stringIcSt11char_traitsIcESaIcEEESt4hashISA_ESt8equal_toISA_ESaISA_EEEELb0ELb0EEptEv, symObjAddr: 0x9D50, symBinAddr: 0x10000DC0C, symSize: 0x24 }
  - { offsetInCU: 0x4FBA2, offset: 0x4FBA2, size: 0x8, addend: 0x0, symName: __ZNSt10_HashtableIiSt4pairIKiNSt7__debug13unordered_setINSt7__cxx1112basic_stringIcSt11char_traitsIcESaIcEEESt4hashIS9_ESt8equal_toIS9_ESaIS9_EEEESaISG_ENSt8__detail10_Select1stESC_IiESA_IiENSI_18_Mod_range_hashingENSI_20_Default_ranged_hashENSI_20_Prime_rehash_policyENSI_17_Hashtable_traitsILb0ELb0ELb1EEEE12_Scoped_nodeD1Ev, symObjAddr: 0x9C24, symBinAddr: 0x10000DAE0, symSize: 0x44 }
  - { offsetInCU: 0x4FBAA, offset: 0x4FBAA, size: 0x8, addend: 0x0, symName: __ZNSt10_HashtableIiSt4pairIKiNSt7__debug13unordered_setINSt7__cxx1112basic_stringIcSt11char_traitsIcESaIcEEESt4hashIS9_ESt8equal_toIS9_ESaIS9_EEEESaISG_ENSt8__detail10_Select1stESC_IiESA_IiENSI_18_Mod_range_hashingENSI_20_Default_ranged_hashENSI_20_Prime_rehash_policyENSI_17_Hashtable_traitsILb0ELb0ELb1EEEE21_M_insert_unique_nodeEmmPNSI_10_Hash_nodeISG_Lb0EEEm, symObjAddr: 0x9C68, symBinAddr: 0x10000DB24, symSize: 0xE8 }
  - { offsetInCU: 0x4FCB2, offset: 0x4FCB2, size: 0x8, addend: 0x0, symName: __ZNSt10_HashtableIiSt4pairIKiNSt7__debug13unordered_setINSt7__cxx1112basic_stringIcSt11char_traitsIcESaIcEEESt4hashIS9_ESt8equal_toIS9_ESaIS9_EEEESaISG_ENSt8__detail10_Select1stESC_IiESA_IiENSI_18_Mod_range_hashingENSI_20_Default_ranged_hashENSI_20_Prime_rehash_policyENSI_17_Hashtable_traitsILb0ELb0ELb1EEEE12_Scoped_nodeC1IJRKSt21piecewise_construct_tSt5tupleIJOiEESX_IJEEEEEPNSI_16_Hashtable_allocISaINSI_10_Hash_nodeISG_Lb0EEEEEEDpOT_, symObjAddr: 0x9B9C, symBinAddr: 0x10000DA58, symSize: 0x88 }
  - { offsetInCU: 0x4FCBA, offset: 0x4FCBA, size: 0x8, addend: 0x0, symName: __ZNSt10_HashtableIiSt4pairIKiNSt7__debug13unordered_setINSt7__cxx1112basic_stringIcSt11char_traitsIcESaIcEEESt4hashIS9_ESt8equal_toIS9_ESaIS9_EEEESaISG_ENSt8__detail10_Select1stESC_IiESA_IiENSI_18_Mod_range_hashingENSI_20_Default_ranged_hashENSI_20_Prime_rehash_policyENSI_17_Hashtable_traitsILb0ELb0ELb1EEEE12_Scoped_nodeD1Ev, symObjAddr: 0x9C24, symBinAddr: 0x10000DAE0, symSize: 0x44 }
  - { offsetInCU: 0x4FBD2, offset: 0x4FBD2, size: 0x8, addend: 0x0, symName: __ZSt16forward_as_tupleIJiEESt5tupleIJDpOT_EES3_, symObjAddr: 0x9B64, symBinAddr: 0x10000DA20, symSize: 0x38 }
  - { offsetInCU: 0x4FBDA, offset: 0x4FBDA, size: 0x8, addend: 0x0, symName: __ZNSt10_HashtableIiSt4pairIKiNSt7__debug13unordered_setINSt7__cxx1112basic_stringIcSt11char_traitsIcESaIcEEESt4hashIS9_ESt8equal_toIS9_ESaIS9_EEEESaISG_ENSt8__detail10_Select1stESC_IiESA_IiENSI_18_Mod_range_hashingENSI_20_Default_ranged_hashENSI_20_Prime_rehash_policyENSI_17_Hashtable_traitsILb0ELb0ELb1EEEE12_Scoped_nodeC1IJRKSt21piecewise_construct_tSt5tupleIJOiEESX_IJEEEEEPNSI_16_Hashtable_allocISaINSI_10_Hash_nodeISG_Lb0EEEEEEDpOT_, symObjAddr: 0x9B9C, symBinAddr: 0x10000DA58, symSize: 0x88 }
  - { offsetInCU: 0x4FBD6, offset: 0x4FBD6, size: 0x8, addend: 0x0, symName: __ZNSt8__detail21_Hash_node_value_baseISt4pairIKiNSt7__debug13unordered_setINSt7__cxx1112basic_stringIcSt11char_traitsIcESaIcEEESt4hashISA_ESt8equal_toISA_ESaISA_EEEEE4_M_vEv, symObjAddr: 0x9B48, symBinAddr: 0x10000DA04, symSize: 0x1C }
  - { offsetInCU: 0x4FBDE, offset: 0x4FBDE, size: 0x8, addend: 0x0, symName: __ZSt16forward_as_tupleIJiEESt5tupleIJDpOT_EES3_, symObjAddr: 0x9B64, symBinAddr: 0x10000DA20, symSize: 0x38 }
  - { offsetInCU: 0x4FC07, offset: 0x4FC07, size: 0x8, addend: 0x0, symName: __ZNKSt10_HashtableIiSt4pairIKiNSt7__debug13unordered_setINSt7__cxx1112basic_stringIcSt11char_traitsIcESaIcEEESt4hashIS9_ESt8equal_toIS9_ESaIS9_EEEESaISG_ENSt8__detail10_Select1stESC_IiESA_IiENSI_18_Mod_range_hashingENSI_20_Default_ranged_hashENSI_20_Prime_rehash_policyENSI_17_Hashtable_traitsILb0ELb0ELb1EEEE12_M_find_nodeEmRS1_m, symObjAddr: 0x9AF4, symBinAddr: 0x10000D9B0, symSize: 0x54 }
  - { offsetInCU: 0x4FC0F, offset: 0x4FC0F, size: 0x8, addend: 0x0, symName: __ZNSt8__detail21_Hash_node_value_baseISt4pairIKiNSt7__debug13unordered_setINSt7__cxx1112basic_stringIcSt11char_traitsIcESaIcEEESt4hashISA_ESt8equal_toISA_ESaISA_EEEEE4_M_vEv, symObjAddr: 0x9B48, symBinAddr: 0x10000DA04, symSize: 0x1C }
  - { offsetInCU: 0x4FC8C, offset: 0x4FC8C, size: 0x8, addend: 0x0, symName: __ZNKSt10_HashtableIiSt4pairIKiNSt7__debug13unordered_setINSt7__cxx1112basic_stringIcSt11char_traitsIcESaIcEEESt4hashIS9_ESt8equal_toIS9_ESaIS9_EEEESaISG_ENSt8__detail10_Select1stESC_IiESA_IiENSI_18_Mod_range_hashingENSI_20_Default_ranged_hashENSI_20_Prime_rehash_policyENSI_17_Hashtable_traitsILb0ELb0ELb1EEEE15_M_bucket_indexEm, symObjAddr: 0x9AC4, symBinAddr: 0x10000D980, symSize: 0x30 }
  - { offsetInCU: 0x4FC94, offset: 0x4FC94, size: 0x8, addend: 0x0, symName: __ZNKSt10_HashtableIiSt4pairIKiNSt7__debug13unordered_setINSt7__cxx1112basic_stringIcSt11char_traitsIcESaIcEEESt4hashIS9_ESt8equal_toIS9_ESaIS9_EEEESaISG_ENSt8__detail10_Select1stESC_IiESA_IiENSI_18_Mod_range_hashingENSI_20_Default_ranged_hashENSI_20_Prime_rehash_policyENSI_17_Hashtable_traitsILb0ELb0ELb1EEEE12_M_find_nodeEmRS1_m, symObjAddr: 0x9AF4, symBinAddr: 0x10000D9B0, symSize: 0x54 }
  - { offsetInCU: 0x4FCD2, offset: 0x4FCD2, size: 0x8, addend: 0x0, symName: __ZNKSt8__detail15_Hash_code_baseIiSt4pairIKiNSt7__debug13unordered_setINSt7__cxx1112basic_stringIcSt11char_traitsIcESaIcEEESt4hashISA_ESt8equal_toISA_ESaISA_EEEENS_10_Select1stESB_IiENS_18_Mod_range_hashingENS_20_Default_ranged_hashELb0EE12_M_hash_codeERS2_, symObjAddr: 0x9A8C, symBinAddr: 0x10000D948, symSize: 0x38 }
  - { offsetInCU: 0x4FCDA, offset: 0x4FCDA, size: 0x8, addend: 0x0, symName: __ZNKSt10_HashtableIiSt4pairIKiNSt7__debug13unordered_setINSt7__cxx1112basic_stringIcSt11char_traitsIcESaIcEEESt4hashIS9_ESt8equal_toIS9_ESaIS9_EEEESaISG_ENSt8__detail10_Select1stESC_IiESA_IiENSI_18_Mod_range_hashingENSI_20_Default_ranged_hashENSI_20_Prime_rehash_policyENSI_17_Hashtable_traitsILb0ELb0ELb1EEEE15_M_bucket_indexEm, symObjAddr: 0x9AC4, symBinAddr: 0x10000D980, symSize: 0x30 }
  - { offsetInCU: 0x4FEDC, offset: 0x4FEDC, size: 0x8, addend: 0x0, symName: __ZN11__gnu_debug16_Error_formatter10_ParameterC1INSt8__detail14_Node_iteratorISt4pairIKiNSt7__debug13unordered_setINSt7__cxx1112basic_stringIcSt11char_traitsIcESaIcEEESt4hashISE_ESt8equal_toISE_ESaISE_EEEELb0ELb0EEENS7_13unordered_mapIiSK_SF_IiESH_IiESaISL_EEESt20forward_iterator_tagEERKNS_14_Safe_iteratorIT_T0_T1_EEPKcNS0_12_Is_iteratorE, symObjAddr: 0x9910, symBinAddr: 0x10000D7CC, symSize: 0x17C }
  - { offsetInCU: 0x4FEE4, offset: 0x4FEE4, size: 0x8, addend: 0x0, symName: __ZNKSt8__detail15_Hash_code_baseIiSt4pairIKiNSt7__debug13unordered_setINSt7__cxx1112basic_stringIcSt11char_traitsIcESaIcEEESt4hashISA_ESt8equal_toISA_ESaISA_EEEENS_10_Select1stESB_IiENS_18_Mod_range_hashingENS_20_Default_ranged_hashELb0EE12_M_hash_codeERS2_, symObjAddr: 0x9A8C, symBinAddr: 0x10000D948, symSize: 0x38 }
  - { offsetInCU: 0x4FECD, offset: 0x4FECD, size: 0x8, addend: 0x0, symName: __ZNSt8__detail19_Node_iterator_baseISt4pairIKiNSt7__debug13unordered_setINSt7__cxx1112basic_stringIcSt11char_traitsIcESaIcEEESt4hashISA_ESt8equal_toISA_ESaISA_EEEELb0EEC2Ev, symObjAddr: 0x98F4, symBinAddr: 0x10000D7B0, symSize: 0x1C }
  - { offsetInCU: 0x4FED5, offset: 0x4FED5, size: 0x8, addend: 0x0, symName: __ZN11__gnu_debug16_Error_formatter10_ParameterC1INSt8__detail14_Node_iteratorISt4pairIKiNSt7__debug13unordered_setINSt7__cxx1112basic_stringIcSt11char_traitsIcESaIcEEESt4hashISE_ESt8equal_toISE_ESaISE_EEEELb0ELb0EEENS7_13unordered_mapIiSK_SF_IiESH_IiESaISL_EEESt20forward_iterator_tagEERKNS_14_Safe_iteratorIT_T0_T1_EEPKcNS0_12_Is_iteratorE, symObjAddr: 0x9910, symBinAddr: 0x10000D7CC, symSize: 0x17C }
  - { offsetInCU: 0x4FE50, offset: 0x4FE50, size: 0x8, addend: 0x0, symName: __ZNSt10_HashtableIiSt4pairIKiNSt7__debug13unordered_setINSt7__cxx1112basic_stringIcSt11char_traitsIcESaIcEEESt4hashIS9_ESt8equal_toIS9_ESaIS9_EEEESaISG_ENSt8__detail10_Select1stESC_IiESA_IiENSI_18_Mod_range_hashingENSI_20_Default_ranged_hashENSI_20_Prime_rehash_policyENSI_17_Hashtable_traitsILb0ELb0ELb1EEEE3endEv, symObjAddr: 0x98D0, symBinAddr: 0x10000D78C, symSize: 0x24 }
  - { offsetInCU: 0x4FE58, offset: 0x4FE58, size: 0x8, addend: 0x0, symName: __ZNSt8__detail19_Node_iterator_baseISt4pairIKiNSt7__debug13unordered_setINSt7__cxx1112basic_stringIcSt11char_traitsIcESaIcEEESt4hashISA_ESt8equal_toISA_ESaISA_EEEELb0EEC2Ev, symObjAddr: 0x98F4, symBinAddr: 0x10000D7B0, symSize: 0x1C }
  - { offsetInCU: 0x4FE82, offset: 0x4FE82, size: 0x8, addend: 0x0, symName: __ZN11__gnu_debug14_Safe_iteratorINSt8__detail14_Node_iteratorISt4pairIKiNSt7__debug13unordered_setINSt7__cxx1112basic_stringIcSt11char_traitsIcESaIcEEESt4hashISC_ESt8equal_toISC_ESaISC_EEEELb0ELb0EEENS5_13unordered_mapIiSI_SD_IiESF_IiESaISJ_EEESt20forward_iterator_tagE11_S_constantEv, symObjAddr: 0x98C8, symBinAddr: 0x10000D784, symSize: 0x8 }
  - { offsetInCU: 0x4FE8A, offset: 0x4FE8A, size: 0x8, addend: 0x0, symName: __ZNSt10_HashtableIiSt4pairIKiNSt7__debug13unordered_setINSt7__cxx1112basic_stringIcSt11char_traitsIcESaIcEEESt4hashIS9_ESt8equal_toIS9_ESaIS9_EEEESaISG_ENSt8__detail10_Select1stESC_IiESA_IiENSI_18_Mod_range_hashingENSI_20_Default_ranged_hashENSI_20_Prime_rehash_policyENSI_17_Hashtable_traitsILb0ELb0ELb1EEEE3endEv, symObjAddr: 0x98D0, symBinAddr: 0x10000D78C, symSize: 0x24 }
  - { offsetInCU: 0x4FE9E, offset: 0x4FE9E, size: 0x8, addend: 0x0, symName: __ZNSt10_HashtableIiSt4pairIKiNSt7__debug13unordered_setINSt7__cxx1112basic_stringIcSt11char_traitsIcESaIcEEESt4hashIS9_ESt8equal_toIS9_ESaIS9_EEEESaISG_ENSt8__detail10_Select1stESC_IiESA_IiENSI_18_Mod_range_hashingENSI_20_Default_ranged_hashENSI_20_Prime_rehash_policyENSI_17_Hashtable_traitsILb0ELb0ELb1EEEE4findERS1_, symObjAddr: 0x97C0, symBinAddr: 0x10000D67C, symSize: 0x108 }
  - { offsetInCU: 0x4FEA6, offset: 0x4FEA6, size: 0x8, addend: 0x0, symName: __ZN11__gnu_debug14_Safe_iteratorINSt8__detail14_Node_iteratorISt4pairIKiNSt7__debug13unordered_setINSt7__cxx1112basic_stringIcSt11char_traitsIcESaIcEEESt4hashISC_ESt8equal_toISC_ESaISC_EEEELb0ELb0EEENS5_13unordered_mapIiSI_SD_IiESF_IiESaISJ_EEESt20forward_iterator_tagE11_S_constantEv, symObjAddr: 0x98C8, symBinAddr: 0x10000D784, symSize: 0x8 }
  - { offsetInCU: 0x500B9, offset: 0x500B9, size: 0x8, addend: 0x0, symName: __ZN11__gnu_debug16_Error_formatter10_ParameterC1IN9__gnu_cxx17__normal_iteratorIPNSt7__cxx1112basic_stringIcSt11char_traitsIcESaIcEEENSt9__cxx19986vectorISA_SaISA_EEEEENSt7__debug6vectorISA_SE_EESt20forward_iterator_tagEERKNS_14_Safe_iteratorIT_T0_T1_EEPKcNS0_12_Is_iteratorE, symObjAddr: 0x9644, symBinAddr: 0x10000D500, symSize: 0x17C }
  - { offsetInCU: 0x500C1, offset: 0x500C1, size: 0x8, addend: 0x0, symName: __ZNSt10_HashtableIiSt4pairIKiNSt7__debug13unordered_setINSt7__cxx1112basic_stringIcSt11char_traitsIcESaIcEEESt4hashIS9_ESt8equal_toIS9_ESaIS9_EEEESaISG_ENSt8__detail10_Select1stESC_IiESA_IiENSI_18_Mod_range_hashingENSI_20_Default_ranged_hashENSI_20_Prime_rehash_policyENSI_17_Hashtable_traitsILb0ELb0ELb1EEEE4findERS1_, symObjAddr: 0x97C0, symBinAddr: 0x10000D67C, symSize: 0x108 }
  - { offsetInCU: 0x50023, offset: 0x50023, size: 0x8, addend: 0x0, symName: __ZNK11__gnu_debug14_Safe_iteratorIN9__gnu_cxx17__normal_iteratorIPNSt7__cxx1112basic_stringIcSt11char_traitsIcESaIcEEENSt9__cxx19986vectorIS8_SaIS8_EEEEENSt7__debug6vectorIS8_SC_EESt20forward_iterator_tagE18_M_is_before_beginEv, symObjAddr: 0x9624, symBinAddr: 0x10000D4E0, symSize: 0x20 }
  - { offsetInCU: 0x5002B, offset: 0x5002B, size: 0x8, addend: 0x0, symName: __ZN11__gnu_debug16_Error_formatter10_ParameterC1IN9__gnu_cxx17__normal_iteratorIPNSt7__cxx1112basic_stringIcSt11char_traitsIcESaIcEEENSt9__cxx19986vectorISA_SaISA_EEEEENSt7__debug6vectorISA_SE_EESt20forward_iterator_tagEERKNS_14_Safe_iteratorIT_T0_T1_EEPKcNS0_12_Is_iteratorE, symObjAddr: 0x9644, symBinAddr: 0x10000D500, symSize: 0x17C }
  - { offsetInCU: 0x50054, offset: 0x50054, size: 0x8, addend: 0x0, symName: __ZNK11__gnu_debug14_Safe_iteratorIN9__gnu_cxx17__normal_iteratorIPNSt7__cxx1112basic_stringIcSt11char_traitsIcESaIcEEENSt9__cxx19986vectorIS8_SaIS8_EEEEENSt7__debug6vectorIS8_SC_EESt20forward_iterator_tagE9_M_is_endEv, symObjAddr: 0x95D4, symBinAddr: 0x10000D490, symSize: 0x50 }
  - { offsetInCU: 0x5005C, offset: 0x5005C, size: 0x8, addend: 0x0, symName: __ZNK11__gnu_debug14_Safe_iteratorIN9__gnu_cxx17__normal_iteratorIPNSt7__cxx1112basic_stringIcSt11char_traitsIcESaIcEEENSt9__cxx19986vectorIS8_SaIS8_EEEEENSt7__debug6vectorIS8_SC_EESt20forward_iterator_tagE18_M_is_before_beginEv, symObjAddr: 0x9624, symBinAddr: 0x10000D4E0, symSize: 0x20 }
  - { offsetInCU: 0x50085, offset: 0x50085, size: 0x8, addend: 0x0, symName: __ZN11__gnu_debug14_Safe_iteratorIN9__gnu_cxx17__normal_iteratorIPNSt7__cxx1112basic_stringIcSt11char_traitsIcESaIcEEENSt9__cxx19986vectorIS8_SaIS8_EEEEENSt7__debug6vectorIS8_SC_EESt20forward_iterator_tagEppEv, symObjAddr: 0x94D0, symBinAddr: 0x10000D38C, symSize: 0x104 }
  - { offsetInCU: 0x5008D, offset: 0x5008D, size: 0x8, addend: 0x0, symName: __ZNK11__gnu_debug14_Safe_iteratorIN9__gnu_cxx17__normal_iteratorIPNSt7__cxx1112basic_stringIcSt11char_traitsIcESaIcEEENSt9__cxx19986vectorIS8_SaIS8_EEEEENSt7__debug6vectorIS8_SC_EESt20forward_iterator_tagE9_M_is_endEv, symObjAddr: 0x95D4, symBinAddr: 0x10000D490, symSize: 0x50 }
  - { offsetInCU: 0x50103, offset: 0x50103, size: 0x8, addend: 0x0, symName: __ZNK9__gnu_cxx17__normal_iteratorIPNSt7__cxx1112basic_stringIcSt11char_traitsIcESaIcEEENSt9__cxx19986vectorIS6_SaIS6_EEEE4baseEv, symObjAddr: 0x94BC, symBinAddr: 0x10000D378, symSize: 0x14 }
  - { offsetInCU: 0x5010B, offset: 0x5010B, size: 0x8, addend: 0x0, symName: __ZN11__gnu_debug14_Safe_iteratorIN9__gnu_cxx17__normal_iteratorIPNSt7__cxx1112basic_stringIcSt11char_traitsIcESaIcEEENSt9__cxx19986vectorIS8_SaIS8_EEEEENSt7__debug6vectorIS8_SC_EESt20forward_iterator_tagEppEv, symObjAddr: 0x94D0, symBinAddr: 0x10000D38C, symSize: 0x104 }
  - { offsetInCU: 0x502BD, offset: 0x502BD, size: 0x8, addend: 0x0, symName: __ZN11__gnu_debug16_Error_formatter10_ParameterC1IN9__gnu_cxx17__normal_iteratorIPNSt7__cxx1112basic_stringIcSt11char_traitsIcESaIcEEENSt9__cxx19986vectorISA_SaISA_EEEEENSt7__debug6vectorISA_SE_EESt26random_access_iterator_tagEERKNS_14_Safe_iteratorIT_T0_T1_EEPKcNS0_12_Is_iteratorE, symObjAddr: 0x9340, symBinAddr: 0x10000D1FC, symSize: 0x17C }
  - { offsetInCU: 0x502C5, offset: 0x502C5, size: 0x8, addend: 0x0, symName: __ZNK9__gnu_cxx17__normal_iteratorIPNSt7__cxx1112basic_stringIcSt11char_traitsIcESaIcEEENSt9__cxx19986vectorIS6_SaIS6_EEEE4baseEv, symObjAddr: 0x94BC, symBinAddr: 0x10000D378, symSize: 0x14 }
  - { offsetInCU: 0x50222, offset: 0x50222, size: 0x8, addend: 0x0, symName: __ZN11__gnu_debug14_Safe_iteratorIN9__gnu_cxx17__normal_iteratorIPNSt7__cxx1112basic_stringIcSt11char_traitsIcESaIcEEENSt9__cxx19986vectorIS8_SaIS8_EEEEENSt7__debug6vectorIS8_SC_EESt20forward_iterator_tagE11_S_constantEv, symObjAddr: 0x9338, symBinAddr: 0x10000D1F4, symSize: 0x8 }
  - { offsetInCU: 0x5022A, offset: 0x5022A, size: 0x8, addend: 0x0, symName: __ZN11__gnu_debug16_Error_formatter10_ParameterC1IN9__gnu_cxx17__normal_iteratorIPNSt7__cxx1112basic_stringIcSt11char_traitsIcESaIcEEENSt9__cxx19986vectorISA_SaISA_EEEEENSt7__debug6vectorISA_SE_EESt26random_access_iterator_tagEERKNS_14_Safe_iteratorIT_T0_T1_EEPKcNS0_12_Is_iteratorE, symObjAddr: 0x9340, symBinAddr: 0x10000D1FC, symSize: 0x17C }
  - { offsetInCU: 0x5036D, offset: 0x5036D, size: 0x8, addend: 0x0, symName: __ZN9__gnu_cxxeqIPNSt7__cxx1112basic_stringIcSt11char_traitsIcESaIcEEENSt9__cxx19986vectorIS6_SaIS6_EEEEEbRKNS_17__normal_iteratorIT_T0_EESH_, symObjAddr: 0x92F4, symBinAddr: 0x10000D1B0, symSize: 0x44 }
  - { offsetInCU: 0x50375, offset: 0x50375, size: 0x8, addend: 0x0, symName: __ZN11__gnu_debug14_Safe_iteratorIN9__gnu_cxx17__normal_iteratorIPNSt7__cxx1112basic_stringIcSt11char_traitsIcESaIcEEENSt9__cxx19986vectorIS8_SaIS8_EEEEENSt7__debug6vectorIS8_SC_EESt20forward_iterator_tagE11_S_constantEv, symObjAddr: 0x9338, symBinAddr: 0x10000D1F4, symSize: 0x8 }
  - { offsetInCU: 0x50346, offset: 0x50346, size: 0x8, addend: 0x0, symName: __ZN9__gnu_cxx17__normal_iteratorIPNSt7__cxx1112basic_stringIcSt11char_traitsIcESaIcEEENSt9__cxx19986vectorIS6_SaIS6_EEEEC1Ev, symObjAddr: 0x92D8, symBinAddr: 0x10000D194, symSize: 0x1C }
  - { offsetInCU: 0x5034E, offset: 0x5034E, size: 0x8, addend: 0x0, symName: __ZN9__gnu_cxxeqIPNSt7__cxx1112basic_stringIcSt11char_traitsIcESaIcEEENSt9__cxx19986vectorIS6_SaIS6_EEEEEbRKNS_17__normal_iteratorIT_T0_EESH_, symObjAddr: 0x92F4, symBinAddr: 0x10000D1B0, symSize: 0x44 }
  - { offsetInCU: 0x5042C, offset: 0x5042C, size: 0x8, addend: 0x0, symName: __ZN11__gnu_debug14_Safe_iteratorIN9__gnu_cxx17__normal_iteratorIPNSt7__cxx1112basic_stringIcSt11char_traitsIcESaIcEEENSt9__cxx19986vectorIS8_SaIS8_EEEEENSt7__debug6vectorIS8_SC_EESt26bidirectional_iterator_tagEC2ESE_PKNS_19_Safe_sequence_baseE, symObjAddr: 0x92A8, symBinAddr: 0x10000D164, symSize: 0x30 }
  - { offsetInCU: 0x50434, offset: 0x50434, size: 0x8, addend: 0x0, symName: __ZN9__gnu_cxx17__normal_iteratorIPNSt7__cxx1112basic_stringIcSt11char_traitsIcESaIcEEENSt9__cxx19986vectorIS6_SaIS6_EEEEC1Ev, symObjAddr: 0x92D8, symBinAddr: 0x10000D194, symSize: 0x1C }
  - { offsetInCU: 0x50430, offset: 0x50430, size: 0x8, addend: 0x0, symName: __ZN9__gnu_cxx17__normal_iteratorIPNSt7__cxx1112basic_stringIcSt11char_traitsIcESaIcEEENSt9__cxx19986vectorIS6_SaIS6_EEEEC1ERKS7_, symObjAddr: 0x9280, symBinAddr: 0x10000D13C, symSize: 0x28 }
  - { offsetInCU: 0x50438, offset: 0x50438, size: 0x8, addend: 0x0, symName: __ZN11__gnu_debug14_Safe_iteratorIN9__gnu_cxx17__normal_iteratorIPNSt7__cxx1112basic_stringIcSt11char_traitsIcESaIcEEENSt9__cxx19986vectorIS8_SaIS8_EEEEENSt7__debug6vectorIS8_SC_EESt26bidirectional_iterator_tagEC2ESE_PKNS_19_Safe_sequence_baseE, symObjAddr: 0x92A8, symBinAddr: 0x10000D164, symSize: 0x30 }
  - { offsetInCU: 0x503EC, offset: 0x503EC, size: 0x8, addend: 0x0, symName: __ZNSt10_HashtableIiSt4pairIKiNSt7__debug13unordered_setINSt7__cxx1112basic_stringIcSt11char_traitsIcESaIcEEESt4hashIS9_ESt8equal_toIS9_ESaIS9_EEEESaISG_ENSt8__detail10_Select1stESC_IiESA_IiENSI_18_Mod_range_hashingENSI_20_Default_ranged_hashENSI_20_Prime_rehash_policyENSI_17_Hashtable_traitsILb0ELb0ELb1EEEE21_M_deallocate_bucketsEPPNSI_15_Hash_node_baseEm, symObjAddr: 0x9230, symBinAddr: 0x10000D0EC, symSize: 0x50 }
  - { offsetInCU: 0x503F4, offset: 0x503F4, size: 0x8, addend: 0x0, symName: __ZN9__gnu_cxx17__normal_iteratorIPNSt7__cxx1112basic_stringIcSt11char_traitsIcESaIcEEENSt9__cxx19986vectorIS6_SaIS6_EEEEC1ERKS7_, symObjAddr: 0x9280, symBinAddr: 0x10000D13C, symSize: 0x28 }
  - { offsetInCU: 0x50447, offset: 0x50447, size: 0x8, addend: 0x0, symName: __ZNSt8__detail16_Hashtable_allocISaINS_10_Hash_nodeISt4pairIKiNSt7__debug13unordered_setINSt7__cxx1112basic_stringIcSt11char_traitsIcESaIcEEESt4hashISB_ESt8equal_toISB_ESaISB_EEEELb0EEEEE19_M_deallocate_nodesEPSJ_, symObjAddr: 0x91E0, symBinAddr: 0x10000D09C, symSize: 0x50 }
  - { offsetInCU: 0x5044F, offset: 0x5044F, size: 0x8, addend: 0x0, symName: __ZNSt10_HashtableIiSt4pairIKiNSt7__debug13unordered_setINSt7__cxx1112basic_stringIcSt11char_traitsIcESaIcEEESt4hashIS9_ESt8equal_toIS9_ESaIS9_EEEESaISG_ENSt8__detail10_Select1stESC_IiESA_IiENSI_18_Mod_range_hashingENSI_20_Default_ranged_hashENSI_20_Prime_rehash_policyENSI_17_Hashtable_traitsILb0ELb0ELb1EEEE21_M_deallocate_bucketsEPPNSI_15_Hash_node_baseEm, symObjAddr: 0x9230, symBinAddr: 0x10000D0EC, symSize: 0x50 }
  - { offsetInCU: 0x504B5, offset: 0x504B5, size: 0x8, addend: 0x0, symName: __ZNKSt10_HashtableIiSt4pairIKiNSt7__debug13unordered_setINSt7__cxx1112basic_stringIcSt11char_traitsIcESaIcEEESt4hashIS9_ESt8equal_toIS9_ESaIS9_EEEESaISG_ENSt8__detail10_Select1stESC_IiESA_IiENSI_18_Mod_range_hashingENSI_20_Default_ranged_hashENSI_20_Prime_rehash_policyENSI_17_Hashtable_traitsILb0ELb0ELb1EEEE8_M_beginEv, symObjAddr: 0x91C8, symBinAddr: 0x10000D084, symSize: 0x18 }
  - { offsetInCU: 0x504BD, offset: 0x504BD, size: 0x8, addend: 0x0, symName: __ZNSt8__detail16_Hashtable_allocISaINS_10_Hash_nodeISt4pairIKiNSt7__debug13unordered_setINSt7__cxx1112basic_stringIcSt11char_traitsIcESaIcEEESt4hashISB_ESt8equal_toISB_ESaISB_EEEELb0EEEEE19_M_deallocate_nodesEPSJ_, symObjAddr: 0x91E0, symBinAddr: 0x10000D09C, symSize: 0x50 }
  - { offsetInCU: 0x50501, offset: 0x50501, size: 0x8, addend: 0x0, symName: __ZNSt10_HashtableIiSt4pairIKiNSt7__debug6vectorINSt7__cxx1112basic_stringIcSt11char_traitsIcESaIcEEESaIS9_EEEESaISC_ENSt8__detail10_Select1stESt8equal_toIiESt4hashIiENSE_18_Mod_range_hashingENSE_20_Default_ranged_hashENSE_20_Prime_rehash_policyENSE_17_Hashtable_traitsILb0ELb0ELb1EEEE21_M_deallocate_bucketsEPPNSE_15_Hash_node_baseEm, symObjAddr: 0x9178, symBinAddr: 0x10000D034, symSize: 0x50 }
  - { offsetInCU: 0x50509, offset: 0x50509, size: 0x8, addend: 0x0, symName: __ZNKSt10_HashtableIiSt4pairIKiNSt7__debug13unordered_setINSt7__cxx1112basic_stringIcSt11char_traitsIcESaIcEEESt4hashIS9_ESt8equal_toIS9_ESaIS9_EEEESaISG_ENSt8__detail10_Select1stESC_IiESA_IiENSI_18_Mod_range_hashingENSI_20_Default_ranged_hashENSI_20_Prime_rehash_policyENSI_17_Hashtable_traitsILb0ELb0ELb1EEEE8_M_beginEv, symObjAddr: 0x91C8, symBinAddr: 0x10000D084, symSize: 0x18 }
  - { offsetInCU: 0x5055C, offset: 0x5055C, size: 0x8, addend: 0x0, symName: __ZNSt8__detail16_Hashtable_allocISaINS_10_Hash_nodeISt4pairIKiNSt7__debug6vectorINSt7__cxx1112basic_stringIcSt11char_traitsIcESaIcEEESaISB_EEEELb0EEEEE19_M_deallocate_nodesEPSF_, symObjAddr: 0x9128, symBinAddr: 0x10000CFE4, symSize: 0x50 }
  - { offsetInCU: 0x50564, offset: 0x50564, size: 0x8, addend: 0x0, symName: __ZNSt10_HashtableIiSt4pairIKiNSt7__debug6vectorINSt7__cxx1112basic_stringIcSt11char_traitsIcESaIcEEESaIS9_EEEESaISC_ENSt8__detail10_Select1stESt8equal_toIiESt4hashIiENSE_18_Mod_range_hashingENSE_20_Default_ranged_hashENSE_20_Prime_rehash_policyENSE_17_Hashtable_traitsILb0ELb0ELb1EEEE21_M_deallocate_bucketsEPPNSE_15_Hash_node_baseEm, symObjAddr: 0x9178, symBinAddr: 0x10000D034, symSize: 0x50 }
  - { offsetInCU: 0x505CA, offset: 0x505CA, size: 0x8, addend: 0x0, symName: __ZNKSt10_HashtableIiSt4pairIKiNSt7__debug6vectorINSt7__cxx1112basic_stringIcSt11char_traitsIcESaIcEEESaIS9_EEEESaISC_ENSt8__detail10_Select1stESt8equal_toIiESt4hashIiENSE_18_Mod_range_hashingENSE_20_Default_ranged_hashENSE_20_Prime_rehash_policyENSE_17_Hashtable_traitsILb0ELb0ELb1EEEE8_M_beginEv, symObjAddr: 0x9110, symBinAddr: 0x10000CFCC, symSize: 0x18 }
  - { offsetInCU: 0x505D2, offset: 0x505D2, size: 0x8, addend: 0x0, symName: __ZNSt8__detail16_Hashtable_allocISaINS_10_Hash_nodeISt4pairIKiNSt7__debug6vectorINSt7__cxx1112basic_stringIcSt11char_traitsIcESaIcEEESaISB_EEEELb0EEEEE19_M_deallocate_nodesEPSF_, symObjAddr: 0x9128, symBinAddr: 0x10000CFE4, symSize: 0x50 }
  - { offsetInCU: 0x506D4, offset: 0x506D4, size: 0x8, addend: 0x0, symName: __ZN11__gnu_debug16_Error_formatter10_ParameterC1INSt7__debug6vectorIiSaIiEEEEERKT_PKcNS0_12_Is_sequenceE, symObjAddr: 0x909C, symBinAddr: 0x10000CF58, symSize: 0x74 }
  - { offsetInCU: 0x506DC, offset: 0x506DC, size: 0x8, addend: 0x0, symName: __ZNKSt10_HashtableIiSt4pairIKiNSt7__debug6vectorINSt7__cxx1112basic_stringIcSt11char_traitsIcESaIcEEESaIS9_EEEESaISC_ENSt8__detail10_Select1stESt8equal_toIiESt4hashIiENSE_18_Mod_range_hashingENSE_20_Default_ranged_hashENSE_20_Prime_rehash_policyENSE_17_Hashtable_traitsILb0ELb0ELb1EEEE8_M_beginEv, symObjAddr: 0x9110, symBinAddr: 0x10000CFCC, symSize: 0x18 }
  - { offsetInCU: 0x506CF, offset: 0x506CF, size: 0x8, addend: 0x0, symName: __ZNKSt8__detail14_Node_iteratorISt4pairIKNSt7__cxx1112basic_stringIcSt11char_traitsIcESaIcEEEiELb0ELb1EEptEv, symObjAddr: 0x9078, symBinAddr: 0x10000CF34, symSize: 0x24 }
  - { offsetInCU: 0x506D7, offset: 0x506D7, size: 0x8, addend: 0x0, symName: __ZN11__gnu_debug16_Error_formatter10_ParameterC1INSt7__debug6vectorIiSaIiEEEEERKT_PKcNS0_12_Is_sequenceE, symObjAddr: 0x909C, symBinAddr: 0x10000CF58, symSize: 0x74 }
  - { offsetInCU: 0x50700, offset: 0x50700, size: 0x8, addend: 0x0, symName: __ZNSt10_HashtableINSt7__cxx1112basic_stringIcSt11char_traitsIcESaIcEEESt4pairIKS5_iESaIS8_ENSt8__detail10_Select1stESt8equal_toIS5_ESt4hashIS5_ENSA_18_Mod_range_hashingENSA_20_Default_ranged_hashENSA_20_Prime_rehash_policyENSA_17_Hashtable_traitsILb1ELb0ELb1EEEE21_M_insert_unique_nodeEmmPNSA_10_Hash_nodeIS8_Lb1EEEm, symObjAddr: 0x8F90, symBinAddr: 0x10000CE4C, symSize: 0xE8 }
  - { offsetInCU: 0x50708, offset: 0x50708, size: 0x8, addend: 0x0, symName: __ZNKSt8__detail14_Node_iteratorISt4pairIKNSt7__cxx1112basic_stringIcSt11char_traitsIcESaIcEEEiELb0ELb1EEptEv, symObjAddr: 0x9078, symBinAddr: 0x10000CF34, symSize: 0x24 }
  - { offsetInCU: 0x508F5, offset: 0x508F5, size: 0x8, addend: 0x0, symName: __ZNSt10_HashtableINSt7__cxx1112basic_stringIcSt11char_traitsIcESaIcEEESt4pairIKS5_iESaIS8_ENSt8__detail10_Select1stESt8equal_toIS5_ESt4hashIS5_ENSA_18_Mod_range_hashingENSA_20_Default_ranged_hashENSA_20_Prime_rehash_policyENSA_17_Hashtable_traitsILb1ELb0ELb1EEEE12_Scoped_nodeD1Ev, symObjAddr: 0x8F4C, symBinAddr: 0x10000CE08, symSize: 0x44 }
  - { offsetInCU: 0x508FD, offset: 0x508FD, size: 0x8, addend: 0x0, symName: __ZNSt10_HashtableINSt7__cxx1112basic_stringIcSt11char_traitsIcESaIcEEESt4pairIKS5_iESaIS8_ENSt8__detail10_Select1stESt8equal_toIS5_ESt4hashIS5_ENSA_18_Mod_range_hashingENSA_20_Default_ranged_hashENSA_20_Prime_rehash_policyENSA_17_Hashtable_traitsILb1ELb0ELb1EEEE21_M_insert_unique_nodeEmmPNSA_10_Hash_nodeIS8_Lb1EEEm, symObjAddr: 0x8F90, symBinAddr: 0x10000CE4C, symSize: 0xE8 }
  - { offsetInCU: 0x50A07, offset: 0x50A07, size: 0x8, addend: 0x0, symName: __ZNSt10_HashtableINSt7__cxx1112basic_stringIcSt11char_traitsIcESaIcEEESt4pairIKS5_iESaIS8_ENSt8__detail10_Select1stESt8equal_toIS5_ESt4hashIS5_ENSA_18_Mod_range_hashingENSA_20_Default_ranged_hashENSA_20_Prime_rehash_policyENSA_17_Hashtable_traitsILb1ELb0ELb1EEEE12_Scoped_nodeC1IJRKSt21piecewise_construct_tSt5tupleIJRS7_EESR_IJEEEEEPNSA_16_Hashtable_allocISaINSA_10_Hash_nodeIS8_Lb1EEEEEEDpOT_, symObjAddr: 0x8EC4, symBinAddr: 0x10000CD80, symSize: 0x88 }
  - { offsetInCU: 0x50A0F, offset: 0x50A0F, size: 0x8, addend: 0x0, symName: __ZNSt10_HashtableINSt7__cxx1112basic_stringIcSt11char_traitsIcESaIcEEESt4pairIKS5_iESaIS8_ENSt8__detail10_Select1stESt8equal_toIS5_ESt4hashIS5_ENSA_18_Mod_range_hashingENSA_20_Default_ranged_hashENSA_20_Prime_rehash_policyENSA_17_Hashtable_traitsILb1ELb0ELb1EEEE12_Scoped_nodeD1Ev, symObjAddr: 0x8F4C, symBinAddr: 0x10000CE08, symSize: 0x44 }
  - { offsetInCU: 0x5099A, offset: 0x5099A, size: 0x8, addend: 0x0, symName: __ZNSt5tupleIJRKNSt7__cxx1112basic_stringIcSt11char_traitsIcESaIcEEEEEC1ILb1ELb1EEES7_, symObjAddr: 0x8E9C, symBinAddr: 0x10000CD58, symSize: 0x28 }
  - { offsetInCU: 0x509A2, offset: 0x509A2, size: 0x8, addend: 0x0, symName: __ZNSt10_HashtableINSt7__cxx1112basic_stringIcSt11char_traitsIcESaIcEEESt4pairIKS5_iESaIS8_ENSt8__detail10_Select1stESt8equal_toIS5_ESt4hashIS5_ENSA_18_Mod_range_hashingENSA_20_Default_ranged_hashENSA_20_Prime_rehash_policyENSA_17_Hashtable_traitsILb1ELb0ELb1EEEE12_Scoped_nodeC1IJRKSt21piecewise_construct_tSt5tupleIJRS7_EESR_IJEEEEEPNSA_16_Hashtable_allocISaINSA_10_Hash_nodeIS8_Lb1EEEEEEDpOT_, symObjAddr: 0x8EC4, symBinAddr: 0x10000CD80, symSize: 0x88 }
  - { offsetInCU: 0x50990, offset: 0x50990, size: 0x8, addend: 0x0, symName: __ZNSt8__detail21_Hash_node_value_baseISt4pairIKNSt7__cxx1112basic_stringIcSt11char_traitsIcESaIcEEEiEE4_M_vEv, symObjAddr: 0x8E80, symBinAddr: 0x10000CD3C, symSize: 0x1C }
  - { offsetInCU: 0x50998, offset: 0x50998, size: 0x8, addend: 0x0, symName: __ZNSt5tupleIJRKNSt7__cxx1112basic_stringIcSt11char_traitsIcESaIcEEEEEC1ILb1ELb1EEES7_, symObjAddr: 0x8E9C, symBinAddr: 0x10000CD58, symSize: 0x28 }
  - { offsetInCU: 0x509C1, offset: 0x509C1, size: 0x8, addend: 0x0, symName: __ZNKSt10_HashtableINSt7__cxx1112basic_stringIcSt11char_traitsIcESaIcEEESt4pairIKS5_iESaIS8_ENSt8__detail10_Select1stESt8equal_toIS5_ESt4hashIS5_ENSA_18_Mod_range_hashingENSA_20_Default_ranged_hashENSA_20_Prime_rehash_policyENSA_17_Hashtable_traitsILb1ELb0ELb1EEEE12_M_find_nodeEmRS7_m, symObjAddr: 0x8E2C, symBinAddr: 0x10000CCE8, symSize: 0x54 }
  - { offsetInCU: 0x509C9, offset: 0x509C9, size: 0x8, addend: 0x0, symName: __ZNSt8__detail21_Hash_node_value_baseISt4pairIKNSt7__cxx1112basic_stringIcSt11char_traitsIcESaIcEEEiEE4_M_vEv, symObjAddr: 0x8E80, symBinAddr: 0x10000CD3C, symSize: 0x1C }
  - { offsetInCU: 0x50A46, offset: 0x50A46, size: 0x8, addend: 0x0, symName: __ZNKSt10_HashtableINSt7__cxx1112basic_stringIcSt11char_traitsIcESaIcEEESt4pairIKS5_iESaIS8_ENSt8__detail10_Select1stESt8equal_toIS5_ESt4hashIS5_ENSA_18_Mod_range_hashingENSA_20_Default_ranged_hashENSA_20_Prime_rehash_policyENSA_17_Hashtable_traitsILb1ELb0ELb1EEEE15_M_bucket_indexEm, symObjAddr: 0x8DFC, symBinAddr: 0x10000CCB8, symSize: 0x30 }
  - { offsetInCU: 0x50A4E, offset: 0x50A4E, size: 0x8, addend: 0x0, symName: __ZNKSt10_HashtableINSt7__cxx1112basic_stringIcSt11char_traitsIcESaIcEEESt4pairIKS5_iESaIS8_ENSt8__detail10_Select1stESt8equal_toIS5_ESt4hashIS5_ENSA_18_Mod_range_hashingENSA_20_Default_ranged_hashENSA_20_Prime_rehash_policyENSA_17_Hashtable_traitsILb1ELb0ELb1EEEE12_M_find_nodeEmRS7_m, symObjAddr: 0x8E2C, symBinAddr: 0x10000CCE8, symSize: 0x54 }
  - { offsetInCU: 0x50A8C, offset: 0x50A8C, size: 0x8, addend: 0x0, symName: __ZNKSt8__detail15_Hash_code_baseINSt7__cxx1112basic_stringIcSt11char_traitsIcESaIcEEESt4pairIKS6_iENS_10_Select1stESt4hashIS6_ENS_18_Mod_range_hashingENS_20_Default_ranged_hashELb1EE12_M_hash_codeERS8_, symObjAddr: 0x8DD4, symBinAddr: 0x10000CC90, symSize: 0x28 }
  - { offsetInCU: 0x50A94, offset: 0x50A94, size: 0x8, addend: 0x0, symName: __ZNKSt10_HashtableINSt7__cxx1112basic_stringIcSt11char_traitsIcESaIcEEESt4pairIKS5_iESaIS8_ENSt8__detail10_Select1stESt8equal_toIS5_ESt4hashIS5_ENSA_18_Mod_range_hashingENSA_20_Default_ranged_hashENSA_20_Prime_rehash_policyENSA_17_Hashtable_traitsILb1ELb0ELb1EEEE15_M_bucket_indexEm, symObjAddr: 0x8DFC, symBinAddr: 0x10000CCB8, symSize: 0x30 }
  - { offsetInCU: 0x50C6D, offset: 0x50C6D, size: 0x8, addend: 0x0, symName: __ZN11__gnu_debug16_Error_formatter10_ParameterC1INSt8__detail14_Node_iteratorISt4pairIKNSt7__cxx1112basic_stringIcSt11char_traitsIcESaIcEEEiELb0ELb1EEENSt7__debug13unordered_mapISB_iSt4hashISB_ESt8equal_toISB_ESaISD_EEESt20forward_iterator_tagEERKNS_14_Safe_iteratorIT_T0_T1_EEPKcNS0_12_Is_iteratorE, symObjAddr: 0x8C58, symBinAddr: 0x10000CB14, symSize: 0x17C }
  - { offsetInCU: 0x50C75, offset: 0x50C75, size: 0x8, addend: 0x0, symName: __ZNKSt8__detail15_Hash_code_baseINSt7__cxx1112basic_stringIcSt11char_traitsIcESaIcEEESt4pairIKS6_iENS_10_Select1stESt4hashIS6_ENS_18_Mod_range_hashingENS_20_Default_ranged_hashELb1EE12_M_hash_codeERS8_, symObjAddr: 0x8DD4, symBinAddr: 0x10000CC90, symSize: 0x28 }
  - { offsetInCU: 0x50C3D, offset: 0x50C3D, size: 0x8, addend: 0x0, symName: __ZNSt8__detaileqERKNS_19_Node_iterator_baseISt4pairIKNSt7__cxx1112basic_stringIcSt11char_traitsIcESaIcEEEiELb1EEESC_, symObjAddr: 0x8C28, symBinAddr: 0x10000CAE4, symSize: 0x30 }
  - { offsetInCU: 0x50C45, offset: 0x50C45, size: 0x8, addend: 0x0, symName: __ZN11__gnu_debug16_Error_formatter10_ParameterC1INSt8__detail14_Node_iteratorISt4pairIKNSt7__cxx1112basic_stringIcSt11char_traitsIcESaIcEEEiELb0ELb1EEENSt7__debug13unordered_mapISB_iSt4hashISB_ESt8equal_toISB_ESaISD_EEESt20forward_iterator_tagEERKNS_14_Safe_iteratorIT_T0_T1_EEPKcNS0_12_Is_iteratorE, symObjAddr: 0x8C58, symBinAddr: 0x10000CB14, symSize: 0x17C }
  - { offsetInCU: 0x50CA7, offset: 0x50CA7, size: 0x8, addend: 0x0, symName: __ZNSt8__detail19_Node_iterator_baseISt4pairIKNSt7__cxx1112basic_stringIcSt11char_traitsIcESaIcEEEiELb1EEC2Ev, symObjAddr: 0x8C0C, symBinAddr: 0x10000CAC8, symSize: 0x1C }
  - { offsetInCU: 0x50CAF, offset: 0x50CAF, size: 0x8, addend: 0x0, symName: __ZNSt8__detaileqERKNS_19_Node_iterator_baseISt4pairIKNSt7__cxx1112basic_stringIcSt11char_traitsIcESaIcEEEiELb1EEESC_, symObjAddr: 0x8C28, symBinAddr: 0x10000CAE4, symSize: 0x30 }
  - { offsetInCU: 0x50C6A, offset: 0x50C6A, size: 0x8, addend: 0x0, symName: __ZNSt10_HashtableINSt7__cxx1112basic_stringIcSt11char_traitsIcESaIcEEESt4pairIKS5_iESaIS8_ENSt8__detail10_Select1stESt8equal_toIS5_ESt4hashIS5_ENSA_18_Mod_range_hashingENSA_20_Default_ranged_hashENSA_20_Prime_rehash_policyENSA_17_Hashtable_traitsILb1ELb0ELb1EEEE3endEv, symObjAddr: 0x8BE8, symBinAddr: 0x10000CAA4, symSize: 0x24 }
  - { offsetInCU: 0x50C72, offset: 0x50C72, size: 0x8, addend: 0x0, symName: __ZNSt8__detail19_Node_iterator_baseISt4pairIKNSt7__cxx1112basic_stringIcSt11char_traitsIcESaIcEEEiELb1EEC2Ev, symObjAddr: 0x8C0C, symBinAddr: 0x10000CAC8, symSize: 0x1C }
  - { offsetInCU: 0x50C9C, offset: 0x50C9C, size: 0x8, addend: 0x0, symName: __ZN11__gnu_debug14_Safe_iteratorINSt8__detail14_Node_iteratorISt4pairIKNSt7__cxx1112basic_stringIcSt11char_traitsIcESaIcEEEiELb0ELb1EEENSt7__debug13unordered_mapIS9_iSt4hashIS9_ESt8equal_toIS9_ESaISB_EEESt20forward_iterator_tagE11_S_constantEv, symObjAddr: 0x8BE0, symBinAddr: 0x10000CA9C, symSize: 0x8 }
  - { offsetInCU: 0x50CA4, offset: 0x50CA4, size: 0x8, addend: 0x0, symName: __ZNSt10_HashtableINSt7__cxx1112basic_stringIcSt11char_traitsIcESaIcEEESt4pairIKS5_iESaIS8_ENSt8__detail10_Select1stESt8equal_toIS5_ESt4hashIS5_ENSA_18_Mod_range_hashingENSA_20_Default_ranged_hashENSA_20_Prime_rehash_policyENSA_17_Hashtable_traitsILb1ELb0ELb1EEEE3endEv, symObjAddr: 0x8BE8, symBinAddr: 0x10000CAA4, symSize: 0x24 }
  - { offsetInCU: 0x50CB8, offset: 0x50CB8, size: 0x8, addend: 0x0, symName: __ZNSt10_HashtableINSt7__cxx1112basic_stringIcSt11char_traitsIcESaIcEEESt4pairIKS5_iESaIS8_ENSt8__detail10_Select1stESt8equal_toIS5_ESt4hashIS5_ENSA_18_Mod_range_hashingENSA_20_Default_ranged_hashENSA_20_Prime_rehash_policyENSA_17_Hashtable_traitsILb1ELb0ELb1EEEE4findERS7_, symObjAddr: 0x8AD8, symBinAddr: 0x10000C994, symSize: 0x108 }
  - { offsetInCU: 0x50CC0, offset: 0x50CC0, size: 0x8, addend: 0x0, symName: __ZN11__gnu_debug14_Safe_iteratorINSt8__detail14_Node_iteratorISt4pairIKNSt7__cxx1112basic_stringIcSt11char_traitsIcESaIcEEEiELb0ELb1EEENSt7__debug13unordered_mapIS9_iSt4hashIS9_ESt8equal_toIS9_ESaISB_EEESt20forward_iterator_tagE11_S_constantEv, symObjAddr: 0x8BE0, symBinAddr: 0x10000CA9C, symSize: 0x8 }
  - { offsetInCU: 0x50E43, offset: 0x50E43, size: 0x8, addend: 0x0, symName: __ZN11__gnu_debug16_Error_formatter10_ParameterC1INSt7__debug6vectorINSt7__cxx1112basic_stringIcSt11char_traitsIcESaIcEEESaISA_EEEEERKT_PKcNS0_12_Is_sequenceE, symObjAddr: 0x8A64, symBinAddr: 0x10000C920, symSize: 0x74 }
  - { offsetInCU: 0x50E4B, offset: 0x50E4B, size: 0x8, addend: 0x0, symName: __ZNSt10_HashtableINSt7__cxx1112basic_stringIcSt11char_traitsIcESaIcEEESt4pairIKS5_iESaIS8_ENSt8__detail10_Select1stESt8equal_toIS5_ESt4hashIS5_ENSA_18_Mod_range_hashingENSA_20_Default_ranged_hashENSA_20_Prime_rehash_policyENSA_17_Hashtable_traitsILb1ELb0ELb1EEEE4findERS7_, symObjAddr: 0x8AD8, symBinAddr: 0x10000C994, symSize: 0x108 }
  - { offsetInCU: 0x50E09, offset: 0x50E09, size: 0x8, addend: 0x0, symName: __ZNSt10_HashtableINSt7__cxx1112basic_stringIcSt11char_traitsIcESaIcEEESt4pairIKS5_iESaIS8_ENSt8__detail10_Select1stESt8equal_toIS5_ESt4hashIS5_ENSA_18_Mod_range_hashingENSA_20_Default_ranged_hashENSA_20_Prime_rehash_policyENSA_17_Hashtable_traitsILb1ELb0ELb1EEEE21_M_deallocate_bucketsEPPNSA_15_Hash_node_baseEm, symObjAddr: 0x8A14, symBinAddr: 0x10000C8D0, symSize: 0x50 }
  - { offsetInCU: 0x50E11, offset: 0x50E11, size: 0x8, addend: 0x0, symName: __ZN11__gnu_debug16_Error_formatter10_ParameterC1INSt7__debug6vectorINSt7__cxx1112basic_stringIcSt11char_traitsIcESaIcEEESaISA_EEEEERKT_PKcNS0_12_Is_sequenceE, symObjAddr: 0x8A64, symBinAddr: 0x10000C920, symSize: 0x74 }
  - { offsetInCU: 0x50E64, offset: 0x50E64, size: 0x8, addend: 0x0, symName: __ZNSt8__detail16_Hashtable_allocISaINS_10_Hash_nodeISt4pairIKNSt7__cxx1112basic_stringIcSt11char_traitsIcESaIcEEEiELb1EEEEE19_M_deallocate_nodesEPSB_, symObjAddr: 0x89C4, symBinAddr: 0x10000C880, symSize: 0x50 }
  - { offsetInCU: 0x50E6C, offset: 0x50E6C, size: 0x8, addend: 0x0, symName: __ZNSt10_HashtableINSt7__cxx1112basic_stringIcSt11char_traitsIcESaIcEEESt4pairIKS5_iESaIS8_ENSt8__detail10_Select1stESt8equal_toIS5_ESt4hashIS5_ENSA_18_Mod_range_hashingENSA_20_Default_ranged_hashENSA_20_Prime_rehash_policyENSA_17_Hashtable_traitsILb1ELb0ELb1EEEE21_M_deallocate_bucketsEPPNSA_15_Hash_node_baseEm, symObjAddr: 0x8A14, symBinAddr: 0x10000C8D0, symSize: 0x50 }
  - { offsetInCU: 0x50ED2, offset: 0x50ED2, size: 0x8, addend: 0x0, symName: __ZNKSt10_HashtableINSt7__cxx1112basic_stringIcSt11char_traitsIcESaIcEEESt4pairIKS5_iESaIS8_ENSt8__detail10_Select1stESt8equal_toIS5_ESt4hashIS5_ENSA_18_Mod_range_hashingENSA_20_Default_ranged_hashENSA_20_Prime_rehash_policyENSA_17_Hashtable_traitsILb1ELb0ELb1EEEE8_M_beginEv, symObjAddr: 0x89AC, symBinAddr: 0x10000C868, symSize: 0x18 }
  - { offsetInCU: 0x50EDA, offset: 0x50EDA, size: 0x8, addend: 0x0, symName: __ZNSt8__detail16_Hashtable_allocISaINS_10_Hash_nodeISt4pairIKNSt7__cxx1112basic_stringIcSt11char_traitsIcESaIcEEEiELb1EEEEE19_M_deallocate_nodesEPSB_, symObjAddr: 0x89C4, symBinAddr: 0x10000C880, symSize: 0x50 }
  - { offsetInCU: 0x50F46, offset: 0x50F46, size: 0x8, addend: 0x0, symName: __ZSt8_DestroyIPiEvT_S1_, symObjAddr: 0x8984, symBinAddr: 0x10000C840, symSize: 0x28 }
  - { offsetInCU: 0x50F4E, offset: 0x50F4E, size: 0x8, addend: 0x0, symName: __ZNKSt10_HashtableINSt7__cxx1112basic_stringIcSt11char_traitsIcESaIcEEESt4pairIKS5_iESaIS8_ENSt8__detail10_Select1stESt8equal_toIS5_ESt4hashIS5_ENSA_18_Mod_range_hashingENSA_20_Default_ranged_hashENSA_20_Prime_rehash_policyENSA_17_Hashtable_traitsILb1ELb0ELb1EEEE8_M_beginEv, symObjAddr: 0x89AC, symBinAddr: 0x10000C868, symSize: 0x18 }
  - { offsetInCU: 0x50F76, offset: 0x50F76, size: 0x8, addend: 0x0, symName: __ZNSt9__cxx199812_Vector_baseIiSaIiEE13_M_deallocateEPim, symObjAddr: 0x892C, symBinAddr: 0x10000C7E8, symSize: 0x58 }
  - { offsetInCU: 0x50F7E, offset: 0x50F7E, size: 0x8, addend: 0x0, symName: __ZSt8_DestroyIPiEvT_S1_, symObjAddr: 0x8984, symBinAddr: 0x10000C840, symSize: 0x28 }
  - { offsetInCU: 0x51013, offset: 0x51013, size: 0x8, addend: 0x0, symName: __ZN11__gnu_debug12_Safe_vectorINSt7__debug6vectorIiSaIiEEENSt9__cxx19986vectorIiS3_EEE29_M_update_guaranteed_capacityEv, symObjAddr: 0x88C4, symBinAddr: 0x10000C780, symSize: 0x68 }
  - { offsetInCU: 0x5101B, offset: 0x5101B, size: 0x8, addend: 0x0, symName: __ZNSt9__cxx199812_Vector_baseIiSaIiEE13_M_deallocateEPim, symObjAddr: 0x892C, symBinAddr: 0x10000C7E8, symSize: 0x58 }
  - { offsetInCU: 0x51044, offset: 0x51044, size: 0x8, addend: 0x0, symName: __ZNSt9__cxx19986vectorIiSaIiEE19_M_range_initializeIPKiEEvT_S6_St20forward_iterator_tag, symObjAddr: 0x87E0, symBinAddr: 0x10000C69C, symSize: 0xE4 }
  - { offsetInCU: 0x5104C, offset: 0x5104C, size: 0x8, addend: 0x0, symName: __ZN11__gnu_debug12_Safe_vectorINSt7__debug6vectorIiSaIiEEENSt9__cxx19986vectorIiS3_EEE29_M_update_guaranteed_capacityEv, symObjAddr: 0x88C4, symBinAddr: 0x10000C780, symSize: 0x68 }
  - { offsetInCU: 0x511B3, offset: 0x511B3, size: 0x8, addend: 0x0, symName: __ZNKSt16initializer_listIiE3endEv, symObjAddr: 0x87A8, symBinAddr: 0x10000C664, symSize: 0x38 }
  - { offsetInCU: 0x511BB, offset: 0x511BB, size: 0x8, addend: 0x0, symName: __ZNSt9__cxx19986vectorIiSaIiEE19_M_range_initializeIPKiEEvT_S6_St20forward_iterator_tag, symObjAddr: 0x87E0, symBinAddr: 0x10000C69C, symSize: 0xE4 }
  - { offsetInCU: 0x511E4, offset: 0x511E4, size: 0x8, addend: 0x0, symName: __ZNKSt16initializer_listIiE5beginEv, symObjAddr: 0x8790, symBinAddr: 0x10000C64C, symSize: 0x18 }
  - { offsetInCU: 0x511EC, offset: 0x511EC, size: 0x8, addend: 0x0, symName: __ZNKSt16initializer_listIiE3endEv, symObjAddr: 0x87A8, symBinAddr: 0x10000C664, symSize: 0x38 }
  - { offsetInCU: 0x51270, offset: 0x51270, size: 0x8, addend: 0x0, symName: __ZNSt9__cxx199812_Vector_baseIiSaIiEEC2ERKS1_, symObjAddr: 0x8768, symBinAddr: 0x10000C624, symSize: 0x28 }
  - { offsetInCU: 0x51278, offset: 0x51278, size: 0x8, addend: 0x0, symName: __ZNKSt16initializer_listIiE5beginEv, symObjAddr: 0x8790, symBinAddr: 0x10000C64C, symSize: 0x18 }
  - { offsetInCU: 0x512F7, offset: 0x512F7, size: 0x8, addend: 0x0, symName: __ZSt8_DestroyIPNSt7__cxx1112basic_stringIcSt11char_traitsIcESaIcEEEEvT_S7_, symObjAddr: 0x8740, symBinAddr: 0x10000C5FC, symSize: 0x28 }
  - { offsetInCU: 0x512FF, offset: 0x512FF, size: 0x8, addend: 0x0, symName: __ZNSt9__cxx199812_Vector_baseIiSaIiEEC2ERKS1_, symObjAddr: 0x8768, symBinAddr: 0x10000C624, symSize: 0x28 }
  - { offsetInCU: 0x512D7, offset: 0x512D7, size: 0x8, addend: 0x0, symName: __ZNSt9__cxx19986vectorINSt7__cxx1112basic_stringIcSt11char_traitsIcESaIcEEESaIS6_EE19_M_range_initializeIPKPKcEEvT_SE_St20forward_iterator_tag, symObjAddr: 0x865C, symBinAddr: 0x10000C518, symSize: 0xE4 }
  - { offsetInCU: 0x512DF, offset: 0x512DF, size: 0x8, addend: 0x0, symName: __ZSt8_DestroyIPNSt7__cxx1112basic_stringIcSt11char_traitsIcESaIcEEEEvT_S7_, symObjAddr: 0x8740, symBinAddr: 0x10000C5FC, symSize: 0x28 }
  - { offsetInCU: 0x51504, offset: 0x51504, size: 0x8, addend: 0x0, symName: __ZNSt9__cxx199812_Vector_baseINSt7__cxx1112basic_stringIcSt11char_traitsIcESaIcEEESaIS6_EEC2ERKS7_, symObjAddr: 0x8634, symBinAddr: 0x10000C4F0, symSize: 0x28 }
  - { offsetInCU: 0x5150C, offset: 0x5150C, size: 0x8, addend: 0x0, symName: __ZNSt9__cxx19986vectorINSt7__cxx1112basic_stringIcSt11char_traitsIcESaIcEEESaIS6_EE19_M_range_initializeIPKPKcEEvT_SE_St20forward_iterator_tag, symObjAddr: 0x865C, symBinAddr: 0x10000C518, symSize: 0xE4 }
  - { offsetInCU: 0x514DE, offset: 0x514DE, size: 0x8, addend: 0x0, symName: __ZN11__gnu_debug16_Error_formatter11_M_iteratorIPKPKcEERS0_RKT_S3_, symObjAddr: 0x85A0, symBinAddr: 0x10000C45C, symSize: 0x94 }
  - { offsetInCU: 0x514E6, offset: 0x514E6, size: 0x8, addend: 0x0, symName: __ZNSt9__cxx199812_Vector_baseINSt7__cxx1112basic_stringIcSt11char_traitsIcESaIcEEESaIS6_EEC2ERKS7_, symObjAddr: 0x8634, symBinAddr: 0x10000C4F0, symSize: 0x28 }
  - { offsetInCU: 0x5159E, offset: 0x5159E, size: 0x8, addend: 0x0, symName: __ZN11__gnu_debug13__valid_rangeIPKPKcEEbT_S5_, symObjAddr: 0x8578, symBinAddr: 0x10000C434, symSize: 0x28 }
  - { offsetInCU: 0x515A6, offset: 0x515A6, size: 0x8, addend: 0x0, symName: __ZN11__gnu_debug16_Error_formatter11_M_iteratorIPKPKcEERS0_RKT_S3_, symObjAddr: 0x85A0, symBinAddr: 0x10000C45C, symSize: 0x94 }
  - { offsetInCU: 0x515AC, offset: 0x515AC, size: 0x8, addend: 0x0, symName: __ZNKSt7__cxx1112basic_stringIcSt11char_traitsIcESaIcEE8_M_limitEmm, symObjAddr: 0x850C, symBinAddr: 0x10000C3C8, symSize: 0x6C }
  - { offsetInCU: 0x515B4, offset: 0x515B4, size: 0x8, addend: 0x0, symName: __ZN11__gnu_debug13__valid_rangeIPKPKcEEbT_S5_, symObjAddr: 0x8578, symBinAddr: 0x10000C434, symSize: 0x28 }
  - { offsetInCU: 0x51621, offset: 0x51621, size: 0x8, addend: 0x0, symName: __ZNSt7__cxx1112basic_stringIcSt11char_traitsIcESaIcEE9_M_assignERKS4_, symObjAddr: 0x8418, symBinAddr: 0x10000C2D4, symSize: 0xF4 }
  - { offsetInCU: 0x51629, offset: 0x51629, size: 0x8, addend: 0x0, symName: __ZNKSt7__cxx1112basic_stringIcSt11char_traitsIcESaIcEE8_M_limitEmm, symObjAddr: 0x850C, symBinAddr: 0x10000C3C8, symSize: 0x6C }
  - { offsetInCU: 0x51722, offset: 0x51722, size: 0x8, addend: 0x0, symName: __ZNSt7__cxx1112basic_stringIcSt11char_traitsIcESaIcEE11_S_allocateERS3_m, symObjAddr: 0x83D4, symBinAddr: 0x10000C290, symSize: 0x44 }
  - { offsetInCU: 0x5172A, offset: 0x5172A, size: 0x8, addend: 0x0, symName: __ZNSt7__cxx1112basic_stringIcSt11char_traitsIcESaIcEE9_M_assignERKS4_, symObjAddr: 0x8418, symBinAddr: 0x10000C2D4, symSize: 0xF4 }
  - { offsetInCU: 0x5181D, offset: 0x5181D, size: 0x8, addend: 0x0, symName: __ZNSt7__cxx1112basic_stringIcSt11char_traitsIcESaIcEE13_S_copy_charsEPcS5_S5_, symObjAddr: 0x8398, symBinAddr: 0x10000C254, symSize: 0x3C }
  - { offsetInCU: 0x51825, offset: 0x51825, size: 0x8, addend: 0x0, symName: __ZNSt7__cxx1112basic_stringIcSt11char_traitsIcESaIcEE11_S_allocateERS3_m, symObjAddr: 0x83D4, symBinAddr: 0x10000C290, symSize: 0x44 }
  - { offsetInCU: 0x518E0, offset: 0x518E0, size: 0x8, addend: 0x0, symName: __ZNSt7__cxx1112basic_stringIcSt11char_traitsIcESaIcEE6appendEPKcm, symObjAddr: 0x8354, symBinAddr: 0x10000C210, symSize: 0x44 }
  - { offsetInCU: 0x518E8, offset: 0x518E8, size: 0x8, addend: 0x0, symName: __ZNSt7__cxx1112basic_stringIcSt11char_traitsIcESaIcEE13_S_copy_charsEPcS5_S5_, symObjAddr: 0x8398, symBinAddr: 0x10000C254, symSize: 0x3C }
  - { offsetInCU: 0x5193B, offset: 0x5193B, size: 0x8, addend: 0x0, symName: __ZNSt7__cxx1112basic_stringIcSt11char_traitsIcESaIcEE13_S_copy_charsEPcPKcS7_, symObjAddr: 0x8318, symBinAddr: 0x10000C1D4, symSize: 0x3C }
  - { offsetInCU: 0x51943, offset: 0x51943, size: 0x8, addend: 0x0, symName: __ZNSt7__cxx1112basic_stringIcSt11char_traitsIcESaIcEE6appendEPKcm, symObjAddr: 0x8354, symBinAddr: 0x10000C210, symSize: 0x44 }
  - { offsetInCU: 0x51A0E, offset: 0x51A0E, size: 0x8, addend: 0x0, symName: __ZNKSt7__cxx1112basic_stringIcSt11char_traitsIcESaIcEE13_M_local_dataEv, symObjAddr: 0x82F8, symBinAddr: 0x10000C1B4, symSize: 0x20 }
  - { offsetInCU: 0x51A16, offset: 0x51A16, size: 0x8, addend: 0x0, symName: __ZNSt7__cxx1112basic_stringIcSt11char_traitsIcESaIcEE13_S_copy_charsEPcPKcS7_, symObjAddr: 0x8318, symBinAddr: 0x10000C1D4, symSize: 0x3C }
  - { offsetInCU: 0x51A43, offset: 0x51A43, size: 0x8, addend: 0x0, symName: __ZNSt7__cxx1112basic_stringIcSt11char_traitsIcESaIcEE9_M_createERmm, symObjAddr: 0x8204, symBinAddr: 0x10000C0C0, symSize: 0xF4 }
  - { offsetInCU: 0x51A4B, offset: 0x51A4B, size: 0x8, addend: 0x0, symName: __ZNKSt7__cxx1112basic_stringIcSt11char_traitsIcESaIcEE13_M_local_dataEv, symObjAddr: 0x82F8, symBinAddr: 0x10000C1B4, symSize: 0x20 }
  - { offsetInCU: 0x51AC7, offset: 0x51AC7, size: 0x8, addend: 0x0, symName: __ZNSt19__ptr_traits_ptr_toIPccLb0EE10pointer_toERc, symObjAddr: 0x81E8, symBinAddr: 0x10000C0A4, symSize: 0x1C }
  - { offsetInCU: 0x51ACF, offset: 0x51ACF, size: 0x8, addend: 0x0, symName: __ZNSt7__cxx1112basic_stringIcSt11char_traitsIcESaIcEE9_M_createERmm, symObjAddr: 0x8204, symBinAddr: 0x10000C0C0, symSize: 0xF4 }
  - { offsetInCU: 0x51AFA, offset: 0x51AFA, size: 0x8, addend: 0x0, symName: __ZNSt8__detail9_Map_baseIiSt4pairIKiNSt7__debug6vectorINSt7__cxx1112basic_stringIcSt11char_traitsIcESaIcEEESaISA_EEEESaISD_ENS_10_Select1stESt8equal_toIiESt4hashIiENS_18_Mod_range_hashingENS_20_Default_ranged_hashENS_20_Prime_rehash_policyENS_17_Hashtable_traitsILb0ELb0ELb1EEELb1EEixERS2_, symObjAddr: 0x80E0, symBinAddr: 0x10000BF9C, symSize: 0x108 }
  - { offsetInCU: 0x51B02, offset: 0x51B02, size: 0x8, addend: 0x0, symName: __ZNSt19__ptr_traits_ptr_toIPccLb0EE10pointer_toERc, symObjAddr: 0x81E8, symBinAddr: 0x10000C0A4, symSize: 0x1C }
  - { offsetInCU: 0x51BDE, offset: 0x51BDE, size: 0x8, addend: 0x0, symName: __ZNSt7__cxx1112basic_stringIcSt11char_traitsIcESaIcEE9push_backEc, symObjAddr: 0x8040, symBinAddr: 0x10000BEFC, symSize: 0xA0 }
  - { offsetInCU: 0x51BE6, offset: 0x51BE6, size: 0x8, addend: 0x0, symName: __ZNSt8__detail9_Map_baseIiSt4pairIKiNSt7__debug6vectorINSt7__cxx1112basic_stringIcSt11char_traitsIcESaIcEEESaISA_EEEESaISD_ENS_10_Select1stESt8equal_toIiESt4hashIiENS_18_Mod_range_hashingENS_20_Default_ranged_hashENS_20_Prime_rehash_policyENS_17_Hashtable_traitsILb0ELb0ELb1EEELb1EEixERS2_, symObjAddr: 0x80E0, symBinAddr: 0x10000BF9C, symSize: 0x108 }
  - { offsetInCU: 0x51C39, offset: 0x51C39, size: 0x8, addend: 0x0, symName: __ZNSt9__cxx19986vectorINSt7__cxx1112basic_stringIcSt11char_traitsIcESaIcEEESaIS6_EE9push_backERKS6_, symObjAddr: 0x7F38, symBinAddr: 0x10000BDF4, symSize: 0x108 }
  - { offsetInCU: 0x51C41, offset: 0x51C41, size: 0x8, addend: 0x0, symName: __ZNSt7__cxx1112basic_stringIcSt11char_traitsIcESaIcEE9push_backEc, symObjAddr: 0x8040, symBinAddr: 0x10000BEFC, symSize: 0xA0 }
  - { offsetInCU: 0x51D03, offset: 0x51D03, size: 0x8, addend: 0x0, symName: __ZNK11__gnu_debug12_Safe_vectorINSt7__debug6vectorINSt7__cxx1112basic_stringIcSt11char_traitsIcESaIcEEESaIS8_EEENSt9__cxx19986vectorIS8_S9_EEE24_M_requires_reallocationEm, symObjAddr: 0x7F00, symBinAddr: 0x10000BDBC, symSize: 0x38 }
  - { offsetInCU: 0x51D0B, offset: 0x51D0B, size: 0x8, addend: 0x0, symName: __ZNSt9__cxx19986vectorINSt7__cxx1112basic_stringIcSt11char_traitsIcESaIcEEESaIS6_EE9push_backERKS6_, symObjAddr: 0x7F38, symBinAddr: 0x10000BDF4, symSize: 0x108 }
  - { offsetInCU: 0x51D48, offset: 0x51D48, size: 0x8, addend: 0x0, symName: __ZNSt9__cxx19986vectorINSt7__cxx1112basic_stringIcSt11char_traitsIcESaIcEEESaIS6_EE14_M_move_assignEOS8_St17integral_constantIbLb1EE, symObjAddr: 0x7E6C, symBinAddr: 0x10000BD28, symSize: 0x94 }
  - { offsetInCU: 0x51D50, offset: 0x51D50, size: 0x8, addend: 0x0, symName: __ZNK11__gnu_debug12_Safe_vectorINSt7__debug6vectorINSt7__cxx1112basic_stringIcSt11char_traitsIcESaIcEEESaIS8_EEENSt9__cxx19986vectorIS8_S9_EEE24_M_requires_reallocationEm, symObjAddr: 0x7F00, symBinAddr: 0x10000BDBC, symSize: 0x38 }
  - { offsetInCU: 0x51F06, offset: 0x51F06, size: 0x8, addend: 0x0, symName: __ZSt4moveIRNSt9__cxx19986vectorINSt7__cxx1112basic_stringIcSt11char_traitsIcESaIcEEESaIS7_EEEEONSt16remove_referenceIT_E4typeEOSC_, symObjAddr: 0x7E58, symBinAddr: 0x10000BD14, symSize: 0x14 }
  - { offsetInCU: 0x51F0E, offset: 0x51F0E, size: 0x8, addend: 0x0, symName: __ZNSt9__cxx19986vectorINSt7__cxx1112basic_stringIcSt11char_traitsIcESaIcEEESaIS6_EE14_M_move_assignEOS8_St17integral_constantIbLb1EE, symObjAddr: 0x7E6C, symBinAddr: 0x10000BD28, symSize: 0x94 }
  - { offsetInCU: 0x51E61, offset: 0x51E61, size: 0x8, addend: 0x0, symName: __ZNKSt9__cxx199812_Vector_baseINSt7__cxx1112basic_stringIcSt11char_traitsIcESaIcEEESaIS6_EE13get_allocatorEv, symObjAddr: 0x7E08, symBinAddr: 0x10000BCC4, symSize: 0x50 }
  - { offsetInCU: 0x51E69, offset: 0x51E69, size: 0x8, addend: 0x0, symName: __ZSt4moveIRNSt9__cxx19986vectorINSt7__cxx1112basic_stringIcSt11char_traitsIcESaIcEEESaIS7_EEEEONSt16remove_referenceIT_E4typeEOSC_, symObjAddr: 0x7E58, symBinAddr: 0x10000BD14, symSize: 0x14 }
  - { offsetInCU: 0x52063, offset: 0x52063, size: 0x8, addend: 0x0, symName: __ZSt11__addressofIN11__gnu_debug15_Safe_containerINSt7__debug6vectorINSt7__cxx1112basic_stringIcSt11char_traitsIcESaIcEEESaIS9_EEESA_NS0_14_Safe_sequenceELb1EEEEPT_RSE_, symObjAddr: 0x7DF4, symBinAddr: 0x10000BCB0, symSize: 0x14 }
  - { offsetInCU: 0x5206B, offset: 0x5206B, size: 0x8, addend: 0x0, symName: __ZNKSt9__cxx199812_Vector_baseINSt7__cxx1112basic_stringIcSt11char_traitsIcESaIcEEESaIS6_EE13get_allocatorEv, symObjAddr: 0x7E08, symBinAddr: 0x10000BCC4, symSize: 0x50 }
  - { offsetInCU: 0x51F48, offset: 0x51F48, size: 0x8, addend: 0x0, symName: __ZN11__gnu_debug12_Safe_vectorINSt7__debug6vectorINSt7__cxx1112basic_stringIcSt11char_traitsIcESaIcEEESaIS8_EEENSt9__cxx19986vectorIS8_S9_EEE29_M_update_guaranteed_capacityEv, symObjAddr: 0x7D8C, symBinAddr: 0x10000BC48, symSize: 0x68 }
  - { offsetInCU: 0x51F50, offset: 0x51F50, size: 0x8, addend: 0x0, symName: __ZSt11__addressofIN11__gnu_debug15_Safe_containerINSt7__debug6vectorINSt7__cxx1112basic_stringIcSt11char_traitsIcESaIcEEESaIS9_EEESA_NS0_14_Safe_sequenceELb1EEEEPT_RSE_, symObjAddr: 0x7DF4, symBinAddr: 0x10000BCB0, symSize: 0x14 }
  - { offsetInCU: 0x51F79, offset: 0x51F79, size: 0x8, addend: 0x0, symName: __ZNSt9__cxx199812_Vector_baseINSt7__cxx1112basic_stringIcSt11char_traitsIcESaIcEEESaIS6_EE13_M_deallocateEPS6_m, symObjAddr: 0x7D34, symBinAddr: 0x10000BBF0, symSize: 0x58 }
  - { offsetInCU: 0x51F81, offset: 0x51F81, size: 0x8, addend: 0x0, symName: __ZN11__gnu_debug12_Safe_vectorINSt7__debug6vectorINSt7__cxx1112basic_stringIcSt11char_traitsIcESaIcEEESaIS8_EEENSt9__cxx19986vectorIS8_S9_EEE29_M_update_guaranteed_capacityEv, symObjAddr: 0x7D8C, symBinAddr: 0x10000BC48, symSize: 0x68 }
  - { offsetInCU: 0x520A3, offset: 0x520A3, size: 0x8, addend: 0x0, symName: __ZNSt9__cxx199812_Vector_baseINSt7__cxx1112basic_stringIcSt11char_traitsIcESaIcEEESaIS6_EE17_Vector_impl_dataC1Ev, symObjAddr: 0x7D08, symBinAddr: 0x10000BBC4, symSize: 0x2C }
  - { offsetInCU: 0x520AB, offset: 0x520AB, size: 0x8, addend: 0x0, symName: __ZNSt9__cxx199812_Vector_baseINSt7__cxx1112basic_stringIcSt11char_traitsIcESaIcEEESaIS6_EE13_M_deallocateEPS6_m, symObjAddr: 0x7D34, symBinAddr: 0x10000BBF0, symSize: 0x58 }
  - { offsetInCU: 0x520D3, offset: 0x520D3, size: 0x8, addend: 0x0, symName: __ZNSt9__cxx199812_Vector_baseINSt7__cxx1112basic_stringIcSt11char_traitsIcESaIcEEESaIS6_EE17_Vector_impl_dataC2Ev, symObjAddr: 0x7CDC, symBinAddr: 0x10000BB98, symSize: 0x2C }
  - { offsetInCU: 0x520DB, offset: 0x520DB, size: 0x8, addend: 0x0, symName: __ZNSt9__cxx199812_Vector_baseINSt7__cxx1112basic_stringIcSt11char_traitsIcESaIcEEESaIS6_EE17_Vector_impl_dataC1Ev, symObjAddr: 0x7D08, symBinAddr: 0x10000BBC4, symSize: 0x2C }
  - { offsetInCU: 0x52091, offset: 0x52091, size: 0x8, addend: 0x0, symName: __ZNSt8__detail9_Map_baseIiSt4pairIKiNSt7__debug6vectorINSt7__cxx1112basic_stringIcSt11char_traitsIcESaIcEEESaISA_EEEESaISD_ENS_10_Select1stESt8equal_toIiESt4hashIiENS_18_Mod_range_hashingENS_20_Default_ranged_hashENS_20_Prime_rehash_policyENS_17_Hashtable_traitsILb0ELb0ELb1EEELb1EEixEOi, symObjAddr: 0x7BC4, symBinAddr: 0x10000BA80, symSize: 0x118 }
  - { offsetInCU: 0x52099, offset: 0x52099, size: 0x8, addend: 0x0, symName: __ZNSt9__cxx199812_Vector_baseINSt7__cxx1112basic_stringIcSt11char_traitsIcESaIcEEESaIS6_EE17_Vector_impl_dataC2Ev, symObjAddr: 0x7CDC, symBinAddr: 0x10000BB98, symSize: 0x2C }
  - { offsetInCU: 0x52205, offset: 0x52205, size: 0x8, addend: 0x0, symName: __ZNSt8__detaileqERKNS_19_Node_iterator_baseISt4pairIKiNSt7__debug6vectorINSt7__cxx1112basic_stringIcSt11char_traitsIcESaIcEEESaISA_EEEELb0EEESG_, symObjAddr: 0x7B94, symBinAddr: 0x10000BA50, symSize: 0x30 }
  - { offsetInCU: 0x5220D, offset: 0x5220D, size: 0x8, addend: 0x0, symName: __ZNSt8__detail9_Map_baseIiSt4pairIKiNSt7__debug6vectorINSt7__cxx1112basic_stringIcSt11char_traitsIcESaIcEEESaISA_EEEESaISD_ENS_10_Select1stESt8equal_toIiESt4hashIiENS_18_Mod_range_hashingENS_20_Default_ranged_hashENS_20_Prime_rehash_policyENS_17_Hashtable_traitsILb0ELb0ELb1EEELb1EEixEOi, symObjAddr: 0x7BC4, symBinAddr: 0x10000BA80, symSize: 0x118 }
  - { offsetInCU: 0x521C1, offset: 0x521C1, size: 0x8, addend: 0x0, symName: __ZNK11__gnu_debug14_Safe_iteratorINSt8__detail14_Node_iteratorISt4pairIKiNSt7__debug6vectorINSt7__cxx1112basic_stringIcSt11char_traitsIcESaIcEEESaISC_EEEELb0ELb0EEENS5_13unordered_mapIiSE_St4hashIiESt8equal_toIiESaISF_EEESt20forward_iterator_tagE4baseEv, symObjAddr: 0x7B80, symBinAddr: 0x10000BA3C, symSize: 0x14 }
  - { offsetInCU: 0x521C9, offset: 0x521C9, size: 0x8, addend: 0x0, symName: __ZNSt8__detaileqERKNS_19_Node_iterator_baseISt4pairIKiNSt7__debug6vectorINSt7__cxx1112basic_stringIcSt11char_traitsIcESaIcEEESaISA_EEEELb0EEESG_, symObjAddr: 0x7B94, symBinAddr: 0x10000BA50, symSize: 0x30 }
  - { offsetInCU: 0x521F2, offset: 0x521F2, size: 0x8, addend: 0x0, symName: __ZN11__gnu_debug16_Error_formatter11_M_iteratorINS_14_Safe_iteratorINSt8__detail14_Node_iteratorISt4pairIKiNSt7__debug6vectorINSt7__cxx1112basic_stringIcSt11char_traitsIcESaIcEEESaISE_EEEELb0ELb0EEENS7_13unordered_mapIiSG_St4hashIiESt8equal_toIiESaISH_EEESt20forward_iterator_tagEEEERS0_RKT_PKc, symObjAddr: 0x7AEC, symBinAddr: 0x10000B9A8, symSize: 0x94 }
  - { offsetInCU: 0x521FA, offset: 0x521FA, size: 0x8, addend: 0x0, symName: __ZNK11__gnu_debug14_Safe_iteratorINSt8__detail14_Node_iteratorISt4pairIKiNSt7__debug6vectorINSt7__cxx1112basic_stringIcSt11char_traitsIcESaIcEEESaISC_EEEELb0ELb0EEENS5_13unordered_mapIiSE_St4hashIiESt8equal_toIiESaISF_EEESt20forward_iterator_tagE4baseEv, symObjAddr: 0x7B80, symBinAddr: 0x10000BA3C, symSize: 0x14 }
  - { offsetInCU: 0x5225D, offset: 0x5225D, size: 0x8, addend: 0x0, symName: __ZNK11__gnu_debug14_Safe_iteratorINSt8__detail14_Node_iteratorISt4pairIKiNSt7__debug6vectorINSt7__cxx1112basic_stringIcSt11char_traitsIcESaIcEEESaISC_EEEELb0ELb0EEENS5_13unordered_mapIiSE_St4hashIiESt8equal_toIiESaISF_EEESt20forward_iterator_tagE20_M_value_initializedEv, symObjAddr: 0x7A7C, symBinAddr: 0x10000B938, symSize: 0x70 }
  - { offsetInCU: 0x52265, offset: 0x52265, size: 0x8, addend: 0x0, symName: __ZN11__gnu_debug16_Error_formatter11_M_iteratorINS_14_Safe_iteratorINSt8__detail14_Node_iteratorISt4pairIKiNSt7__debug6vectorINSt7__cxx1112basic_stringIcSt11char_traitsIcESaIcEEESaISE_EEEELb0ELb0EEENS7_13unordered_mapIiSG_St4hashIiESt8equal_toIiESaISH_EEESt20forward_iterator_tagEEEERS0_RKT_PKc, symObjAddr: 0x7AEC, symBinAddr: 0x10000B9A8, symSize: 0x94 }
  - { offsetInCU: 0x52331, offset: 0x52331, size: 0x8, addend: 0x0, symName: __ZNSt8__detail14_Node_iteratorISt4pairIKiNSt7__debug6vectorINSt7__cxx1112basic_stringIcSt11char_traitsIcESaIcEEESaISA_EEEELb0ELb0EEC1Ev, symObjAddr: 0x7A5C, symBinAddr: 0x10000B918, symSize: 0x20 }
  - { offsetInCU: 0x52339, offset: 0x52339, size: 0x8, addend: 0x0, symName: __ZNK11__gnu_debug14_Safe_iteratorINSt8__detail14_Node_iteratorISt4pairIKiNSt7__debug6vectorINSt7__cxx1112basic_stringIcSt11char_traitsIcESaIcEEESaISC_EEEELb0ELb0EEENS5_13unordered_mapIiSE_St4hashIiESt8equal_toIiESaISF_EEESt20forward_iterator_tagE20_M_value_initializedEv, symObjAddr: 0x7A7C, symBinAddr: 0x10000B938, symSize: 0x70 }
  - { offsetInCU: 0x522D9, offset: 0x522D9, size: 0x8, addend: 0x0, symName: __ZNSt9__cxx199813unordered_mapIiNSt7__debug6vectorINSt7__cxx1112basic_stringIcSt11char_traitsIcESaIcEEESaIS8_EEESt4hashIiESt8equal_toIiESaISt4pairIKiSA_EEE3endEv, symObjAddr: 0x7A40, symBinAddr: 0x10000B8FC, symSize: 0x1C }
  - { offsetInCU: 0x522E1, offset: 0x522E1, size: 0x8, addend: 0x0, symName: __ZNSt8__detail14_Node_iteratorISt4pairIKiNSt7__debug6vectorINSt7__cxx1112basic_stringIcSt11char_traitsIcESaIcEEESaISA_EEEELb0ELb0EEC1Ev, symObjAddr: 0x7A5C, symBinAddr: 0x10000B918, symSize: 0x20 }
  - { offsetInCU: 0x5245E, offset: 0x5245E, size: 0x8, addend: 0x0, symName: __ZN11__gnu_debug14_Safe_iteratorINSt8__detail14_Node_iteratorISt4pairIKiNSt7__debug6vectorINSt7__cxx1112basic_stringIcSt11char_traitsIcESaIcEEESaISC_EEEELb0ELb0EEENS5_13unordered_mapIiSE_St4hashIiESt8equal_toIiESaISF_EEESt20forward_iterator_tagEC1ESG_PKNS_19_Safe_sequence_baseE, symObjAddr: 0x79EC, symBinAddr: 0x10000B8A8, symSize: 0x54 }
  - { offsetInCU: 0x52466, offset: 0x52466, size: 0x8, addend: 0x0, symName: __ZNSt9__cxx199813unordered_mapIiNSt7__debug6vectorINSt7__cxx1112basic_stringIcSt11char_traitsIcESaIcEEESaIS8_EEESt4hashIiESt8equal_toIiESaISt4pairIKiSA_EEE3endEv, symObjAddr: 0x7A40, symBinAddr: 0x10000B8FC, symSize: 0x1C }
  - { offsetInCU: 0x52391, offset: 0x52391, size: 0x8, addend: 0x0, symName: __ZNSt9__cxx199813unordered_mapIiNSt7__debug6vectorINSt7__cxx1112basic_stringIcSt11char_traitsIcESaIcEEESaIS8_EEESt4hashIiESt8equal_toIiESaISt4pairIKiSA_EEE4findERSG_, symObjAddr: 0x79C8, symBinAddr: 0x10000B884, symSize: 0x24 }
  - { offsetInCU: 0x52399, offset: 0x52399, size: 0x8, addend: 0x0, symName: __ZN11__gnu_debug14_Safe_iteratorINSt8__detail14_Node_iteratorISt4pairIKiNSt7__debug6vectorINSt7__cxx1112basic_stringIcSt11char_traitsIcESaIcEEESaISC_EEEELb0ELb0EEENS5_13unordered_mapIiSE_St4hashIiESt8equal_toIiESaISF_EEESt20forward_iterator_tagEC1ESG_PKNS_19_Safe_sequence_baseE, symObjAddr: 0x79EC, symBinAddr: 0x10000B8A8, symSize: 0x54 }
  - { offsetInCU: 0x5244A, offset: 0x5244A, size: 0x8, addend: 0x0, symName: __ZNSt8__detailneERKNS_19_Node_iterator_baseINSt7__cxx1112basic_stringIcSt11char_traitsIcESaIcEEELb1EEES9_, symObjAddr: 0x7998, symBinAddr: 0x10000B854, symSize: 0x30 }
  - { offsetInCU: 0x52452, offset: 0x52452, size: 0x8, addend: 0x0, symName: __ZNSt9__cxx199813unordered_mapIiNSt7__debug6vectorINSt7__cxx1112basic_stringIcSt11char_traitsIcESaIcEEESaIS8_EEESt4hashIiESt8equal_toIiESaISt4pairIKiSA_EEE4findERSG_, symObjAddr: 0x79C8, symBinAddr: 0x10000B884, symSize: 0x24 }
  - { offsetInCU: 0x5242D, offset: 0x5242D, size: 0x8, addend: 0x0, symName: __ZNK11__gnu_debug14_Safe_iteratorINSt8__detail14_Node_iteratorINSt7__cxx1112basic_stringIcSt11char_traitsIcESaIcEEELb1ELb1EEENSt7__debug13unordered_setIS8_St4hashIS8_ESt8equal_toIS8_ESaIS8_EEESt20forward_iterator_tagE4baseEv, symObjAddr: 0x7984, symBinAddr: 0x10000B840, symSize: 0x14 }
  - { offsetInCU: 0x52435, offset: 0x52435, size: 0x8, addend: 0x0, symName: __ZNSt8__detailneERKNS_19_Node_iterator_baseINSt7__cxx1112basic_stringIcSt11char_traitsIcESaIcEEELb1EEES9_, symObjAddr: 0x7998, symBinAddr: 0x10000B854, symSize: 0x30 }
  - { offsetInCU: 0x5245E, offset: 0x5245E, size: 0x8, addend: 0x0, symName: __ZN11__gnu_debug16_Error_formatter11_M_iteratorINS_14_Safe_iteratorINSt8__detail14_Node_iteratorINSt7__cxx1112basic_stringIcSt11char_traitsIcESaIcEEELb1ELb1EEENSt7__debug13unordered_setISA_St4hashISA_ESt8equal_toISA_ESaISA_EEESt20forward_iterator_tagEEEERS0_RKT_PKc, symObjAddr: 0x78F0, symBinAddr: 0x10000B7AC, symSize: 0x94 }
  - { offsetInCU: 0x52466, offset: 0x52466, size: 0x8, addend: 0x0, symName: __ZNK11__gnu_debug14_Safe_iteratorINSt8__detail14_Node_iteratorINSt7__cxx1112basic_stringIcSt11char_traitsIcESaIcEEELb1ELb1EEENSt7__debug13unordered_setIS8_St4hashIS8_ESt8equal_toIS8_ESaIS8_EEESt20forward_iterator_tagE4baseEv, symObjAddr: 0x7984, symBinAddr: 0x10000B840, symSize: 0x14 }
  - { offsetInCU: 0x524C9, offset: 0x524C9, size: 0x8, addend: 0x0, symName: __ZNK11__gnu_debug14_Safe_iteratorINSt8__detail14_Node_iteratorINSt7__cxx1112basic_stringIcSt11char_traitsIcESaIcEEELb1ELb1EEENSt7__debug13unordered_setIS8_St4hashIS8_ESt8equal_toIS8_ESaIS8_EEESt20forward_iterator_tagE20_M_value_initializedEv, symObjAddr: 0x7880, symBinAddr: 0x10000B73C, symSize: 0x70 }
  - { offsetInCU: 0x524D1, offset: 0x524D1, size: 0x8, addend: 0x0, symName: __ZN11__gnu_debug16_Error_formatter11_M_iteratorINS_14_Safe_iteratorINSt8__detail14_Node_iteratorINSt7__cxx1112basic_stringIcSt11char_traitsIcESaIcEEELb1ELb1EEENSt7__debug13unordered_setISA_St4hashISA_ESt8equal_toISA_ESaISA_EEESt20forward_iterator_tagEEEERS0_RKT_PKc, symObjAddr: 0x78F0, symBinAddr: 0x10000B7AC, symSize: 0x94 }
  - { offsetInCU: 0x52576, offset: 0x52576, size: 0x8, addend: 0x0, symName: __ZNSt8__detail14_Node_iteratorINSt7__cxx1112basic_stringIcSt11char_traitsIcESaIcEEELb1ELb1EEC1Ev, symObjAddr: 0x7860, symBinAddr: 0x10000B71C, symSize: 0x20 }
  - { offsetInCU: 0x5257E, offset: 0x5257E, size: 0x8, addend: 0x0, symName: __ZNK11__gnu_debug14_Safe_iteratorINSt8__detail14_Node_iteratorINSt7__cxx1112basic_stringIcSt11char_traitsIcESaIcEEELb1ELb1EEENSt7__debug13unordered_setIS8_St4hashIS8_ESt8equal_toIS8_ESaIS8_EEESt20forward_iterator_tagE20_M_value_initializedEv, symObjAddr: 0x7880, symBinAddr: 0x10000B73C, symSize: 0x70 }
  - { offsetInCU: 0x52545, offset: 0x52545, size: 0x8, addend: 0x0, symName: __ZNSt9__cxx199813unordered_setINSt7__cxx1112basic_stringIcSt11char_traitsIcESaIcEEESt4hashIS6_ESt8equal_toIS6_ESaIS6_EE3endEv, symObjAddr: 0x7844, symBinAddr: 0x10000B700, symSize: 0x1C }
  - { offsetInCU: 0x5254D, offset: 0x5254D, size: 0x8, addend: 0x0, symName: __ZNSt8__detail14_Node_iteratorINSt7__cxx1112basic_stringIcSt11char_traitsIcESaIcEEELb1ELb1EEC1Ev, symObjAddr: 0x7860, symBinAddr: 0x10000B71C, symSize: 0x20 }
  - { offsetInCU: 0x52576, offset: 0x52576, size: 0x8, addend: 0x0, symName: __ZNSt9__cxx199813unordered_setINSt7__cxx1112basic_stringIcSt11char_traitsIcESaIcEEESt4hashIS6_ESt8equal_toIS6_ESaIS6_EE4findERKS6_, symObjAddr: 0x7820, symBinAddr: 0x10000B6DC, symSize: 0x24 }
  - { offsetInCU: 0x5257E, offset: 0x5257E, size: 0x8, addend: 0x0, symName: __ZNSt9__cxx199813unordered_setINSt7__cxx1112basic_stringIcSt11char_traitsIcESaIcEEESt4hashIS6_ESt8equal_toIS6_ESaIS6_EE3endEv, symObjAddr: 0x7844, symBinAddr: 0x10000B700, symSize: 0x1C }
  - { offsetInCU: 0x525BC, offset: 0x525BC, size: 0x8, addend: 0x0, symName: __ZNSt10_HashtableINSt7__cxx1112basic_stringIcSt11char_traitsIcESaIcEEES5_SaIS5_ENSt8__detail9_IdentityESt8equal_toIS5_ESt4hashIS5_ENS7_18_Mod_range_hashingENS7_20_Default_ranged_hashENS7_20_Prime_rehash_policyENS7_17_Hashtable_traitsILb1ELb1ELb1EEEE9_M_assignIRKSI_NS7_10_AllocNodeISaINS7_10_Hash_nodeIS5_Lb1EEEEEEEEvOT_RKT0_, symObjAddr: 0x7650, symBinAddr: 0x10000B50C, symSize: 0x1D0 }
  - { offsetInCU: 0x525C4, offset: 0x525C4, size: 0x8, addend: 0x0, symName: __ZNSt9__cxx199813unordered_setINSt7__cxx1112basic_stringIcSt11char_traitsIcESaIcEEESt4hashIS6_ESt8equal_toIS6_ESaIS6_EE4findERKS6_, symObjAddr: 0x7820, symBinAddr: 0x10000B6DC, symSize: 0x24 }
  - { offsetInCU: 0x52777, offset: 0x52777, size: 0x8, addend: 0x0, symName: __ZNSt8__detail10_AllocNodeISaINS_10_Hash_nodeINSt7__cxx1112basic_stringIcSt11char_traitsIcESaIcEEELb1EEEEEC1ERNS_16_Hashtable_allocIS9_EE, symObjAddr: 0x762C, symBinAddr: 0x10000B4E8, symSize: 0x24 }
  - { offsetInCU: 0x5277F, offset: 0x5277F, size: 0x8, addend: 0x0, symName: __ZNSt10_HashtableINSt7__cxx1112basic_stringIcSt11char_traitsIcESaIcEEES5_SaIS5_ENSt8__detail9_IdentityESt8equal_toIS5_ESt4hashIS5_ENS7_18_Mod_range_hashingENS7_20_Default_ranged_hashENS7_20_Prime_rehash_policyENS7_17_Hashtable_traitsILb1ELb1ELb1EEEE9_M_assignIRKSI_NS7_10_AllocNodeISaINS7_10_Hash_nodeIS5_Lb1EEEEEEEEvOT_RKT0_, symObjAddr: 0x7650, symBinAddr: 0x10000B50C, symSize: 0x1D0 }
  - { offsetInCU: 0x527E0, offset: 0x527E0, size: 0x8, addend: 0x0, symName: __ZNSt8__detail16_Hashtable_allocISaINS_10_Hash_nodeINSt7__cxx1112basic_stringIcSt11char_traitsIcESaIcEEELb1EEEEEC2IS9_EEOT_, symObjAddr: 0x75FC, symBinAddr: 0x10000B4B8, symSize: 0x30 }
  - { offsetInCU: 0x527E8, offset: 0x527E8, size: 0x8, addend: 0x0, symName: __ZNSt8__detail10_AllocNodeISaINS_10_Hash_nodeINSt7__cxx1112basic_stringIcSt11char_traitsIcESaIcEEELb1EEEEEC1ERNS_16_Hashtable_allocIS9_EE, symObjAddr: 0x762C, symBinAddr: 0x10000B4E8, symSize: 0x24 }
  - { offsetInCU: 0x527CB, offset: 0x527CB, size: 0x8, addend: 0x0, symName: __ZNKSt8__detail16_Hashtable_allocISaINS_10_Hash_nodeINSt7__cxx1112basic_stringIcSt11char_traitsIcESaIcEEELb1EEEEE17_M_node_allocatorEv, symObjAddr: 0x75E0, symBinAddr: 0x10000B49C, symSize: 0x1C }
  - { offsetInCU: 0x527D3, offset: 0x527D3, size: 0x8, addend: 0x0, symName: __ZNSt8__detail16_Hashtable_allocISaINS_10_Hash_nodeINSt7__cxx1112basic_stringIcSt11char_traitsIcESaIcEEELb1EEEEEC2IS9_EEOT_, symObjAddr: 0x75FC, symBinAddr: 0x10000B4B8, symSize: 0x30 }
  - { offsetInCU: 0x527FC, offset: 0x527FC, size: 0x8, addend: 0x0, symName: __ZNKSt8__detail14_Node_iteratorISt4pairIKiNSt7__debug13unordered_setINSt7__cxx1112basic_stringIcSt11char_traitsIcESaIcEEESt4hashISA_ESt8equal_toISA_ESaISA_EEEELb0ELb0EEdeEv, symObjAddr: 0x75BC, symBinAddr: 0x10000B478, symSize: 0x24 }
  - { offsetInCU: 0x52804, offset: 0x52804, size: 0x8, addend: 0x0, symName: __ZNKSt8__detail16_Hashtable_allocISaINS_10_Hash_nodeINSt7__cxx1112basic_stringIcSt11char_traitsIcESaIcEEELb1EEEEE17_M_node_allocatorEv, symObjAddr: 0x75E0, symBinAddr: 0x10000B49C, symSize: 0x1C }
  - { offsetInCU: 0x5282D, offset: 0x5282D, size: 0x8, addend: 0x0, symName: __ZNK11__gnu_debug14_Safe_iteratorINSt8__detail14_Node_iteratorISt4pairIKiNSt7__debug13unordered_setINSt7__cxx1112basic_stringIcSt11char_traitsIcESaIcEEESt4hashISC_ESt8equal_toISC_ESaISC_EEEELb0ELb0EEENS5_13unordered_mapIiSI_SD_IiESF_IiESaISJ_EEESt20forward_iterator_tagE18_M_dereferenceableEv, symObjAddr: 0x7538, symBinAddr: 0x10000B3F4, symSize: 0x84 }
  - { offsetInCU: 0x52835, offset: 0x52835, size: 0x8, addend: 0x0, symName: __ZNKSt8__detail14_Node_iteratorISt4pairIKiNSt7__debug13unordered_setINSt7__cxx1112basic_stringIcSt11char_traitsIcESaIcEEESt4hashISA_ESt8equal_toISA_ESaISA_EEEELb0ELb0EEdeEv, symObjAddr: 0x75BC, symBinAddr: 0x10000B478, symSize: 0x24 }
  - { offsetInCU: 0x5285E, offset: 0x5285E, size: 0x8, addend: 0x0, symName: __ZNSt8__detail14_Node_iteratorISt4pairIKiNSt7__debug13unordered_setINSt7__cxx1112basic_stringIcSt11char_traitsIcESaIcEEESt4hashISA_ESt8equal_toISA_ESaISA_EEEELb0ELb0EEppEv, symObjAddr: 0x7518, symBinAddr: 0x10000B3D4, symSize: 0x20 }
  - { offsetInCU: 0x52866, offset: 0x52866, size: 0x8, addend: 0x0, symName: __ZNK11__gnu_debug14_Safe_iteratorINSt8__detail14_Node_iteratorISt4pairIKiNSt7__debug13unordered_setINSt7__cxx1112basic_stringIcSt11char_traitsIcESaIcEEESt4hashISC_ESt8equal_toISC_ESaISC_EEEELb0ELb0EEENS5_13unordered_mapIiSI_SD_IiESF_IiESaISJ_EEESt20forward_iterator_tagE18_M_dereferenceableEv, symObjAddr: 0x7538, symBinAddr: 0x10000B3F4, symSize: 0x84 }
  - { offsetInCU: 0x5288F, offset: 0x5288F, size: 0x8, addend: 0x0, symName: __ZN11__gnu_debug14_Safe_iteratorINSt8__detail14_Node_iteratorISt4pairIKiNSt7__debug13unordered_setINSt7__cxx1112basic_stringIcSt11char_traitsIcESaIcEEESt4hashISC_ESt8equal_toISC_ESaISC_EEEELb0ELb0EEENS5_13unordered_mapIiSI_SD_IiESF_IiESaISJ_EEESt20forward_iterator_tagE4baseEv, symObjAddr: 0x7504, symBinAddr: 0x10000B3C0, symSize: 0x14 }
  - { offsetInCU: 0x52897, offset: 0x52897, size: 0x8, addend: 0x0, symName: __ZNSt8__detail14_Node_iteratorISt4pairIKiNSt7__debug13unordered_setINSt7__cxx1112basic_stringIcSt11char_traitsIcESaIcEEESt4hashISA_ESt8equal_toISA_ESaISA_EEEELb0ELb0EEppEv, symObjAddr: 0x7518, symBinAddr: 0x10000B3D4, symSize: 0x20 }
  - { offsetInCU: 0x528C0, offset: 0x528C0, size: 0x8, addend: 0x0, symName: __ZNK11__gnu_debug14_Safe_iteratorINSt8__detail14_Node_iteratorISt4pairIKiNSt7__debug13unordered_setINSt7__cxx1112basic_stringIcSt11char_traitsIcESaIcEEESt4hashISC_ESt8equal_toISC_ESaISC_EEEELb0ELb0EEENS5_13unordered_mapIiSI_SD_IiESF_IiESaISJ_EEESt20forward_iterator_tagE16_M_incrementableEv, symObjAddr: 0x74A0, symBinAddr: 0x10000B35C, symSize: 0x64 }
  - { offsetInCU: 0x528C8, offset: 0x528C8, size: 0x8, addend: 0x0, symName: __ZN11__gnu_debug14_Safe_iteratorINSt8__detail14_Node_iteratorISt4pairIKiNSt7__debug13unordered_setINSt7__cxx1112basic_stringIcSt11char_traitsIcESaIcEEESt4hashISC_ESt8equal_toISC_ESaISC_EEEELb0ELb0EEENS5_13unordered_mapIiSI_SD_IiESF_IiESaISJ_EEESt20forward_iterator_tagE4baseEv, symObjAddr: 0x7504, symBinAddr: 0x10000B3C0, symSize: 0x14 }
  - { offsetInCU: 0x529AF, offset: 0x529AF, size: 0x8, addend: 0x0, symName: __ZNSt8__detailneERKNS_19_Node_iterator_baseISt4pairIKiNSt7__debug13unordered_setINSt7__cxx1112basic_stringIcSt11char_traitsIcESaIcEEESt4hashISA_ESt8equal_toISA_ESaISA_EEEELb0EEESK_, symObjAddr: 0x7470, symBinAddr: 0x10000B32C, symSize: 0x30 }
  - { offsetInCU: 0x529B7, offset: 0x529B7, size: 0x8, addend: 0x0, symName: __ZNK11__gnu_debug14_Safe_iteratorINSt8__detail14_Node_iteratorISt4pairIKiNSt7__debug13unordered_setINSt7__cxx1112basic_stringIcSt11char_traitsIcESaIcEEESt4hashISC_ESt8equal_toISC_ESaISC_EEEELb0ELb0EEENS5_13unordered_mapIiSI_SD_IiESF_IiESaISJ_EEESt20forward_iterator_tagE16_M_incrementableEv, symObjAddr: 0x74A0, symBinAddr: 0x10000B35C, symSize: 0x64 }
  - { offsetInCU: 0x52951, offset: 0x52951, size: 0x8, addend: 0x0, symName: __ZNSt9__cxx199813unordered_mapIiNSt7__debug13unordered_setINSt7__cxx1112basic_stringIcSt11char_traitsIcESaIcEEESt4hashIS8_ESt8equal_toIS8_ESaIS8_EEES9_IiESB_IiESaISt4pairIKiSE_EEE5beginEv, symObjAddr: 0x7454, symBinAddr: 0x10000B310, symSize: 0x1C }
  - { offsetInCU: 0x52959, offset: 0x52959, size: 0x8, addend: 0x0, symName: __ZNSt8__detailneERKNS_19_Node_iterator_baseISt4pairIKiNSt7__debug13unordered_setINSt7__cxx1112basic_stringIcSt11char_traitsIcESaIcEEESt4hashISA_ESt8equal_toISA_ESaISA_EEEELb0EEESK_, symObjAddr: 0x7470, symBinAddr: 0x10000B32C, symSize: 0x30 }
  - { offsetInCU: 0x52AD7, offset: 0x52AD7, size: 0x8, addend: 0x0, symName: __ZNSt4pairIN11__gnu_debug14_Safe_iteratorINSt8__detail14_Node_iteratorINSt7__cxx1112basic_stringIcSt11char_traitsIcESaIcEEELb1ELb1EEENSt7__debug13unordered_setIS9_St4hashIS9_ESt8equal_toIS9_ESaIS9_EEESt20forward_iterator_tagEEbEC1ISK_bLb1EEERKSK_RKb, symObjAddr: 0x7418, symBinAddr: 0x10000B2D4, symSize: 0x3C }
  - { offsetInCU: 0x52ADF, offset: 0x52ADF, size: 0x8, addend: 0x0, symName: __ZNSt9__cxx199813unordered_mapIiNSt7__debug13unordered_setINSt7__cxx1112basic_stringIcSt11char_traitsIcESaIcEEESt4hashIS8_ESt8equal_toIS8_ESaIS8_EEES9_IiESB_IiESaISt4pairIKiSE_EEE5beginEv, symObjAddr: 0x7454, symBinAddr: 0x10000B310, symSize: 0x1C }
  - { offsetInCU: 0x52B7A, offset: 0x52B7A, size: 0x8, addend: 0x0, symName: __ZN11__gnu_debug14_Safe_iteratorINSt8__detail14_Node_iteratorINSt7__cxx1112basic_stringIcSt11char_traitsIcESaIcEEELb1ELb1EEENSt7__debug13unordered_setIS8_St4hashIS8_ESt8equal_toIS8_ESaIS8_EEESt20forward_iterator_tagEC1ES9_PKNS_19_Safe_sequence_baseE, symObjAddr: 0x73C4, symBinAddr: 0x10000B280, symSize: 0x54 }
  - { offsetInCU: 0x52B82, offset: 0x52B82, size: 0x8, addend: 0x0, symName: __ZNSt4pairIN11__gnu_debug14_Safe_iteratorINSt8__detail14_Node_iteratorINSt7__cxx1112basic_stringIcSt11char_traitsIcESaIcEEELb1ELb1EEENSt7__debug13unordered_setIS9_St4hashIS9_ESt8equal_toIS9_ESaIS9_EEESt20forward_iterator_tagEEbEC1ISK_bLb1EEERKSK_RKb, symObjAddr: 0x7418, symBinAddr: 0x10000B2D4, symSize: 0x3C }
  - { offsetInCU: 0x52ACA, offset: 0x52ACA, size: 0x8, addend: 0x0, symName: __ZNSt7__debug13unordered_setINSt7__cxx1112basic_stringIcSt11char_traitsIcESaIcEEESt4hashIS6_ESt8equal_toIS6_ESaIS6_EE17_M_check_rehashedEm, symObjAddr: 0x7374, symBinAddr: 0x10000B230, symSize: 0x50 }
  - { offsetInCU: 0x52AD2, offset: 0x52AD2, size: 0x8, addend: 0x0, symName: __ZN11__gnu_debug14_Safe_iteratorINSt8__detail14_Node_iteratorINSt7__cxx1112basic_stringIcSt11char_traitsIcESaIcEEELb1ELb1EEENSt7__debug13unordered_setIS8_St4hashIS8_ESt8equal_toIS8_ESaIS8_EEESt20forward_iterator_tagEC1ES9_PKNS_19_Safe_sequence_baseE, symObjAddr: 0x73C4, symBinAddr: 0x10000B280, symSize: 0x54 }
  - { offsetInCU: 0x52B10, offset: 0x52B10, size: 0x8, addend: 0x0, symName: __ZNSt9__cxx199813unordered_setINSt7__cxx1112basic_stringIcSt11char_traitsIcESaIcEEESt4hashIS6_ESt8equal_toIS6_ESaIS6_EE6insertERKS6_, symObjAddr: 0x7350, symBinAddr: 0x10000B20C, symSize: 0x24 }
  - { offsetInCU: 0x52B18, offset: 0x52B18, size: 0x8, addend: 0x0, symName: __ZNSt7__debug13unordered_setINSt7__cxx1112basic_stringIcSt11char_traitsIcESaIcEEESt4hashIS6_ESt8equal_toIS6_ESaIS6_EE17_M_check_rehashedEm, symObjAddr: 0x7374, symBinAddr: 0x10000B230, symSize: 0x50 }
  - { offsetInCU: 0x52B56, offset: 0x52B56, size: 0x8, addend: 0x0, symName: __ZNKSt9__cxx199813unordered_setINSt7__cxx1112basic_stringIcSt11char_traitsIcESaIcEEESt4hashIS6_ESt8equal_toIS6_ESaIS6_EE12bucket_countEv, symObjAddr: 0x7334, symBinAddr: 0x10000B1F0, symSize: 0x1C }
  - { offsetInCU: 0x52B5E, offset: 0x52B5E, size: 0x8, addend: 0x0, symName: __ZNSt9__cxx199813unordered_setINSt7__cxx1112basic_stringIcSt11char_traitsIcESaIcEEESt4hashIS6_ESt8equal_toIS6_ESaIS6_EE6insertERKS6_, symObjAddr: 0x7350, symBinAddr: 0x10000B20C, symSize: 0x24 }
  - { offsetInCU: 0x52B87, offset: 0x52B87, size: 0x8, addend: 0x0, symName: __ZNSt10_HashtableINSt7__cxx1112basic_stringIcSt11char_traitsIcESaIcEEES5_SaIS5_ENSt8__detail9_IdentityESt8equal_toIS5_ESt4hashIS5_ENS7_18_Mod_range_hashingENS7_20_Default_ranged_hashENS7_20_Prime_rehash_policyENS7_17_Hashtable_traitsILb1ELb1ELb1EEEE14_M_move_assignEOSI_St17integral_constantIbLb1EE, symObjAddr: 0x71E0, symBinAddr: 0x10000B09C, symSize: 0x154 }
  - { offsetInCU: 0x52B8F, offset: 0x52B8F, size: 0x8, addend: 0x0, symName: __ZNKSt9__cxx199813unordered_setINSt7__cxx1112basic_stringIcSt11char_traitsIcESaIcEEESt4hashIS6_ESt8equal_toIS6_ESaIS6_EE12bucket_countEv, symObjAddr: 0x7334, symBinAddr: 0x10000B1F0, symSize: 0x1C }
  - { offsetInCU: 0x52EE4, offset: 0x52EE4, size: 0x8, addend: 0x0, symName: __ZSt4moveIRSt10_HashtableINSt7__cxx1112basic_stringIcSt11char_traitsIcESaIcEEES6_SaIS6_ENSt8__detail9_IdentityESt8equal_toIS6_ESt4hashIS6_ENS8_18_Mod_range_hashingENS8_20_Default_ranged_hashENS8_20_Prime_rehash_policyENS8_17_Hashtable_traitsILb1ELb1ELb1EEEEEONSt16remove_referenceIT_E4typeEOSM_, symObjAddr: 0x71CC, symBinAddr: 0x10000B088, symSize: 0x14 }
  - { offsetInCU: 0x52EEC, offset: 0x52EEC, size: 0x8, addend: 0x0, symName: __ZNSt10_HashtableINSt7__cxx1112basic_stringIcSt11char_traitsIcESaIcEEES5_SaIS5_ENSt8__detail9_IdentityESt8equal_toIS5_ESt4hashIS5_ENS7_18_Mod_range_hashingENS7_20_Default_ranged_hashENS7_20_Prime_rehash_policyENS7_17_Hashtable_traitsILb1ELb1ELb1EEEE14_M_move_assignEOSI_St17integral_constantIbLb1EE, symObjAddr: 0x71E0, symBinAddr: 0x10000B09C, symSize: 0x154 }
  - { offsetInCU: 0x52C65, offset: 0x52C65, size: 0x8, addend: 0x0, symName: __ZN11__gnu_debug25_Safe_unordered_containerINSt7__debug13unordered_setINSt7__cxx1112basic_stringIcSt11char_traitsIcESaIcEEESt4hashIS8_ESt8equal_toIS8_ESaIS8_EEEE17_M_invalidate_allEv, symObjAddr: 0x7188, symBinAddr: 0x10000B044, symSize: 0x44 }
  - { offsetInCU: 0x52C6D, offset: 0x52C6D, size: 0x8, addend: 0x0, symName: __ZSt4moveIRSt10_HashtableINSt7__cxx1112basic_stringIcSt11char_traitsIcESaIcEEES6_SaIS6_ENSt8__detail9_IdentityESt8equal_toIS6_ESt4hashIS6_ENS8_18_Mod_range_hashingENS8_20_Default_ranged_hashENS8_20_Prime_rehash_policyENS8_17_Hashtable_traitsILb1ELb1ELb1EEEEEONSt16remove_referenceIT_E4typeEOSM_, symObjAddr: 0x71CC, symBinAddr: 0x10000B088, symSize: 0x14 }
  - { offsetInCU: 0x52DDD, offset: 0x52DDD, size: 0x8, addend: 0x0, symName: __ZZN11__gnu_debug25_Safe_unordered_containerINSt7__debug13unordered_setINSt7__cxx1112basic_stringIcSt11char_traitsIcESaIcEEESt4hashIS8_ESt8equal_toIS8_ESaIS8_EEEE17_M_invalidate_allEvENKUlNSt8__detail20_Node_const_iteratorIS8_Lb1ELb1EEEE_clESI_, symObjAddr: 0x7160, symBinAddr: 0x10000B01C, symSize: 0x28 }
  - { offsetInCU: 0x52DE5, offset: 0x52DE5, size: 0x8, addend: 0x0, symName: __ZN11__gnu_debug25_Safe_unordered_containerINSt7__debug13unordered_setINSt7__cxx1112basic_stringIcSt11char_traitsIcESaIcEEESt4hashIS8_ESt8equal_toIS8_ESaIS8_EEEE17_M_invalidate_allEv, symObjAddr: 0x7188, symBinAddr: 0x10000B044, symSize: 0x44 }
  - { offsetInCU: 0x52EFF, offset: 0x52EFF, size: 0x8, addend: 0x0, symName: __ZSt11__addressofIN11__gnu_debug15_Safe_containerINSt7__debug13unordered_setINSt7__cxx1112basic_stringIcSt11char_traitsIcESaIcEEESt4hashIS9_ESt8equal_toIS9_ESaIS9_EEESE_NS0_25_Safe_unordered_containerELb1EEEEPT_RSI_, symObjAddr: 0x714C, symBinAddr: 0x10000B008, symSize: 0x14 }
  - { offsetInCU: 0x52F07, offset: 0x52F07, size: 0x8, addend: 0x0, symName: __ZZN11__gnu_debug25_Safe_unordered_containerINSt7__debug13unordered_setINSt7__cxx1112basic_stringIcSt11char_traitsIcESaIcEEESt4hashIS8_ESt8equal_toIS8_ESaIS8_EEEE17_M_invalidate_allEvENKUlNSt8__detail20_Node_const_iteratorIS8_Lb1ELb1EEEE_clESI_, symObjAddr: 0x7160, symBinAddr: 0x10000B01C, symSize: 0x28 }
  - { offsetInCU: 0x52DA3, offset: 0x52DA3, size: 0x8, addend: 0x0, symName: __ZNSt10_HashtableINSt7__cxx1112basic_stringIcSt11char_traitsIcESaIcEEES5_SaIS5_ENSt8__detail9_IdentityESt8equal_toIS5_ESt4hashIS5_ENS7_18_Mod_range_hashingENS7_20_Default_ranged_hashENS7_20_Prime_rehash_policyENS7_17_Hashtable_traitsILb1ELb1ELb1EEEE21_M_deallocate_bucketsEv, symObjAddr: 0x7118, symBinAddr: 0x10000AFD4, symSize: 0x34 }
  - { offsetInCU: 0x52DAB, offset: 0x52DAB, size: 0x8, addend: 0x0, symName: __ZSt11__addressofIN11__gnu_debug15_Safe_containerINSt7__debug13unordered_setINSt7__cxx1112basic_stringIcSt11char_traitsIcESaIcEEESt4hashIS9_ESt8equal_toIS9_ESaIS9_EEESE_NS0_25_Safe_unordered_containerELb1EEEEPT_RSI_, symObjAddr: 0x714C, symBinAddr: 0x10000B008, symSize: 0x14 }
  - { offsetInCU: 0x52DD4, offset: 0x52DD4, size: 0x8, addend: 0x0, symName: __ZNSt10_HashtableINSt7__cxx1112basic_stringIcSt11char_traitsIcESaIcEEES5_SaIS5_ENSt8__detail9_IdentityESt8equal_toIS5_ESt4hashIS5_ENS7_18_Mod_range_hashingENS7_20_Default_ranged_hashENS7_20_Prime_rehash_policyENS7_17_Hashtable_traitsILb1ELb1ELb1EEEE5clearEv, symObjAddr: 0x70B4, symBinAddr: 0x10000AF70, symSize: 0x64 }
  - { offsetInCU: 0x52DDC, offset: 0x52DDC, size: 0x8, addend: 0x0, symName: __ZNSt10_HashtableINSt7__cxx1112basic_stringIcSt11char_traitsIcESaIcEEES5_SaIS5_ENSt8__detail9_IdentityESt8equal_toIS5_ESt4hashIS5_ENS7_18_Mod_range_hashingENS7_20_Default_ranged_hashENS7_20_Prime_rehash_policyENS7_17_Hashtable_traitsILb1ELb1ELb1EEEE21_M_deallocate_bucketsEv, symObjAddr: 0x7118, symBinAddr: 0x10000AFD4, symSize: 0x34 }
  - { offsetInCU: 0x52E9F, offset: 0x52E9F, size: 0x8, addend: 0x0, symName: __ZNSt15__new_allocatorINSt8__detail10_Hash_nodeINSt7__cxx1112basic_stringIcSt11char_traitsIcESaIcEEELb1EEEED2Ev, symObjAddr: 0x70A0, symBinAddr: 0x10000AF5C, symSize: 0x14 }
  - { offsetInCU: 0x52EA7, offset: 0x52EA7, size: 0x8, addend: 0x0, symName: __ZNSt10_HashtableINSt7__cxx1112basic_stringIcSt11char_traitsIcESaIcEEES5_SaIS5_ENSt8__detail9_IdentityESt8equal_toIS5_ESt4hashIS5_ENS7_18_Mod_range_hashingENS7_20_Default_ranged_hashENS7_20_Prime_rehash_policyENS7_17_Hashtable_traitsILb1ELb1ELb1EEEE5clearEv, symObjAddr: 0x70B4, symBinAddr: 0x10000AF70, symSize: 0x64 }
  - { offsetInCU: 0x52E7A, offset: 0x52E7A, size: 0x8, addend: 0x0, symName: __ZNSt8__detail9_Map_baseIiSt4pairIKiNSt7__debug13unordered_setINSt7__cxx1112basic_stringIcSt11char_traitsIcESaIcEEESt4hashISA_ESt8equal_toISA_ESaISA_EEEESaISH_ENS_10_Select1stESD_IiESB_IiENS_18_Mod_range_hashingENS_20_Default_ranged_hashENS_20_Prime_rehash_policyENS_17_Hashtable_traitsILb0ELb0ELb1EEELb1EEixEOi, symObjAddr: 0x6F88, symBinAddr: 0x10000AE44, symSize: 0x118 }
  - { offsetInCU: 0x52E82, offset: 0x52E82, size: 0x8, addend: 0x0, symName: __ZNSt15__new_allocatorINSt8__detail10_Hash_nodeINSt7__cxx1112basic_stringIcSt11char_traitsIcESaIcEEELb1EEEED2Ev, symObjAddr: 0x70A0, symBinAddr: 0x10000AF5C, symSize: 0x14 }
  - { offsetInCU: 0x52F9F, offset: 0x52F9F, size: 0x8, addend: 0x0, symName: __ZSt4moveIRiEONSt16remove_referenceIT_E4typeEOS2_, symObjAddr: 0x6F74, symBinAddr: 0x10000AE30, symSize: 0x14 }
  - { offsetInCU: 0x52FA7, offset: 0x52FA7, size: 0x8, addend: 0x0, symName: __ZNSt8__detail9_Map_baseIiSt4pairIKiNSt7__debug13unordered_setINSt7__cxx1112basic_stringIcSt11char_traitsIcESaIcEEESt4hashISA_ESt8equal_toISA_ESaISA_EEEESaISH_ENS_10_Select1stESD_IiESB_IiENS_18_Mod_range_hashingENS_20_Default_ranged_hashENS_20_Prime_rehash_policyENS_17_Hashtable_traitsILb0ELb0ELb1EEELb1EEixEOi, symObjAddr: 0x6F88, symBinAddr: 0x10000AE44, symSize: 0x118 }
  - { offsetInCU: 0x53072, offset: 0x53072, size: 0x8, addend: 0x0, symName: __ZNSt8__detaileqERKNS_19_Node_iterator_baseISt4pairIKiNSt7__debug13unordered_setINSt7__cxx1112basic_stringIcSt11char_traitsIcESaIcEEESt4hashISA_ESt8equal_toISA_ESaISA_EEEELb0EEESK_, symObjAddr: 0x6F44, symBinAddr: 0x10000AE00, symSize: 0x30 }
  - { offsetInCU: 0x5307A, offset: 0x5307A, size: 0x8, addend: 0x0, symName: __ZSt4moveIRiEONSt16remove_referenceIT_E4typeEOS2_, symObjAddr: 0x6F74, symBinAddr: 0x10000AE30, symSize: 0x14 }
  - { offsetInCU: 0x5300A, offset: 0x5300A, size: 0x8, addend: 0x0, symName: __ZNK11__gnu_debug14_Safe_iteratorINSt8__detail14_Node_iteratorISt4pairIKiNSt7__debug13unordered_setINSt7__cxx1112basic_stringIcSt11char_traitsIcESaIcEEESt4hashISC_ESt8equal_toISC_ESaISC_EEEELb0ELb0EEENS5_13unordered_mapIiSI_SD_IiESF_IiESaISJ_EEESt20forward_iterator_tagE4baseEv, symObjAddr: 0x6F30, symBinAddr: 0x10000ADEC, symSize: 0x14 }
  - { offsetInCU: 0x53012, offset: 0x53012, size: 0x8, addend: 0x0, symName: __ZNSt8__detaileqERKNS_19_Node_iterator_baseISt4pairIKiNSt7__debug13unordered_setINSt7__cxx1112basic_stringIcSt11char_traitsIcESaIcEEESt4hashISA_ESt8equal_toISA_ESaISA_EEEELb0EEESK_, symObjAddr: 0x6F44, symBinAddr: 0x10000AE00, symSize: 0x30 }
  - { offsetInCU: 0x5303B, offset: 0x5303B, size: 0x8, addend: 0x0, symName: __ZN11__gnu_debug16_Error_formatter11_M_iteratorINS_14_Safe_iteratorINSt8__detail14_Node_iteratorISt4pairIKiNSt7__debug13unordered_setINSt7__cxx1112basic_stringIcSt11char_traitsIcESaIcEEESt4hashISE_ESt8equal_toISE_ESaISE_EEEELb0ELb0EEENS7_13unordered_mapIiSK_SF_IiESH_IiESaISL_EEESt20forward_iterator_tagEEEERS0_RKT_PKc, symObjAddr: 0x6E9C, symBinAddr: 0x10000AD58, symSize: 0x94 }
  - { offsetInCU: 0x53043, offset: 0x53043, size: 0x8, addend: 0x0, symName: __ZNK11__gnu_debug14_Safe_iteratorINSt8__detail14_Node_iteratorISt4pairIKiNSt7__debug13unordered_setINSt7__cxx1112basic_stringIcSt11char_traitsIcESaIcEEESt4hashISC_ESt8equal_toISC_ESaISC_EEEELb0ELb0EEENS5_13unordered_mapIiSI_SD_IiESF_IiESaISJ_EEESt20forward_iterator_tagE4baseEv, symObjAddr: 0x6F30, symBinAddr: 0x10000ADEC, symSize: 0x14 }
  - { offsetInCU: 0x530A6, offset: 0x530A6, size: 0x8, addend: 0x0, symName: __ZNK11__gnu_debug14_Safe_iteratorINSt8__detail14_Node_iteratorISt4pairIKiNSt7__debug13unordered_setINSt7__cxx1112basic_stringIcSt11char_traitsIcESaIcEEESt4hashISC_ESt8equal_toISC_ESaISC_EEEELb0ELb0EEENS5_13unordered_mapIiSI_SD_IiESF_IiESaISJ_EEESt20forward_iterator_tagE20_M_value_initializedEv, symObjAddr: 0x6E2C, symBinAddr: 0x10000ACE8, symSize: 0x70 }
  - { offsetInCU: 0x530AE, offset: 0x530AE, size: 0x8, addend: 0x0, symName: __ZN11__gnu_debug16_Error_formatter11_M_iteratorINS_14_Safe_iteratorINSt8__detail14_Node_iteratorISt4pairIKiNSt7__debug13unordered_setINSt7__cxx1112basic_stringIcSt11char_traitsIcESaIcEEESt4hashISE_ESt8equal_toISE_ESaISE_EEEELb0ELb0EEENS7_13unordered_mapIiSK_SF_IiESH_IiESaISL_EEESt20forward_iterator_tagEEEERS0_RKT_PKc, symObjAddr: 0x6E9C, symBinAddr: 0x10000AD58, symSize: 0x94 }
  - { offsetInCU: 0x5319E, offset: 0x5319E, size: 0x8, addend: 0x0, symName: __ZNSt8__detail14_Node_iteratorISt4pairIKiNSt7__debug13unordered_setINSt7__cxx1112basic_stringIcSt11char_traitsIcESaIcEEESt4hashISA_ESt8equal_toISA_ESaISA_EEEELb0ELb0EEC1Ev, symObjAddr: 0x6E0C, symBinAddr: 0x10000ACC8, symSize: 0x20 }
  - { offsetInCU: 0x531A6, offset: 0x531A6, size: 0x8, addend: 0x0, symName: __ZNK11__gnu_debug14_Safe_iteratorINSt8__detail14_Node_iteratorISt4pairIKiNSt7__debug13unordered_setINSt7__cxx1112basic_stringIcSt11char_traitsIcESaIcEEESt4hashISC_ESt8equal_toISC_ESaISC_EEEELb0ELb0EEENS5_13unordered_mapIiSI_SD_IiESF_IiESaISJ_EEESt20forward_iterator_tagE20_M_value_initializedEv, symObjAddr: 0x6E2C, symBinAddr: 0x10000ACE8, symSize: 0x70 }
  - { offsetInCU: 0x53122, offset: 0x53122, size: 0x8, addend: 0x0, symName: __ZNSt9__cxx199813unordered_mapIiNSt7__debug13unordered_setINSt7__cxx1112basic_stringIcSt11char_traitsIcESaIcEEESt4hashIS8_ESt8equal_toIS8_ESaIS8_EEES9_IiESB_IiESaISt4pairIKiSE_EEE3endEv, symObjAddr: 0x6DF0, symBinAddr: 0x10000ACAC, symSize: 0x1C }
  - { offsetInCU: 0x5312A, offset: 0x5312A, size: 0x8, addend: 0x0, symName: __ZNSt8__detail14_Node_iteratorISt4pairIKiNSt7__debug13unordered_setINSt7__cxx1112basic_stringIcSt11char_traitsIcESaIcEEESt4hashISA_ESt8equal_toISA_ESaISA_EEEELb0ELb0EEC1Ev, symObjAddr: 0x6E0C, symBinAddr: 0x10000ACC8, symSize: 0x20 }
  - { offsetInCU: 0x532BF, offset: 0x532BF, size: 0x8, addend: 0x0, symName: __ZN11__gnu_debug14_Safe_iteratorINSt8__detail14_Node_iteratorISt4pairIKiNSt7__debug13unordered_setINSt7__cxx1112basic_stringIcSt11char_traitsIcESaIcEEESt4hashISC_ESt8equal_toISC_ESaISC_EEEELb0ELb0EEENS5_13unordered_mapIiSI_SD_IiESF_IiESaISJ_EEESt20forward_iterator_tagEC1ESK_PKNS_19_Safe_sequence_baseE, symObjAddr: 0x6D9C, symBinAddr: 0x10000AC58, symSize: 0x54 }
  - { offsetInCU: 0x532C7, offset: 0x532C7, size: 0x8, addend: 0x0, symName: __ZNSt9__cxx199813unordered_mapIiNSt7__debug13unordered_setINSt7__cxx1112basic_stringIcSt11char_traitsIcESaIcEEESt4hashIS8_ESt8equal_toIS8_ESaIS8_EEES9_IiESB_IiESaISt4pairIKiSE_EEE3endEv, symObjAddr: 0x6DF0, symBinAddr: 0x10000ACAC, symSize: 0x1C }
  - { offsetInCU: 0x531DA, offset: 0x531DA, size: 0x8, addend: 0x0, symName: __ZNSt9__cxx199813unordered_mapIiNSt7__debug13unordered_setINSt7__cxx1112basic_stringIcSt11char_traitsIcESaIcEEESt4hashIS8_ESt8equal_toIS8_ESaIS8_EEES9_IiESB_IiESaISt4pairIKiSE_EEE4findERSI_, symObjAddr: 0x6D78, symBinAddr: 0x10000AC34, symSize: 0x24 }
  - { offsetInCU: 0x531E2, offset: 0x531E2, size: 0x8, addend: 0x0, symName: __ZN11__gnu_debug14_Safe_iteratorINSt8__detail14_Node_iteratorISt4pairIKiNSt7__debug13unordered_setINSt7__cxx1112basic_stringIcSt11char_traitsIcESaIcEEESt4hashISC_ESt8equal_toISC_ESaISC_EEEELb0ELb0EEENS5_13unordered_mapIiSI_SD_IiESF_IiESaISJ_EEESt20forward_iterator_tagEC1ESK_PKNS_19_Safe_sequence_baseE, symObjAddr: 0x6D9C, symBinAddr: 0x10000AC58, symSize: 0x54 }
  - { offsetInCU: 0x53220, offset: 0x53220, size: 0x8, addend: 0x0, symName: __ZNK9__gnu_cxx17__normal_iteratorIPNSt7__cxx1112basic_stringIcSt11char_traitsIcESaIcEEENSt9__cxx19986vectorIS6_SaIS6_EEEEdeEv, symObjAddr: 0x6D60, symBinAddr: 0x10000AC1C, symSize: 0x18 }
  - { offsetInCU: 0x53228, offset: 0x53228, size: 0x8, addend: 0x0, symName: __ZNSt9__cxx199813unordered_mapIiNSt7__debug13unordered_setINSt7__cxx1112basic_stringIcSt11char_traitsIcESaIcEEESt4hashIS8_ESt8equal_toIS8_ESaIS8_EEES9_IiESB_IiESaISt4pairIKiSE_EEE4findERSI_, symObjAddr: 0x6D78, symBinAddr: 0x10000AC34, symSize: 0x24 }
  - { offsetInCU: 0x53251, offset: 0x53251, size: 0x8, addend: 0x0, symName: __ZN11__gnu_debug16_Error_formatter11_M_iteratorINS_14_Safe_iteratorIN9__gnu_cxx17__normal_iteratorIPNSt7__cxx1112basic_stringIcSt11char_traitsIcESaIcEEENSt9__cxx19986vectorISA_SaISA_EEEEENSt7__debug6vectorISA_SE_EESt20forward_iterator_tagEEEERS0_RKT_PKc, symObjAddr: 0x6CCC, symBinAddr: 0x10000AB88, symSize: 0x94 }
  - { offsetInCU: 0x53259, offset: 0x53259, size: 0x8, addend: 0x0, symName: __ZNK9__gnu_cxx17__normal_iteratorIPNSt7__cxx1112basic_stringIcSt11char_traitsIcESaIcEEENSt9__cxx19986vectorIS6_SaIS6_EEEEdeEv, symObjAddr: 0x6D60, symBinAddr: 0x10000AC1C, symSize: 0x18 }
  - { offsetInCU: 0x532BC, offset: 0x532BC, size: 0x8, addend: 0x0, symName: __ZNK11__gnu_debug14_Safe_iteratorIN9__gnu_cxx17__normal_iteratorIPNSt7__cxx1112basic_stringIcSt11char_traitsIcESaIcEEENSt9__cxx19986vectorIS8_SaIS8_EEEEENSt7__debug6vectorIS8_SC_EESt20forward_iterator_tagE18_M_dereferenceableEv, symObjAddr: 0x6C48, symBinAddr: 0x10000AB04, symSize: 0x84 }
  - { offsetInCU: 0x532C4, offset: 0x532C4, size: 0x8, addend: 0x0, symName: __ZN11__gnu_debug16_Error_formatter11_M_iteratorINS_14_Safe_iteratorIN9__gnu_cxx17__normal_iteratorIPNSt7__cxx1112basic_stringIcSt11char_traitsIcESaIcEEENSt9__cxx19986vectorISA_SaISA_EEEEENSt7__debug6vectorISA_SE_EESt20forward_iterator_tagEEEERS0_RKT_PKc, symObjAddr: 0x6CCC, symBinAddr: 0x10000AB88, symSize: 0x94 }
  - { offsetInCU: 0x532ED, offset: 0x532ED, size: 0x8, addend: 0x0, symName: __ZN11__gnu_debug14_Safe_iteratorIN9__gnu_cxx17__normal_iteratorIPNSt7__cxx1112basic_stringIcSt11char_traitsIcESaIcEEENSt9__cxx19986vectorIS8_SaIS8_EEEEENSt7__debug6vectorIS8_SC_EESt26bidirectional_iterator_tagEppEv, symObjAddr: 0x6C28, symBinAddr: 0x10000AAE4, symSize: 0x20 }
  - { offsetInCU: 0x532F5, offset: 0x532F5, size: 0x8, addend: 0x0, symName: __ZNK11__gnu_debug14_Safe_iteratorIN9__gnu_cxx17__normal_iteratorIPNSt7__cxx1112basic_stringIcSt11char_traitsIcESaIcEEENSt9__cxx19986vectorIS8_SaIS8_EEEEENSt7__debug6vectorIS8_SC_EESt20forward_iterator_tagE18_M_dereferenceableEv, symObjAddr: 0x6C48, symBinAddr: 0x10000AB04, symSize: 0x84 }
  - { offsetInCU: 0x5344D, offset: 0x5344D, size: 0x8, addend: 0x0, symName: __ZN9__gnu_cxxneIPNSt7__cxx1112basic_stringIcSt11char_traitsIcESaIcEEENSt9__cxx19986vectorIS6_SaIS6_EEEEEbRKNS_17__normal_iteratorIT_T0_EESH_, symObjAddr: 0x6BE4, symBinAddr: 0x10000AAA0, symSize: 0x44 }
  - { offsetInCU: 0x53455, offset: 0x53455, size: 0x8, addend: 0x0, symName: __ZN11__gnu_debug14_Safe_iteratorIN9__gnu_cxx17__normal_iteratorIPNSt7__cxx1112basic_stringIcSt11char_traitsIcESaIcEEENSt9__cxx19986vectorIS8_SaIS8_EEEEENSt7__debug6vectorIS8_SC_EESt26bidirectional_iterator_tagEppEv, symObjAddr: 0x6C28, symBinAddr: 0x10000AAE4, symSize: 0x20 }
  - { offsetInCU: 0x5338E, offset: 0x5338E, size: 0x8, addend: 0x0, symName: __ZNK11__gnu_debug14_Safe_iteratorIN9__gnu_cxx17__normal_iteratorIPNSt7__cxx1112basic_stringIcSt11char_traitsIcESaIcEEENSt9__cxx19986vectorIS8_SaIS8_EEEEENSt7__debug6vectorIS8_SC_EESt20forward_iterator_tagE4baseEv, symObjAddr: 0x6BD0, symBinAddr: 0x10000AA8C, symSize: 0x14 }
  - { offsetInCU: 0x53396, offset: 0x53396, size: 0x8, addend: 0x0, symName: __ZN9__gnu_cxxneIPNSt7__cxx1112basic_stringIcSt11char_traitsIcESaIcEEENSt9__cxx19986vectorIS6_SaIS6_EEEEEbRKNS_17__normal_iteratorIT_T0_EESH_, symObjAddr: 0x6BE4, symBinAddr: 0x10000AAA0, symSize: 0x44 }
  - { offsetInCU: 0x533BF, offset: 0x533BF, size: 0x8, addend: 0x0, symName: __ZN11__gnu_debug16_Error_formatter11_M_iteratorINS_14_Safe_iteratorIN9__gnu_cxx17__normal_iteratorIPNSt7__cxx1112basic_stringIcSt11char_traitsIcESaIcEEENSt9__cxx19986vectorISA_SaISA_EEEEENSt7__debug6vectorISA_SE_EESt26random_access_iterator_tagEEEERS0_RKT_PKc, symObjAddr: 0x6B3C, symBinAddr: 0x10000A9F8, symSize: 0x94 }
  - { offsetInCU: 0x533C7, offset: 0x533C7, size: 0x8, addend: 0x0, symName: __ZNK11__gnu_debug14_Safe_iteratorIN9__gnu_cxx17__normal_iteratorIPNSt7__cxx1112basic_stringIcSt11char_traitsIcESaIcEEENSt9__cxx19986vectorIS8_SaIS8_EEEEENSt7__debug6vectorIS8_SC_EESt20forward_iterator_tagE4baseEv, symObjAddr: 0x6BD0, symBinAddr: 0x10000AA8C, symSize: 0x14 }
  - { offsetInCU: 0x5342A, offset: 0x5342A, size: 0x8, addend: 0x0, symName: __ZNK11__gnu_debug14_Safe_iteratorIN9__gnu_cxx17__normal_iteratorIPNSt7__cxx1112basic_stringIcSt11char_traitsIcESaIcEEENSt9__cxx19986vectorIS8_SaIS8_EEEEENSt7__debug6vectorIS8_SC_EESt20forward_iterator_tagE20_M_value_initializedEv, symObjAddr: 0x6AD0, symBinAddr: 0x10000A98C, symSize: 0x6C }
  - { offsetInCU: 0x53432, offset: 0x53432, size: 0x8, addend: 0x0, symName: __ZN11__gnu_debug16_Error_formatter11_M_iteratorINS_14_Safe_iteratorIN9__gnu_cxx17__normal_iteratorIPNSt7__cxx1112basic_stringIcSt11char_traitsIcESaIcEEENSt9__cxx19986vectorISA_SaISA_EEEEENSt7__debug6vectorISA_SE_EESt26random_access_iterator_tagEEEERS0_RKT_PKc, symObjAddr: 0x6B3C, symBinAddr: 0x10000A9F8, symSize: 0x94 }
  - { offsetInCU: 0x5345B, offset: 0x5345B, size: 0x8, addend: 0x0, symName: __ZNSt9__cxx19986vectorINSt7__cxx1112basic_stringIcSt11char_traitsIcESaIcEEESaIS6_EE3endEv, symObjAddr: 0x6AA8, symBinAddr: 0x10000A964, symSize: 0x28 }
  - { offsetInCU: 0x53463, offset: 0x53463, size: 0x8, addend: 0x0, symName: __ZNK11__gnu_debug14_Safe_iteratorIN9__gnu_cxx17__normal_iteratorIPNSt7__cxx1112basic_stringIcSt11char_traitsIcESaIcEEENSt9__cxx19986vectorIS8_SaIS8_EEEEENSt7__debug6vectorIS8_SC_EESt20forward_iterator_tagE20_M_value_initializedEv, symObjAddr: 0x6AD0, symBinAddr: 0x10000A98C, symSize: 0x6C }
  - { offsetInCU: 0x535BF, offset: 0x535BF, size: 0x8, addend: 0x0, symName: __ZN11__gnu_debug14_Safe_iteratorIN9__gnu_cxx17__normal_iteratorIPNSt7__cxx1112basic_stringIcSt11char_traitsIcESaIcEEENSt9__cxx19986vectorIS8_SaIS8_EEEEENSt7__debug6vectorIS8_SC_EESt26random_access_iterator_tagEC1ESE_PKNS_19_Safe_sequence_baseE, symObjAddr: 0x6A78, symBinAddr: 0x10000A934, symSize: 0x30 }
  - { offsetInCU: 0x535C7, offset: 0x535C7, size: 0x8, addend: 0x0, symName: __ZNSt9__cxx19986vectorINSt7__cxx1112basic_stringIcSt11char_traitsIcESaIcEEESaIS6_EE3endEv, symObjAddr: 0x6AA8, symBinAddr: 0x10000A964, symSize: 0x28 }
  - { offsetInCU: 0x53515, offset: 0x53515, size: 0x8, addend: 0x0, symName: __ZNSt9__cxx19986vectorINSt7__cxx1112basic_stringIcSt11char_traitsIcESaIcEEESaIS6_EE5beginEv, symObjAddr: 0x6A54, symBinAddr: 0x10000A910, symSize: 0x24 }
  - { offsetInCU: 0x5351D, offset: 0x5351D, size: 0x8, addend: 0x0, symName: __ZN11__gnu_debug14_Safe_iteratorIN9__gnu_cxx17__normal_iteratorIPNSt7__cxx1112basic_stringIcSt11char_traitsIcESaIcEEENSt9__cxx19986vectorIS8_SaIS8_EEEEENSt7__debug6vectorIS8_SC_EESt26random_access_iterator_tagEC1ESE_PKNS_19_Safe_sequence_baseE, symObjAddr: 0x6A78, symBinAddr: 0x10000A934, symSize: 0x30 }
  - { offsetInCU: 0x53546, offset: 0x53546, size: 0x8, addend: 0x0, symName: __ZNSt10_HashtableIiSt4pairIKiNSt7__debug13unordered_setINSt7__cxx1112basic_stringIcSt11char_traitsIcESaIcEEESt4hashIS9_ESt8equal_toIS9_ESaIS9_EEEESaISG_ENSt8__detail10_Select1stESC_IiESA_IiENSI_18_Mod_range_hashingENSI_20_Default_ranged_hashENSI_20_Prime_rehash_policyENSI_17_Hashtable_traitsILb0ELb0ELb1EEEE21_M_deallocate_bucketsEv, symObjAddr: 0x6A20, symBinAddr: 0x10000A8DC, symSize: 0x34 }
  - { offsetInCU: 0x5354E, offset: 0x5354E, size: 0x8, addend: 0x0, symName: __ZNSt9__cxx19986vectorINSt7__cxx1112basic_stringIcSt11char_traitsIcESaIcEEESaIS6_EE5beginEv, symObjAddr: 0x6A54, symBinAddr: 0x10000A910, symSize: 0x24 }
  - { offsetInCU: 0x53577, offset: 0x53577, size: 0x8, addend: 0x0, symName: __ZNSt10_HashtableIiSt4pairIKiNSt7__debug13unordered_setINSt7__cxx1112basic_stringIcSt11char_traitsIcESaIcEEESt4hashIS9_ESt8equal_toIS9_ESaIS9_EEEESaISG_ENSt8__detail10_Select1stESC_IiESA_IiENSI_18_Mod_range_hashingENSI_20_Default_ranged_hashENSI_20_Prime_rehash_policyENSI_17_Hashtable_traitsILb0ELb0ELb1EEEE5clearEv, symObjAddr: 0x69BC, symBinAddr: 0x10000A878, symSize: 0x64 }
  - { offsetInCU: 0x5357F, offset: 0x5357F, size: 0x8, addend: 0x0, symName: __ZNSt10_HashtableIiSt4pairIKiNSt7__debug13unordered_setINSt7__cxx1112basic_stringIcSt11char_traitsIcESaIcEEESt4hashIS9_ESt8equal_toIS9_ESaIS9_EEEESaISG_ENSt8__detail10_Select1stESC_IiESA_IiENSI_18_Mod_range_hashingENSI_20_Default_ranged_hashENSI_20_Prime_rehash_policyENSI_17_Hashtable_traitsILb0ELb0ELb1EEEE21_M_deallocate_bucketsEv, symObjAddr: 0x6A20, symBinAddr: 0x10000A8DC, symSize: 0x34 }
  - { offsetInCU: 0x5368D, offset: 0x5368D, size: 0x8, addend: 0x0, symName: __ZNSt15__new_allocatorINSt8__detail10_Hash_nodeISt4pairIKiNSt7__debug13unordered_setINSt7__cxx1112basic_stringIcSt11char_traitsIcESaIcEEESt4hashISB_ESt8equal_toISB_ESaISB_EEEELb0EEEED2Ev, symObjAddr: 0x69A8, symBinAddr: 0x10000A864, symSize: 0x14 }
  - { offsetInCU: 0x53695, offset: 0x53695, size: 0x8, addend: 0x0, symName: __ZNSt10_HashtableIiSt4pairIKiNSt7__debug13unordered_setINSt7__cxx1112basic_stringIcSt11char_traitsIcESaIcEEESt4hashIS9_ESt8equal_toIS9_ESaIS9_EEEESaISG_ENSt8__detail10_Select1stESC_IiESA_IiENSI_18_Mod_range_hashingENSI_20_Default_ranged_hashENSI_20_Prime_rehash_policyENSI_17_Hashtable_traitsILb0ELb0ELb1EEEE5clearEv, symObjAddr: 0x69BC, symBinAddr: 0x10000A878, symSize: 0x64 }
  - { offsetInCU: 0x5361D, offset: 0x5361D, size: 0x8, addend: 0x0, symName: __ZNSt10_HashtableIiSt4pairIKiNSt7__debug6vectorINSt7__cxx1112basic_stringIcSt11char_traitsIcESaIcEEESaIS9_EEEESaISC_ENSt8__detail10_Select1stESt8equal_toIiESt4hashIiENSE_18_Mod_range_hashingENSE_20_Default_ranged_hashENSE_20_Prime_rehash_policyENSE_17_Hashtable_traitsILb0ELb0ELb1EEEE21_M_deallocate_bucketsEv, symObjAddr: 0x6974, symBinAddr: 0x10000A830, symSize: 0x34 }
  - { offsetInCU: 0x53625, offset: 0x53625, size: 0x8, addend: 0x0, symName: __ZNSt15__new_allocatorINSt8__detail10_Hash_nodeISt4pairIKiNSt7__debug13unordered_setINSt7__cxx1112basic_stringIcSt11char_traitsIcESaIcEEESt4hashISB_ESt8equal_toISB_ESaISB_EEEELb0EEEED2Ev, symObjAddr: 0x69A8, symBinAddr: 0x10000A864, symSize: 0x14 }
  - { offsetInCU: 0x5364E, offset: 0x5364E, size: 0x8, addend: 0x0, symName: __ZNSt10_HashtableIiSt4pairIKiNSt7__debug6vectorINSt7__cxx1112basic_stringIcSt11char_traitsIcESaIcEEESaIS9_EEEESaISC_ENSt8__detail10_Select1stESt8equal_toIiESt4hashIiENSE_18_Mod_range_hashingENSE_20_Default_ranged_hashENSE_20_Prime_rehash_policyENSE_17_Hashtable_traitsILb0ELb0ELb1EEEE5clearEv, symObjAddr: 0x6910, symBinAddr: 0x10000A7CC, symSize: 0x64 }
  - { offsetInCU: 0x53656, offset: 0x53656, size: 0x8, addend: 0x0, symName: __ZNSt10_HashtableIiSt4pairIKiNSt7__debug6vectorINSt7__cxx1112basic_stringIcSt11char_traitsIcESaIcEEESaIS9_EEEESaISC_ENSt8__detail10_Select1stESt8equal_toIiESt4hashIiENSE_18_Mod_range_hashingENSE_20_Default_ranged_hashENSE_20_Prime_rehash_policyENSE_17_Hashtable_traitsILb0ELb0ELb1EEEE21_M_deallocate_bucketsEv, symObjAddr: 0x6974, symBinAddr: 0x10000A830, symSize: 0x34 }
  - { offsetInCU: 0x53740, offset: 0x53740, size: 0x8, addend: 0x0, symName: __ZNSt15__new_allocatorINSt8__detail10_Hash_nodeISt4pairIKiNSt7__debug6vectorINSt7__cxx1112basic_stringIcSt11char_traitsIcESaIcEEESaISB_EEEELb0EEEED2Ev, symObjAddr: 0x68FC, symBinAddr: 0x10000A7B8, symSize: 0x14 }
  - { offsetInCU: 0x53748, offset: 0x53748, size: 0x8, addend: 0x0, symName: __ZNSt10_HashtableIiSt4pairIKiNSt7__debug6vectorINSt7__cxx1112basic_stringIcSt11char_traitsIcESaIcEEESaIS9_EEEESaISC_ENSt8__detail10_Select1stESt8equal_toIiESt4hashIiENSE_18_Mod_range_hashingENSE_20_Default_ranged_hashENSE_20_Prime_rehash_policyENSE_17_Hashtable_traitsILb0ELb0ELb1EEEE5clearEv, symObjAddr: 0x6910, symBinAddr: 0x10000A7CC, symSize: 0x64 }
  - { offsetInCU: 0x536F4, offset: 0x536F4, size: 0x8, addend: 0x0, symName: __ZNSt9__cxx19986vectorIiSaIiEEixEm, symObjAddr: 0x6850, symBinAddr: 0x10000A70C, symSize: 0xAC }
  - { offsetInCU: 0x536FC, offset: 0x536FC, size: 0x8, addend: 0x0, symName: __ZNSt15__new_allocatorINSt8__detail10_Hash_nodeISt4pairIKiNSt7__debug6vectorINSt7__cxx1112basic_stringIcSt11char_traitsIcESaIcEEESaISB_EEEELb0EEEED2Ev, symObjAddr: 0x68FC, symBinAddr: 0x10000A7B8, symSize: 0x14 }
  - { offsetInCU: 0x53770, offset: 0x53770, size: 0x8, addend: 0x0, symName: __ZN11__gnu_debug16_Error_formatter11_M_sequenceINSt7__debug6vectorIiSaIiEEEEERS0_RKT_PKc, symObjAddr: 0x67BC, symBinAddr: 0x10000A678, symSize: 0x94 }
  - { offsetInCU: 0x53778, offset: 0x53778, size: 0x8, addend: 0x0, symName: __ZNSt9__cxx19986vectorIiSaIiEEixEm, symObjAddr: 0x6850, symBinAddr: 0x10000A70C, symSize: 0xAC }
  - { offsetInCU: 0x537DB, offset: 0x537DB, size: 0x8, addend: 0x0, symName: __ZNKSt9__cxx19986vectorIiSaIiEE4sizeEv, symObjAddr: 0x6794, symBinAddr: 0x10000A650, symSize: 0x28 }
  - { offsetInCU: 0x537E3, offset: 0x537E3, size: 0x8, addend: 0x0, symName: __ZN11__gnu_debug16_Error_formatter11_M_sequenceINSt7__debug6vectorIiSaIiEEEEERS0_RKT_PKc, symObjAddr: 0x67BC, symBinAddr: 0x10000A678, symSize: 0x94 }
  - { offsetInCU: 0x5380C, offset: 0x5380C, size: 0x8, addend: 0x0, symName: __ZNSt8__detail9_Map_baseINSt7__cxx1112basic_stringIcSt11char_traitsIcESaIcEEESt4pairIKS6_iESaIS9_ENS_10_Select1stESt8equal_toIS6_ESt4hashIS6_ENS_18_Mod_range_hashingENS_20_Default_ranged_hashENS_20_Prime_rehash_policyENS_17_Hashtable_traitsILb1ELb0ELb1EEELb1EEixERS8_, symObjAddr: 0x668C, symBinAddr: 0x10000A548, symSize: 0x108 }
  - { offsetInCU: 0x53814, offset: 0x53814, size: 0x8, addend: 0x0, symName: __ZNKSt9__cxx19986vectorIiSaIiEE4sizeEv, symObjAddr: 0x6794, symBinAddr: 0x10000A650, symSize: 0x28 }
  - { offsetInCU: 0x5396E, offset: 0x5396E, size: 0x8, addend: 0x0, symName: __ZNSt8__detailneERKNS_19_Node_iterator_baseISt4pairIKNSt7__cxx1112basic_stringIcSt11char_traitsIcESaIcEEEiELb1EEESC_, symObjAddr: 0x665C, symBinAddr: 0x10000A518, symSize: 0x30 }
  - { offsetInCU: 0x53976, offset: 0x53976, size: 0x8, addend: 0x0, symName: __ZNSt8__detail9_Map_baseINSt7__cxx1112basic_stringIcSt11char_traitsIcESaIcEEESt4pairIKS6_iESaIS9_ENS_10_Select1stESt8equal_toIS6_ESt4hashIS6_ENS_18_Mod_range_hashingENS_20_Default_ranged_hashENS_20_Prime_rehash_policyENS_17_Hashtable_traitsILb1ELb0ELb1EEELb1EEixERS8_, symObjAddr: 0x668C, symBinAddr: 0x10000A548, symSize: 0x108 }
  - { offsetInCU: 0x53946, offset: 0x53946, size: 0x8, addend: 0x0, symName: __ZNK11__gnu_debug14_Safe_iteratorINSt8__detail14_Node_iteratorISt4pairIKNSt7__cxx1112basic_stringIcSt11char_traitsIcESaIcEEEiELb0ELb1EEENSt7__debug13unordered_mapIS9_iSt4hashIS9_ESt8equal_toIS9_ESaISB_EEESt20forward_iterator_tagE4baseEv, symObjAddr: 0x6648, symBinAddr: 0x10000A504, symSize: 0x14 }
  - { offsetInCU: 0x5394E, offset: 0x5394E, size: 0x8, addend: 0x0, symName: __ZNSt8__detailneERKNS_19_Node_iterator_baseISt4pairIKNSt7__cxx1112basic_stringIcSt11char_traitsIcESaIcEEEiELb1EEESC_, symObjAddr: 0x665C, symBinAddr: 0x10000A518, symSize: 0x30 }
  - { offsetInCU: 0x53977, offset: 0x53977, size: 0x8, addend: 0x0, symName: __ZN11__gnu_debug16_Error_formatter11_M_iteratorINS_14_Safe_iteratorINSt8__detail14_Node_iteratorISt4pairIKNSt7__cxx1112basic_stringIcSt11char_traitsIcESaIcEEEiELb0ELb1EEENSt7__debug13unordered_mapISB_iSt4hashISB_ESt8equal_toISB_ESaISD_EEESt20forward_iterator_tagEEEERS0_RKT_PKc, symObjAddr: 0x65B4, symBinAddr: 0x10000A470, symSize: 0x94 }
  - { offsetInCU: 0x5397F, offset: 0x5397F, size: 0x8, addend: 0x0, symName: __ZNK11__gnu_debug14_Safe_iteratorINSt8__detail14_Node_iteratorISt4pairIKNSt7__cxx1112basic_stringIcSt11char_traitsIcESaIcEEEiELb0ELb1EEENSt7__debug13unordered_mapIS9_iSt4hashIS9_ESt8equal_toIS9_ESaISB_EEESt20forward_iterator_tagE4baseEv, symObjAddr: 0x6648, symBinAddr: 0x10000A504, symSize: 0x14 }
  - { offsetInCU: 0x539E2, offset: 0x539E2, size: 0x8, addend: 0x0, symName: __ZNK11__gnu_debug14_Safe_iteratorINSt8__detail14_Node_iteratorISt4pairIKNSt7__cxx1112basic_stringIcSt11char_traitsIcESaIcEEEiELb0ELb1EEENSt7__debug13unordered_mapIS9_iSt4hashIS9_ESt8equal_toIS9_ESaISB_EEESt20forward_iterator_tagE20_M_value_initializedEv, symObjAddr: 0x6544, symBinAddr: 0x10000A400, symSize: 0x70 }
  - { offsetInCU: 0x539EA, offset: 0x539EA, size: 0x8, addend: 0x0, symName: __ZN11__gnu_debug16_Error_formatter11_M_iteratorINS_14_Safe_iteratorINSt8__detail14_Node_iteratorISt4pairIKNSt7__cxx1112basic_stringIcSt11char_traitsIcESaIcEEEiELb0ELb1EEENSt7__debug13unordered_mapISB_iSt4hashISB_ESt8equal_toISB_ESaISD_EEESt20forward_iterator_tagEEEERS0_RKT_PKc, symObjAddr: 0x65B4, symBinAddr: 0x10000A470, symSize: 0x94 }
  - { offsetInCU: 0x53A9A, offset: 0x53A9A, size: 0x8, addend: 0x0, symName: __ZNSt8__detail14_Node_iteratorISt4pairIKNSt7__cxx1112basic_stringIcSt11char_traitsIcESaIcEEEiELb0ELb1EEC1Ev, symObjAddr: 0x6524, symBinAddr: 0x10000A3E0, symSize: 0x20 }
  - { offsetInCU: 0x53AA2, offset: 0x53AA2, size: 0x8, addend: 0x0, symName: __ZNK11__gnu_debug14_Safe_iteratorINSt8__detail14_Node_iteratorISt4pairIKNSt7__cxx1112basic_stringIcSt11char_traitsIcESaIcEEEiELb0ELb1EEENSt7__debug13unordered_mapIS9_iSt4hashIS9_ESt8equal_toIS9_ESaISB_EEESt20forward_iterator_tagE20_M_value_initializedEv, symObjAddr: 0x6544, symBinAddr: 0x10000A400, symSize: 0x70 }
  - { offsetInCU: 0x53A5E, offset: 0x53A5E, size: 0x8, addend: 0x0, symName: __ZNSt9__cxx199813unordered_mapINSt7__cxx1112basic_stringIcSt11char_traitsIcESaIcEEEiSt4hashIS6_ESt8equal_toIS6_ESaISt4pairIKS6_iEEE3endEv, symObjAddr: 0x6508, symBinAddr: 0x10000A3C4, symSize: 0x1C }
  - { offsetInCU: 0x53A66, offset: 0x53A66, size: 0x8, addend: 0x0, symName: __ZNSt8__detail14_Node_iteratorISt4pairIKNSt7__cxx1112basic_stringIcSt11char_traitsIcESaIcEEEiELb0ELb1EEC1Ev, symObjAddr: 0x6524, symBinAddr: 0x10000A3E0, symSize: 0x20 }
  - { offsetInCU: 0x53BD2, offset: 0x53BD2, size: 0x8, addend: 0x0, symName: __ZN11__gnu_debug14_Safe_iteratorINSt8__detail14_Node_iteratorISt4pairIKNSt7__cxx1112basic_stringIcSt11char_traitsIcESaIcEEEiELb0ELb1EEENSt7__debug13unordered_mapIS9_iSt4hashIS9_ESt8equal_toIS9_ESaISB_EEESt20forward_iterator_tagEC1ESC_PKNS_19_Safe_sequence_baseE, symObjAddr: 0x64B4, symBinAddr: 0x10000A370, symSize: 0x54 }
  - { offsetInCU: 0x53BDA, offset: 0x53BDA, size: 0x8, addend: 0x0, symName: __ZNSt9__cxx199813unordered_mapINSt7__cxx1112basic_stringIcSt11char_traitsIcESaIcEEEiSt4hashIS6_ESt8equal_toIS6_ESaISt4pairIKS6_iEEE3endEv, symObjAddr: 0x6508, symBinAddr: 0x10000A3C4, symSize: 0x1C }
  - { offsetInCU: 0x53B16, offset: 0x53B16, size: 0x8, addend: 0x0, symName: __ZNSt9__cxx199813unordered_mapINSt7__cxx1112basic_stringIcSt11char_traitsIcESaIcEEEiSt4hashIS6_ESt8equal_toIS6_ESaISt4pairIKS6_iEEE4findERSC_, symObjAddr: 0x6490, symBinAddr: 0x10000A34C, symSize: 0x24 }
  - { offsetInCU: 0x53B1E, offset: 0x53B1E, size: 0x8, addend: 0x0, symName: __ZN11__gnu_debug14_Safe_iteratorINSt8__detail14_Node_iteratorISt4pairIKNSt7__cxx1112basic_stringIcSt11char_traitsIcESaIcEEEiELb0ELb1EEENSt7__debug13unordered_mapIS9_iSt4hashIS9_ESt8equal_toIS9_ESaISB_EEESt20forward_iterator_tagEC1ESC_PKNS_19_Safe_sequence_baseE, symObjAddr: 0x64B4, symBinAddr: 0x10000A370, symSize: 0x54 }
  - { offsetInCU: 0x53B5C, offset: 0x53B5C, size: 0x8, addend: 0x0, symName: __ZNSt9__cxx19986vectorINSt7__cxx1112basic_stringIcSt11char_traitsIcESaIcEEESaIS6_EEixEm, symObjAddr: 0x63E4, symBinAddr: 0x10000A2A0, symSize: 0xAC }
  - { offsetInCU: 0x53B64, offset: 0x53B64, size: 0x8, addend: 0x0, symName: __ZNSt9__cxx199813unordered_mapINSt7__cxx1112basic_stringIcSt11char_traitsIcESaIcEEEiSt4hashIS6_ESt8equal_toIS6_ESaISt4pairIKS6_iEEE4findERSC_, symObjAddr: 0x6490, symBinAddr: 0x10000A34C, symSize: 0x24 }
  - { offsetInCU: 0x53BDA, offset: 0x53BDA, size: 0x8, addend: 0x0, symName: __ZN11__gnu_debug16_Error_formatter11_M_sequenceINSt7__debug6vectorINSt7__cxx1112basic_stringIcSt11char_traitsIcESaIcEEESaIS9_EEEEERS0_RKT_PKc, symObjAddr: 0x6350, symBinAddr: 0x10000A20C, symSize: 0x94 }
  - { offsetInCU: 0x53BE2, offset: 0x53BE2, size: 0x8, addend: 0x0, symName: __ZNSt9__cxx19986vectorINSt7__cxx1112basic_stringIcSt11char_traitsIcESaIcEEESaIS6_EEixEm, symObjAddr: 0x63E4, symBinAddr: 0x10000A2A0, symSize: 0xAC }
  - { offsetInCU: 0x53C45, offset: 0x53C45, size: 0x8, addend: 0x0, symName: __ZNSt10_HashtableINSt7__cxx1112basic_stringIcSt11char_traitsIcESaIcEEESt4pairIKS5_iESaIS8_ENSt8__detail10_Select1stESt8equal_toIS5_ESt4hashIS5_ENSA_18_Mod_range_hashingENSA_20_Default_ranged_hashENSA_20_Prime_rehash_policyENSA_17_Hashtable_traitsILb1ELb0ELb1EEEE21_M_deallocate_bucketsEv, symObjAddr: 0x631C, symBinAddr: 0x10000A1D8, symSize: 0x34 }
  - { offsetInCU: 0x53C4D, offset: 0x53C4D, size: 0x8, addend: 0x0, symName: __ZN11__gnu_debug16_Error_formatter11_M_sequenceINSt7__debug6vectorINSt7__cxx1112basic_stringIcSt11char_traitsIcESaIcEEESaIS9_EEEEERS0_RKT_PKc, symObjAddr: 0x6350, symBinAddr: 0x10000A20C, symSize: 0x94 }
  - { offsetInCU: 0x53C76, offset: 0x53C76, size: 0x8, addend: 0x0, symName: __ZNSt10_HashtableINSt7__cxx1112basic_stringIcSt11char_traitsIcESaIcEEESt4pairIKS5_iESaIS8_ENSt8__detail10_Select1stESt8equal_toIS5_ESt4hashIS5_ENSA_18_Mod_range_hashingENSA_20_Default_ranged_hashENSA_20_Prime_rehash_policyENSA_17_Hashtable_traitsILb1ELb0ELb1EEEE5clearEv, symObjAddr: 0x62B8, symBinAddr: 0x10000A174, symSize: 0x64 }
  - { offsetInCU: 0x53C7E, offset: 0x53C7E, size: 0x8, addend: 0x0, symName: __ZNSt10_HashtableINSt7__cxx1112basic_stringIcSt11char_traitsIcESaIcEEESt4pairIKS5_iESaIS8_ENSt8__detail10_Select1stESt8equal_toIS5_ESt4hashIS5_ENSA_18_Mod_range_hashingENSA_20_Default_ranged_hashENSA_20_Prime_rehash_policyENSA_17_Hashtable_traitsILb1ELb0ELb1EEEE21_M_deallocate_bucketsEv, symObjAddr: 0x631C, symBinAddr: 0x10000A1D8, symSize: 0x34 }
  - { offsetInCU: 0x53D4C, offset: 0x53D4C, size: 0x8, addend: 0x0, symName: __ZNSt15__new_allocatorINSt8__detail10_Hash_nodeISt4pairIKNSt7__cxx1112basic_stringIcSt11char_traitsIcESaIcEEEiELb1EEEED2Ev, symObjAddr: 0x62A4, symBinAddr: 0x10000A160, symSize: 0x14 }
  - { offsetInCU: 0x53D54, offset: 0x53D54, size: 0x8, addend: 0x0, symName: __ZNSt10_HashtableINSt7__cxx1112basic_stringIcSt11char_traitsIcESaIcEEESt4pairIKS5_iESaIS8_ENSt8__detail10_Select1stESt8equal_toIS5_ESt4hashIS5_ENSA_18_Mod_range_hashingENSA_20_Default_ranged_hashENSA_20_Prime_rehash_policyENSA_17_Hashtable_traitsILb1ELb0ELb1EEEE5clearEv, symObjAddr: 0x62B8, symBinAddr: 0x10000A174, symSize: 0x64 }
  - { offsetInCU: 0x53D74, offset: 0x53D74, size: 0x8, addend: 0x0, symName: __ZNSt9__cxx199812_Vector_baseIiSaIiEE19_M_get_Tp_allocatorEv, symObjAddr: 0x6290, symBinAddr: 0x10000A14C, symSize: 0x14 }
  - { offsetInCU: 0x53D7C, offset: 0x53D7C, size: 0x8, addend: 0x0, symName: __ZNSt15__new_allocatorINSt8__detail10_Hash_nodeISt4pairIKNSt7__cxx1112basic_stringIcSt11char_traitsIcESaIcEEEiELb1EEEED2Ev, symObjAddr: 0x62A4, symBinAddr: 0x10000A160, symSize: 0x14 }
  - { offsetInCU: 0x53DF9, offset: 0x53DF9, size: 0x8, addend: 0x0, symName: __ZNSt9__cxx199812_Vector_baseIiSaIiEED2Ev, symObjAddr: 0x6240, symBinAddr: 0x10000A0FC, symSize: 0x50 }
  - { offsetInCU: 0x53E01, offset: 0x53E01, size: 0x8, addend: 0x0, symName: __ZNSt9__cxx199812_Vector_baseIiSaIiEE19_M_get_Tp_allocatorEv, symObjAddr: 0x6290, symBinAddr: 0x10000A14C, symSize: 0x14 }
  - { offsetInCU: 0x53E64, offset: 0x53E64, size: 0x8, addend: 0x0, symName: __ZNSt9__cxx199812_Vector_baseIiSaIiEE12_Vector_implD1Ev, symObjAddr: 0x6214, symBinAddr: 0x10000A0D0, symSize: 0x2C }
  - { offsetInCU: 0x53E6C, offset: 0x53E6C, size: 0x8, addend: 0x0, symName: __ZNSt9__cxx199812_Vector_baseIiSaIiEED2Ev, symObjAddr: 0x6240, symBinAddr: 0x10000A0FC, symSize: 0x50 }
  - { offsetInCU: 0x53EFA, offset: 0x53EFA, size: 0x8, addend: 0x0, symName: __ZN11__gnu_debug12_Safe_vectorINSt7__debug6vectorIiSaIiEEENSt9__cxx19986vectorIiS3_EEEC2Ev, symObjAddr: 0x61EC, symBinAddr: 0x10000A0A8, symSize: 0x28 }
  - { offsetInCU: 0x53F02, offset: 0x53F02, size: 0x8, addend: 0x0, symName: __ZNSt9__cxx199812_Vector_baseIiSaIiEE12_Vector_implD1Ev, symObjAddr: 0x6214, symBinAddr: 0x10000A0D0, symSize: 0x2C }
  - { offsetInCU: 0x53F4C, offset: 0x53F4C, size: 0x8, addend: 0x0, symName: __ZNSt9__cxx19986vectorIiSaIiEEC2ESt16initializer_listIiERKS1_, symObjAddr: 0x617C, symBinAddr: 0x10000A038, symSize: 0x70 }
  - { offsetInCU: 0x53F54, offset: 0x53F54, size: 0x8, addend: 0x0, symName: __ZN11__gnu_debug12_Safe_vectorINSt7__debug6vectorIiSaIiEEENSt9__cxx19986vectorIiS3_EEEC2Ev, symObjAddr: 0x61EC, symBinAddr: 0x10000A0A8, symSize: 0x28 }
  - { offsetInCU: 0x53FA0, offset: 0x53FA0, size: 0x8, addend: 0x0, symName: __ZNSt15__new_allocatorIiED2Ev, symObjAddr: 0x6168, symBinAddr: 0x10000A024, symSize: 0x14 }
  - { offsetInCU: 0x53FA8, offset: 0x53FA8, size: 0x8, addend: 0x0, symName: __ZNSt9__cxx19986vectorIiSaIiEEC2ESt16initializer_listIiERKS1_, symObjAddr: 0x617C, symBinAddr: 0x10000A038, symSize: 0x70 }
  - { offsetInCU: 0x54025, offset: 0x54025, size: 0x8, addend: 0x0, symName: __ZNSt9__cxx199812_Vector_baseINSt7__cxx1112basic_stringIcSt11char_traitsIcESaIcEEESaIS6_EE19_M_get_Tp_allocatorEv, symObjAddr: 0x6154, symBinAddr: 0x10000A010, symSize: 0x14 }
  - { offsetInCU: 0x5402D, offset: 0x5402D, size: 0x8, addend: 0x0, symName: __ZNSt15__new_allocatorIiED2Ev, symObjAddr: 0x6168, symBinAddr: 0x10000A024, symSize: 0x14 }
  - { offsetInCU: 0x5411D, offset: 0x5411D, size: 0x8, addend: 0x0, symName: __ZNSt9__cxx19986vectorINSt7__cxx1112basic_stringIcSt11char_traitsIcESaIcEEESaIS6_EEC2IPKPKcvEET_SE_RKS7_, symObjAddr: 0x60EC, symBinAddr: 0x100009FA8, symSize: 0x68 }
  - { offsetInCU: 0x54125, offset: 0x54125, size: 0x8, addend: 0x0, symName: __ZNSt9__cxx199812_Vector_baseINSt7__cxx1112basic_stringIcSt11char_traitsIcESaIcEEESaIS6_EE19_M_get_Tp_allocatorEv, symObjAddr: 0x6154, symBinAddr: 0x10000A010, symSize: 0x14 }
  - { offsetInCU: 0x54182, offset: 0x54182, size: 0x8, addend: 0x0, symName: __ZN11__gnu_debug6__baseIPKPKcEET_S5_, symObjAddr: 0x60D8, symBinAddr: 0x100009F94, symSize: 0x14 }
  - { offsetInCU: 0x5418A, offset: 0x5418A, size: 0x8, addend: 0x0, symName: __ZNSt9__cxx19986vectorINSt7__cxx1112basic_stringIcSt11char_traitsIcESaIcEEESaIS6_EEC2IPKPKcvEET_SE_RKS7_, symObjAddr: 0x60EC, symBinAddr: 0x100009FA8, symSize: 0x68 }
  - { offsetInCU: 0x541F6, offset: 0x541F6, size: 0x8, addend: 0x0, symName: __ZN11__gnu_debug19__check_valid_rangeIPKPKcEET_RKS5_S7_S2_jS2_, symObjAddr: 0x5FC0, symBinAddr: 0x100009E7C, symSize: 0x118 }
  - { offsetInCU: 0x541FE, offset: 0x541FE, size: 0x8, addend: 0x0, symName: __ZN11__gnu_debug6__baseIPKPKcEET_S5_, symObjAddr: 0x60D8, symBinAddr: 0x100009F94, symSize: 0x14 }
  - { offsetInCU: 0x542A2, offset: 0x542A2, size: 0x8, addend: 0x0, symName: __ZNSt15__new_allocatorINSt7__cxx1112basic_stringIcSt11char_traitsIcESaIcEEEED2Ev, symObjAddr: 0x5FAC, symBinAddr: 0x100009E68, symSize: 0x14 }
  - { offsetInCU: 0x542AA, offset: 0x542AA, size: 0x8, addend: 0x0, symName: __ZN11__gnu_debug19__check_valid_rangeIPKPKcEET_RKS5_S7_S2_jS2_, symObjAddr: 0x5FC0, symBinAddr: 0x100009E7C, symSize: 0x118 }
  - { offsetInCU: 0x54342, offset: 0x54342, size: 0x8, addend: 0x0, symName: __ZNSt7__cxx1112basic_stringIcSt11char_traitsIcESaIcEEC1ERKS4_mm, symObjAddr: 0x5ED8, symBinAddr: 0x100009D94, symSize: 0xD4 }
  - { offsetInCU: 0x5434A, offset: 0x5434A, size: 0x8, addend: 0x0, symName: __ZNSt15__new_allocatorINSt7__cxx1112basic_stringIcSt11char_traitsIcESaIcEEEED2Ev, symObjAddr: 0x5FAC, symBinAddr: 0x100009E68, symSize: 0x14 }
  - { offsetInCU: 0x54408, offset: 0x54408, size: 0x8, addend: 0x0, symName: __ZNKSt7__cxx1112basic_stringIcSt11char_traitsIcESaIcEE8_M_checkEmPKc, symObjAddr: 0x5E60, symBinAddr: 0x100009D1C, symSize: 0x78 }
  - { offsetInCU: 0x54410, offset: 0x54410, size: 0x8, addend: 0x0, symName: __ZNSt7__cxx1112basic_stringIcSt11char_traitsIcESaIcEEC1ERKS4_mm, symObjAddr: 0x5ED8, symBinAddr: 0x100009D94, symSize: 0xD4 }
  - { offsetInCU: 0x54468, offset: 0x54468, size: 0x8, addend: 0x0, symName: __ZNSt7__cxx1112basic_stringIcSt11char_traitsIcESaIcEE7reserveEm, symObjAddr: 0x5DB8, symBinAddr: 0x100009C74, symSize: 0xA8 }
  - { offsetInCU: 0x54470, offset: 0x54470, size: 0x8, addend: 0x0, symName: __ZNKSt7__cxx1112basic_stringIcSt11char_traitsIcESaIcEE8_M_checkEmPKc, symObjAddr: 0x5E60, symBinAddr: 0x100009D1C, symSize: 0x78 }
  - { offsetInCU: 0x54542, offset: 0x54542, size: 0x8, addend: 0x0, symName: __ZNSt7__cxx1112basic_stringIcSt11char_traitsIcESaIcEEC1ERKS3_, symObjAddr: 0x5D58, symBinAddr: 0x100009C14, symSize: 0x60 }
  - { offsetInCU: 0x5454A, offset: 0x5454A, size: 0x8, addend: 0x0, symName: __ZNSt7__cxx1112basic_stringIcSt11char_traitsIcESaIcEE7reserveEm, symObjAddr: 0x5DB8, symBinAddr: 0x100009C74, symSize: 0xA8 }
  - { offsetInCU: 0x54569, offset: 0x54569, size: 0x8, addend: 0x0, symName: __ZNKSt7__cxx1112basic_stringIcSt11char_traitsIcESaIcEE4dataEv, symObjAddr: 0x5D3C, symBinAddr: 0x100009BF8, symSize: 0x1C }
  - { offsetInCU: 0x54571, offset: 0x54571, size: 0x8, addend: 0x0, symName: __ZNSt7__cxx1112basic_stringIcSt11char_traitsIcESaIcEEC1ERKS3_, symObjAddr: 0x5D58, symBinAddr: 0x100009C14, symSize: 0x60 }
  - { offsetInCU: 0x5459A, offset: 0x5459A, size: 0x8, addend: 0x0, symName: __ZNSt7__cxx1112basic_stringIcSt11char_traitsIcESaIcEE6assignERKS4_, symObjAddr: 0x5B58, symBinAddr: 0x100009A14, symSize: 0x1E4 }
  - { offsetInCU: 0x545A2, offset: 0x545A2, size: 0x8, addend: 0x0, symName: __ZNKSt7__cxx1112basic_stringIcSt11char_traitsIcESaIcEE4dataEv, symObjAddr: 0x5D3C, symBinAddr: 0x100009BF8, symSize: 0x1C }
  - { offsetInCU: 0x547B9, offset: 0x547B9, size: 0x8, addend: 0x0, symName: __ZNSt7__cxx1112basic_stringIcSt11char_traitsIcESaIcEE7_S_copyEPcPKcm, symObjAddr: 0x5B0C, symBinAddr: 0x1000099C8, symSize: 0x4C }
  - { offsetInCU: 0x547C1, offset: 0x547C1, size: 0x8, addend: 0x0, symName: __ZNSt7__cxx1112basic_stringIcSt11char_traitsIcESaIcEE6assignERKS4_, symObjAddr: 0x5B58, symBinAddr: 0x100009A14, symSize: 0x1E4 }
  - { offsetInCU: 0x54899, offset: 0x54899, size: 0x8, addend: 0x0, symName: __ZSt11__addressofINSt7__cxx1112basic_stringIcSt11char_traitsIcESaIcEEEEPT_RS6_, symObjAddr: 0x5AF8, symBinAddr: 0x1000099B4, symSize: 0x14 }
  - { offsetInCU: 0x548A1, offset: 0x548A1, size: 0x8, addend: 0x0, symName: __ZNSt7__cxx1112basic_stringIcSt11char_traitsIcESaIcEE7_S_copyEPcPKcm, symObjAddr: 0x5B0C, symBinAddr: 0x1000099C8, symSize: 0x4C }
  - { offsetInCU: 0x548A5, offset: 0x548A5, size: 0x8, addend: 0x0, symName: __ZNSt7__cxx1112basic_stringIcSt11char_traitsIcESaIcEE10_M_destroyEm, symObjAddr: 0x5A94, symBinAddr: 0x100009950, symSize: 0x64 }
  - { offsetInCU: 0x548AD, offset: 0x548AD, size: 0x8, addend: 0x0, symName: __ZSt11__addressofINSt7__cxx1112basic_stringIcSt11char_traitsIcESaIcEEEEPT_RS6_, symObjAddr: 0x5AF8, symBinAddr: 0x1000099B4, symSize: 0x14 }
  - { offsetInCU: 0x5492D, offset: 0x5492D, size: 0x8, addend: 0x0, symName: __ZNSt7__cxx1112basic_stringIcSt11char_traitsIcESaIcEE12_M_constructIPcEEvT_S7_St20forward_iterator_tag, symObjAddr: 0x59AC, symBinAddr: 0x100009868, symSize: 0xE8 }
  - { offsetInCU: 0x54935, offset: 0x54935, size: 0x8, addend: 0x0, symName: __ZNSt7__cxx1112basic_stringIcSt11char_traitsIcESaIcEE10_M_destroyEm, symObjAddr: 0x5A94, symBinAddr: 0x100009950, symSize: 0x64 }
  - { offsetInCU: 0x54AEE, offset: 0x54AEE, size: 0x8, addend: 0x0, symName: __ZZNSt7__cxx1112basic_stringIcSt11char_traitsIcESaIcEE12_M_constructIPcEEvT_S7_St20forward_iterator_tagEN6_GuardC1EPS4_, symObjAddr: 0x5954, symBinAddr: 0x100009810, symSize: 0x24 }
  - { offsetInCU: 0x54AF6, offset: 0x54AF6, size: 0x8, addend: 0x0, symName: __ZZNSt7__cxx1112basic_stringIcSt11char_traitsIcESaIcEE12_M_constructIPcEEvT_S7_St20forward_iterator_tagEN6_GuardD1Ev, symObjAddr: 0x5978, symBinAddr: 0x100009834, symSize: 0x34 }
  - { offsetInCU: 0x54B29, offset: 0x54B29, size: 0x8, addend: 0x0, symName: __ZZNSt7__cxx1112basic_stringIcSt11char_traitsIcESaIcEE12_M_constructIPcEEvT_S7_St20forward_iterator_tagEN6_GuardD1Ev, symObjAddr: 0x5978, symBinAddr: 0x100009834, symSize: 0x34 }
  - { offsetInCU: 0x54B31, offset: 0x54B31, size: 0x8, addend: 0x0, symName: __ZNSt7__cxx1112basic_stringIcSt11char_traitsIcESaIcEE12_M_constructIPcEEvT_S7_St20forward_iterator_tag, symObjAddr: 0x59AC, symBinAddr: 0x100009868, symSize: 0xE8 }
  - { offsetInCU: 0x54BD9, offset: 0x54BD9, size: 0x8, addend: 0x0, symName: __ZNKSt7__cxx1112basic_stringIcSt11char_traitsIcESaIcEE16_M_get_allocatorEv, symObjAddr: 0x5940, symBinAddr: 0x1000097FC, symSize: 0x14 }
  - { offsetInCU: 0x54BE1, offset: 0x54BE1, size: 0x8, addend: 0x0, symName: __ZZNSt7__cxx1112basic_stringIcSt11char_traitsIcESaIcEE12_M_constructIPcEEvT_S7_St20forward_iterator_tagEN6_GuardC1EPS4_, symObjAddr: 0x5954, symBinAddr: 0x100009810, symSize: 0x24 }
  - { offsetInCU: 0x54C25, offset: 0x54C25, size: 0x8, addend: 0x0, symName: __ZNKSt7__cxx1112basic_stringIcSt11char_traitsIcESaIcEE8capacityEv, symObjAddr: 0x5904, symBinAddr: 0x1000097C0, symSize: 0x3C }
  - { offsetInCU: 0x54C2D, offset: 0x54C2D, size: 0x8, addend: 0x0, symName: __ZNKSt7__cxx1112basic_stringIcSt11char_traitsIcESaIcEE16_M_get_allocatorEv, symObjAddr: 0x5940, symBinAddr: 0x1000097FC, symSize: 0x14 }
  - { offsetInCU: 0x54D15, offset: 0x54D15, size: 0x8, addend: 0x0, symName: __ZSt12__str_concatINSt7__cxx1112basic_stringIcSt11char_traitsIcESaIcEEEET_PKNS6_10value_typeENS6_9size_typeES9_SA_RKNS6_14allocator_typeE, symObjAddr: 0x5824, symBinAddr: 0x1000096E0, symSize: 0xE0 }
  - { offsetInCU: 0x54D1D, offset: 0x54D1D, size: 0x8, addend: 0x0, symName: __ZNKSt7__cxx1112basic_stringIcSt11char_traitsIcESaIcEE8capacityEv, symObjAddr: 0x5904, symBinAddr: 0x1000097C0, symSize: 0x3C }
  - { offsetInCU: 0x54DFB, offset: 0x54DFB, size: 0x8, addend: 0x0, symName: __ZNKSt7__cxx1112basic_stringIcSt11char_traitsIcESaIcEE13get_allocatorEv, symObjAddr: 0x57D4, symBinAddr: 0x100009690, symSize: 0x50 }
  - { offsetInCU: 0x54E03, offset: 0x54E03, size: 0x8, addend: 0x0, symName: __ZSt12__str_concatINSt7__cxx1112basic_stringIcSt11char_traitsIcESaIcEEEET_PKNS6_10value_typeENS6_9size_typeES9_SA_RKNS6_14allocator_typeE, symObjAddr: 0x5824, symBinAddr: 0x1000096E0, symSize: 0xE0 }
  - { offsetInCU: 0x54EDB, offset: 0x54EDB, size: 0x8, addend: 0x0, symName: __ZSt7forwardIiEOT_RNSt16remove_referenceIS0_E4typeE, symObjAddr: 0x57C0, symBinAddr: 0x10000967C, symSize: 0x14 }
  - { offsetInCU: 0x54EE3, offset: 0x54EE3, size: 0x8, addend: 0x0, symName: __ZNKSt7__cxx1112basic_stringIcSt11char_traitsIcESaIcEE13get_allocatorEv, symObjAddr: 0x57D4, symBinAddr: 0x100009690, symSize: 0x50 }
  - { offsetInCU: 0x54F32, offset: 0x54F32, size: 0x8, addend: 0x0, symName: __ZSt7forwardIbEOT_RNSt16remove_referenceIS0_E4typeE, symObjAddr: 0x57AC, symBinAddr: 0x100009668, symSize: 0x14 }
  - { offsetInCU: 0x54F3A, offset: 0x54F3A, size: 0x8, addend: 0x0, symName: __ZSt7forwardIiEOT_RNSt16remove_referenceIS0_E4typeE, symObjAddr: 0x57C0, symBinAddr: 0x10000967C, symSize: 0x14 }
  - { offsetInCU: 0x54F42, offset: 0x54F42, size: 0x8, addend: 0x0, symName: __ZNSt7__cxx1112basic_stringIcSt11char_traitsIcESaIcEE12_M_constructIPKcEEvT_S8_St20forward_iterator_tag, symObjAddr: 0x56C4, symBinAddr: 0x100009580, symSize: 0xE8 }
  - { offsetInCU: 0x54F4A, offset: 0x54F4A, size: 0x8, addend: 0x0, symName: __ZSt7forwardIbEOT_RNSt16remove_referenceIS0_E4typeE, symObjAddr: 0x57AC, symBinAddr: 0x100009668, symSize: 0x14 }
  - { offsetInCU: 0x55104, offset: 0x55104, size: 0x8, addend: 0x0, symName: __ZZNSt7__cxx1112basic_stringIcSt11char_traitsIcESaIcEE12_M_constructIPKcEEvT_S8_St20forward_iterator_tagEN6_GuardC1EPS4_, symObjAddr: 0x566C, symBinAddr: 0x100009528, symSize: 0x24 }
  - { offsetInCU: 0x5510C, offset: 0x5510C, size: 0x8, addend: 0x0, symName: __ZZNSt7__cxx1112basic_stringIcSt11char_traitsIcESaIcEE12_M_constructIPKcEEvT_S8_St20forward_iterator_tagEN6_GuardD1Ev, symObjAddr: 0x5690, symBinAddr: 0x10000954C, symSize: 0x34 }
  - { offsetInCU: 0x5513F, offset: 0x5513F, size: 0x8, addend: 0x0, symName: __ZZNSt7__cxx1112basic_stringIcSt11char_traitsIcESaIcEE12_M_constructIPKcEEvT_S8_St20forward_iterator_tagEN6_GuardD1Ev, symObjAddr: 0x5690, symBinAddr: 0x10000954C, symSize: 0x34 }
  - { offsetInCU: 0x55147, offset: 0x55147, size: 0x8, addend: 0x0, symName: __ZNSt7__cxx1112basic_stringIcSt11char_traitsIcESaIcEE12_M_constructIPKcEEvT_S8_St20forward_iterator_tag, symObjAddr: 0x56C4, symBinAddr: 0x100009580, symSize: 0xE8 }
  - { offsetInCU: 0x551D1, offset: 0x551D1, size: 0x8, addend: 0x0, symName: __ZNSt7__cxx1112basic_stringIcSt11char_traitsIcESaIcEE13_M_set_lengthEm, symObjAddr: 0x5624, symBinAddr: 0x1000094E0, symSize: 0x48 }
  - { offsetInCU: 0x551D9, offset: 0x551D9, size: 0x8, addend: 0x0, symName: __ZZNSt7__cxx1112basic_stringIcSt11char_traitsIcESaIcEE12_M_constructIPKcEEvT_S8_St20forward_iterator_tagEN6_GuardC1EPS4_, symObjAddr: 0x566C, symBinAddr: 0x100009528, symSize: 0x24 }
  - { offsetInCU: 0x55216, offset: 0x55216, size: 0x8, addend: 0x0, symName: __ZNSt7__cxx1112basic_stringIcSt11char_traitsIcESaIcEE9_M_lengthEm, symObjAddr: 0x5600, symBinAddr: 0x1000094BC, symSize: 0x24 }
  - { offsetInCU: 0x5521E, offset: 0x5521E, size: 0x8, addend: 0x0, symName: __ZNSt7__cxx1112basic_stringIcSt11char_traitsIcESaIcEE13_M_set_lengthEm, symObjAddr: 0x5624, symBinAddr: 0x1000094E0, symSize: 0x48 }
  - { offsetInCU: 0x5525B, offset: 0x5525B, size: 0x8, addend: 0x0, symName: __ZNSt7__cxx1112basic_stringIcSt11char_traitsIcESaIcEE11_M_capacityEm, symObjAddr: 0x55DC, symBinAddr: 0x100009498, symSize: 0x24 }
  - { offsetInCU: 0x55263, offset: 0x55263, size: 0x8, addend: 0x0, symName: __ZNSt7__cxx1112basic_stringIcSt11char_traitsIcESaIcEE9_M_lengthEm, symObjAddr: 0x5600, symBinAddr: 0x1000094BC, symSize: 0x24 }
  - { offsetInCU: 0x552A0, offset: 0x552A0, size: 0x8, addend: 0x0, symName: __ZNSt7__cxx1112basic_stringIcSt11char_traitsIcESaIcEE7_M_dataEPc, symObjAddr: 0x55B8, symBinAddr: 0x100009474, symSize: 0x24 }
  - { offsetInCU: 0x552A8, offset: 0x552A8, size: 0x8, addend: 0x0, symName: __ZNSt7__cxx1112basic_stringIcSt11char_traitsIcESaIcEE11_M_capacityEm, symObjAddr: 0x55DC, symBinAddr: 0x100009498, symSize: 0x24 }
  - { offsetInCU: 0x552E5, offset: 0x552E5, size: 0x8, addend: 0x0, symName: __ZNKSt7__cxx1112basic_stringIcSt11char_traitsIcESaIcEE11_M_is_localEv, symObjAddr: 0x5558, symBinAddr: 0x100009414, symSize: 0x60 }
  - { offsetInCU: 0x552ED, offset: 0x552ED, size: 0x8, addend: 0x0, symName: __ZNSt7__cxx1112basic_stringIcSt11char_traitsIcESaIcEE7_M_dataEPc, symObjAddr: 0x55B8, symBinAddr: 0x100009474, symSize: 0x24 }
  - { offsetInCU: 0x553A0, offset: 0x553A0, size: 0x8, addend: 0x0, symName: __ZNSt7__cxx1112basic_stringIcSt11char_traitsIcESaIcEE12_Alloc_hiderC1EPcOS3_, symObjAddr: 0x54FC, symBinAddr: 0x1000093B8, symSize: 0x5C }
  - { offsetInCU: 0x553A8, offset: 0x553A8, size: 0x8, addend: 0x0, symName: __ZNKSt7__cxx1112basic_stringIcSt11char_traitsIcESaIcEE11_M_is_localEv, symObjAddr: 0x5558, symBinAddr: 0x100009414, symSize: 0x60 }
  - { offsetInCU: 0x5545D, offset: 0x5545D, size: 0x8, addend: 0x0, symName: __ZSt4moveIRSaIcEEONSt16remove_referenceIT_E4typeEOS3_, symObjAddr: 0x54E8, symBinAddr: 0x1000093A4, symSize: 0x14 }
  - { offsetInCU: 0x55465, offset: 0x55465, size: 0x8, addend: 0x0, symName: __ZNSt7__cxx1112basic_stringIcSt11char_traitsIcESaIcEE12_Alloc_hiderC1EPcOS3_, symObjAddr: 0x54FC, symBinAddr: 0x1000093B8, symSize: 0x5C }
  - { offsetInCU: 0x5545D, offset: 0x5545D, size: 0x8, addend: 0x0, symName: __ZNSt7__cxx1112basic_stringIcSt11char_traitsIcESaIcEE16_M_get_allocatorEv, symObjAddr: 0x54D4, symBinAddr: 0x100009390, symSize: 0x14 }
  - { offsetInCU: 0x55465, offset: 0x55465, size: 0x8, addend: 0x0, symName: __ZSt4moveIRSaIcEEONSt16remove_referenceIT_E4typeEOS3_, symObjAddr: 0x54E8, symBinAddr: 0x1000093A4, symSize: 0x14 }
  - { offsetInCU: 0x5548E, offset: 0x5548E, size: 0x8, addend: 0x0, symName: __ZNSt7__cxx1112basic_stringIcSt11char_traitsIcESaIcEE10_M_disposeEv, symObjAddr: 0x5488, symBinAddr: 0x100009344, symSize: 0x4C }
  - { offsetInCU: 0x55496, offset: 0x55496, size: 0x8, addend: 0x0, symName: __ZNSt7__cxx1112basic_stringIcSt11char_traitsIcESaIcEE16_M_get_allocatorEv, symObjAddr: 0x54D4, symBinAddr: 0x100009390, symSize: 0x14 }
  - { offsetInCU: 0x5554A, offset: 0x5554A, size: 0x8, addend: 0x0, symName: __ZNSt7__cxx1112basic_stringIcSt11char_traitsIcESaIcEE12_Alloc_hiderC1EPcRKS3_, symObjAddr: 0x5438, symBinAddr: 0x1000092F4, symSize: 0x50 }
  - { offsetInCU: 0x55552, offset: 0x55552, size: 0x8, addend: 0x0, symName: __ZNSt7__cxx1112basic_stringIcSt11char_traitsIcESaIcEE10_M_disposeEv, symObjAddr: 0x5488, symBinAddr: 0x100009344, symSize: 0x4C }
  - { offsetInCU: 0x555B0, offset: 0x555B0, size: 0x8, addend: 0x0, symName: __ZNSt7__cxx1112basic_stringIcSt11char_traitsIcESaIcEE13_M_local_dataEv, symObjAddr: 0x5418, symBinAddr: 0x1000092D4, symSize: 0x20 }
  - { offsetInCU: 0x555B8, offset: 0x555B8, size: 0x8, addend: 0x0, symName: __ZNSt7__cxx1112basic_stringIcSt11char_traitsIcESaIcEE12_Alloc_hiderC1EPcRKS3_, symObjAddr: 0x5438, symBinAddr: 0x1000092F4, symSize: 0x50 }
  - { offsetInCU: 0x55629, offset: 0x55629, size: 0x8, addend: 0x0, symName: __ZNSt15__new_allocatorIcED2Ev, symObjAddr: 0x5404, symBinAddr: 0x1000092C0, symSize: 0x14 }
  - { offsetInCU: 0x55631, offset: 0x55631, size: 0x8, addend: 0x0, symName: __ZNSt7__cxx1112basic_stringIcSt11char_traitsIcESaIcEE13_M_local_dataEv, symObjAddr: 0x5418, symBinAddr: 0x1000092D4, symSize: 0x20 }
  - { offsetInCU: 0x55656, offset: 0x55656, size: 0x8, addend: 0x0, symName: __ZNKSt7__cxx1112basic_stringIcSt11char_traitsIcESaIcEE7_M_dataEv, symObjAddr: 0x53EC, symBinAddr: 0x1000092A8, symSize: 0x18 }
  - { offsetInCU: 0x5565E, offset: 0x5565E, size: 0x8, addend: 0x0, symName: __ZNSt15__new_allocatorIcED2Ev, symObjAddr: 0x5404, symBinAddr: 0x1000092C0, symSize: 0x14 }
  - { offsetInCU: 0x55687, offset: 0x55687, size: 0x8, addend: 0x0, symName: __ZN9__gnu_cxx11char_traitsIcE2eqERKcS3_, symObjAddr: 0x53BC, symBinAddr: 0x100009278, symSize: 0x30 }
  - { offsetInCU: 0x5568F, offset: 0x5568F, size: 0x8, addend: 0x0, symName: __ZNKSt7__cxx1112basic_stringIcSt11char_traitsIcESaIcEE7_M_dataEv, symObjAddr: 0x53EC, symBinAddr: 0x1000092A8, symSize: 0x18 }
  - { offsetInCU: 0x556F1, offset: 0x556F1, size: 0x8, addend: 0x0, symName: __ZSt3minIiERKT_S2_S2_, symObjAddr: 0x5384, symBinAddr: 0x100009240, symSize: 0x38 }
  - { offsetInCU: 0x556F9, offset: 0x556F9, size: 0x8, addend: 0x0, symName: __ZN9__gnu_cxx11char_traitsIcE2eqERKcS3_, symObjAddr: 0x53BC, symBinAddr: 0x100009278, symSize: 0x30 }
  - { offsetInCU: 0x5572E, offset: 0x5572E, size: 0x8, addend: 0x0, symName: __ZNSt9__cxx199813unordered_mapIiNSt7__debug6vectorINSt7__cxx1112basic_stringIcSt11char_traitsIcESaIcEEESaIS8_EEESt4hashIiESt8equal_toIiESaISt4pairIKiSA_EEEixERSG_, symObjAddr: 0x5360, symBinAddr: 0x10000921C, symSize: 0x24 }
  - { offsetInCU: 0x55736, offset: 0x55736, size: 0x8, addend: 0x0, symName: __ZSt3minIiERKT_S2_S2_, symObjAddr: 0x5384, symBinAddr: 0x100009240, symSize: 0x38 }
  - { offsetInCU: 0x55774, offset: 0x55774, size: 0x8, addend: 0x0, symName: __ZNSt7__cxx1112basic_stringIcSt11char_traitsIcESaIcEEpLEc, symObjAddr: 0x5338, symBinAddr: 0x1000091F4, symSize: 0x28 }
  - { offsetInCU: 0x5577C, offset: 0x5577C, size: 0x8, addend: 0x0, symName: __ZNSt9__cxx199813unordered_mapIiNSt7__debug6vectorINSt7__cxx1112basic_stringIcSt11char_traitsIcESaIcEEESaIS8_EEESt4hashIiESt8equal_toIiESaISt4pairIKiSA_EEEixERSG_, symObjAddr: 0x5360, symBinAddr: 0x10000921C, symSize: 0x24 }
  - { offsetInCU: 0x557BA, offset: 0x557BA, size: 0x8, addend: 0x0, symName: __ZNSt7__debug6vectorINSt7__cxx1112basic_stringIcSt11char_traitsIcESaIcEEESaIS6_EE9push_backERKS6_, symObjAddr: 0x52B8, symBinAddr: 0x100009174, symSize: 0x80 }
  - { offsetInCU: 0x557C2, offset: 0x557C2, size: 0x8, addend: 0x0, symName: __ZNSt7__cxx1112basic_stringIcSt11char_traitsIcESaIcEEpLEc, symObjAddr: 0x5338, symBinAddr: 0x1000091F4, symSize: 0x28 }
  - { offsetInCU: 0x55815, offset: 0x55815, size: 0x8, addend: 0x0, symName: __ZN11__gnu_debug12_Safe_vectorINSt7__debug6vectorINSt7__cxx1112basic_stringIcSt11char_traitsIcESaIcEEESaIS8_EEENSt9__cxx19986vectorIS8_S9_EEEaSEOSE_, symObjAddr: 0x528C, symBinAddr: 0x100009148, symSize: 0x2C }
  - { offsetInCU: 0x5581D, offset: 0x5581D, size: 0x8, addend: 0x0, symName: __ZNSt7__debug6vectorINSt7__cxx1112basic_stringIcSt11char_traitsIcESaIcEEESaIS6_EE9push_backERKS6_, symObjAddr: 0x52B8, symBinAddr: 0x100009174, symSize: 0x80 }
  - { offsetInCU: 0x5585A, offset: 0x5585A, size: 0x8, addend: 0x0, symName: __ZNSt9__cxx19986vectorINSt7__cxx1112basic_stringIcSt11char_traitsIcESaIcEEESaIS6_EEaSEOS8_, symObjAddr: 0x5248, symBinAddr: 0x100009104, symSize: 0x44 }
  - { offsetInCU: 0x55862, offset: 0x55862, size: 0x8, addend: 0x0, symName: __ZN11__gnu_debug12_Safe_vectorINSt7__debug6vectorINSt7__cxx1112basic_stringIcSt11char_traitsIcESaIcEEESaIS8_EEENSt9__cxx19986vectorIS8_S9_EEEaSEOSE_, symObjAddr: 0x528C, symBinAddr: 0x100009148, symSize: 0x2C }
  - { offsetInCU: 0x558B5, offset: 0x558B5, size: 0x8, addend: 0x0, symName: __ZN11__gnu_debug15_Safe_containerINSt7__debug6vectorINSt7__cxx1112basic_stringIcSt11char_traitsIcESaIcEEESaIS8_EEES9_NS_14_Safe_sequenceELb1EEaSEOSC_, symObjAddr: 0x51BC, symBinAddr: 0x100009078, symSize: 0x8C }
  - { offsetInCU: 0x558BD, offset: 0x558BD, size: 0x8, addend: 0x0, symName: __ZNSt9__cxx19986vectorINSt7__cxx1112basic_stringIcSt11char_traitsIcESaIcEEESaIS6_EEaSEOS8_, symObjAddr: 0x5248, symBinAddr: 0x100009104, symSize: 0x44 }
  - { offsetInCU: 0x559CD, offset: 0x559CD, size: 0x8, addend: 0x0, symName: __ZN11__gnu_debug12_Safe_vectorINSt7__debug6vectorINSt7__cxx1112basic_stringIcSt11char_traitsIcESaIcEEESaIS8_EEENSt9__cxx19986vectorIS8_S9_EEEC2Ev, symObjAddr: 0x5194, symBinAddr: 0x100009050, symSize: 0x28 }
  - { offsetInCU: 0x559D5, offset: 0x559D5, size: 0x8, addend: 0x0, symName: __ZN11__gnu_debug15_Safe_containerINSt7__debug6vectorINSt7__cxx1112basic_stringIcSt11char_traitsIcESaIcEEESaIS8_EEES9_NS_14_Safe_sequenceELb1EEaSEOSC_, symObjAddr: 0x51BC, symBinAddr: 0x100009078, symSize: 0x8C }
  - { offsetInCU: 0x559F4, offset: 0x559F4, size: 0x8, addend: 0x0, symName: __ZNSt9__cxx199812_Vector_baseINSt7__cxx1112basic_stringIcSt11char_traitsIcESaIcEEESaIS6_EED2Ev, symObjAddr: 0x5144, symBinAddr: 0x100009000, symSize: 0x50 }
  - { offsetInCU: 0x559FC, offset: 0x559FC, size: 0x8, addend: 0x0, symName: __ZN11__gnu_debug12_Safe_vectorINSt7__debug6vectorINSt7__cxx1112basic_stringIcSt11char_traitsIcESaIcEEESaIS8_EEENSt9__cxx19986vectorIS8_S9_EEEC2Ev, symObjAddr: 0x5194, symBinAddr: 0x100009050, symSize: 0x28 }
  - { offsetInCU: 0x55A4D, offset: 0x55A4D, size: 0x8, addend: 0x0, symName: __ZNSt9__cxx199812_Vector_baseINSt7__cxx1112basic_stringIcSt11char_traitsIcESaIcEEESaIS6_EE12_Vector_implC1Ev, symObjAddr: 0x510C, symBinAddr: 0x100008FC8, symSize: 0x38 }
  - { offsetInCU: 0x55A55, offset: 0x55A55, size: 0x8, addend: 0x0, symName: __ZNSt9__cxx199812_Vector_baseINSt7__cxx1112basic_stringIcSt11char_traitsIcESaIcEEESaIS6_EED2Ev, symObjAddr: 0x5144, symBinAddr: 0x100009000, symSize: 0x50 }
  - { offsetInCU: 0x55A60, offset: 0x55A60, size: 0x8, addend: 0x0, symName: __ZNSt9__cxx199813unordered_mapIiNSt7__debug6vectorINSt7__cxx1112basic_stringIcSt11char_traitsIcESaIcEEESaIS8_EEESt4hashIiESt8equal_toIiESaISt4pairIKiSA_EEEixEOi, symObjAddr: 0x50D4, symBinAddr: 0x100008F90, symSize: 0x38 }
  - { offsetInCU: 0x55A68, offset: 0x55A68, size: 0x8, addend: 0x0, symName: __ZNSt9__cxx199812_Vector_baseINSt7__cxx1112basic_stringIcSt11char_traitsIcESaIcEEESaIS6_EE12_Vector_implC1Ev, symObjAddr: 0x510C, symBinAddr: 0x100008FC8, symSize: 0x38 }
  - { offsetInCU: 0x55BB1, offset: 0x55BB1, size: 0x8, addend: 0x0, symName: __ZN11__gnu_debugeqERKNS_14_Safe_iteratorINSt8__detail14_Node_iteratorISt4pairIKiNSt7__debug6vectorINSt7__cxx1112basic_stringIcSt11char_traitsIcESaIcEEESaISC_EEEELb0ELb0EEENS5_13unordered_mapIiSE_St4hashIiESt8equal_toIiESaISF_EEESt20forward_iterator_tagEESR_, symObjAddr: 0x4DE8, symBinAddr: 0x100008CA4, symSize: 0x2EC }
  - { offsetInCU: 0x55BB9, offset: 0x55BB9, size: 0x8, addend: 0x0, symName: __ZNSt9__cxx199813unordered_mapIiNSt7__debug6vectorINSt7__cxx1112basic_stringIcSt11char_traitsIcESaIcEEESaIS8_EEESt4hashIiESt8equal_toIiESaISt4pairIKiSA_EEEixEOi, symObjAddr: 0x50D4, symBinAddr: 0x100008F90, symSize: 0x38 }
  - { offsetInCU: 0x55B3E, offset: 0x55B3E, size: 0x8, addend: 0x0, symName: __ZNSt7__debug13unordered_mapIiNS_6vectorINSt7__cxx1112basic_stringIcSt11char_traitsIcESaIcEEESaIS7_EEESt4hashIiESt8equal_toIiESaISt4pairIKiS9_EEE3endEv, symObjAddr: 0x4DA4, symBinAddr: 0x100008C60, symSize: 0x44 }
  - { offsetInCU: 0x55B46, offset: 0x55B46, size: 0x8, addend: 0x0, symName: __ZN11__gnu_debugeqERKNS_14_Safe_iteratorINSt8__detail14_Node_iteratorISt4pairIKiNSt7__debug6vectorINSt7__cxx1112basic_stringIcSt11char_traitsIcESaIcEEESaISC_EEEELb0ELb0EEENS5_13unordered_mapIiSE_St4hashIiESt8equal_toIiESaISF_EEESt20forward_iterator_tagEESR_, symObjAddr: 0x4DE8, symBinAddr: 0x100008CA4, symSize: 0x2EC }
  - { offsetInCU: 0x55B6F, offset: 0x55B6F, size: 0x8, addend: 0x0, symName: __ZNSt7__debug13unordered_mapIiNS_6vectorINSt7__cxx1112basic_stringIcSt11char_traitsIcESaIcEEESaIS7_EEESt4hashIiESt8equal_toIiESaISt4pairIKiS9_EEE4findERSF_, symObjAddr: 0x4D58, symBinAddr: 0x100008C14, symSize: 0x4C }
  - { offsetInCU: 0x55B77, offset: 0x55B77, size: 0x8, addend: 0x0, symName: __ZNSt7__debug13unordered_mapIiNS_6vectorINSt7__cxx1112basic_stringIcSt11char_traitsIcESaIcEEESaIS7_EEESt4hashIiESt8equal_toIiESaISt4pairIKiS9_EEE3endEv, symObjAddr: 0x4DA4, symBinAddr: 0x100008C60, symSize: 0x44 }
  - { offsetInCU: 0x55CA3, offset: 0x55CA3, size: 0x8, addend: 0x0, symName: __ZN11__gnu_debugneERKNS_14_Safe_iteratorINSt8__detail14_Node_iteratorINSt7__cxx1112basic_stringIcSt11char_traitsIcESaIcEEELb1ELb1EEENSt7__debug13unordered_setIS8_St4hashIS8_ESt8equal_toIS8_ESaIS8_EEESt20forward_iterator_tagEESL_, symObjAddr: 0x4A6C, symBinAddr: 0x100008928, symSize: 0x2EC }
  - { offsetInCU: 0x55CAB, offset: 0x55CAB, size: 0x8, addend: 0x0, symName: __ZNSt7__debug13unordered_mapIiNS_6vectorINSt7__cxx1112basic_stringIcSt11char_traitsIcESaIcEEESaIS7_EEESt4hashIiESt8equal_toIiESaISt4pairIKiS9_EEE4findERSF_, symObjAddr: 0x4D58, symBinAddr: 0x100008C14, symSize: 0x4C }
  - { offsetInCU: 0x55C4D, offset: 0x55C4D, size: 0x8, addend: 0x0, symName: __ZNSt7__debug13unordered_setINSt7__cxx1112basic_stringIcSt11char_traitsIcESaIcEEESt4hashIS6_ESt8equal_toIS6_ESaIS6_EE3endEv, symObjAddr: 0x4A28, symBinAddr: 0x1000088E4, symSize: 0x44 }
  - { offsetInCU: 0x55C55, offset: 0x55C55, size: 0x8, addend: 0x0, symName: __ZN11__gnu_debugneERKNS_14_Safe_iteratorINSt8__detail14_Node_iteratorINSt7__cxx1112basic_stringIcSt11char_traitsIcESaIcEEELb1ELb1EEENSt7__debug13unordered_setIS8_St4hashIS8_ESt8equal_toIS8_ESaIS8_EEESt20forward_iterator_tagEESL_, symObjAddr: 0x4A6C, symBinAddr: 0x100008928, symSize: 0x2EC }
  - { offsetInCU: 0x55C7E, offset: 0x55C7E, size: 0x8, addend: 0x0, symName: __ZNSt7__debug13unordered_setINSt7__cxx1112basic_stringIcSt11char_traitsIcESaIcEEESt4hashIS6_ESt8equal_toIS6_ESaIS6_EE4findERKS6_, symObjAddr: 0x49DC, symBinAddr: 0x100008898, symSize: 0x4C }
  - { offsetInCU: 0x55C86, offset: 0x55C86, size: 0x8, addend: 0x0, symName: __ZNSt7__debug13unordered_setINSt7__cxx1112basic_stringIcSt11char_traitsIcESaIcEEESt4hashIS6_ESt8equal_toIS6_ESaIS6_EE3endEv, symObjAddr: 0x4A28, symBinAddr: 0x1000088E4, symSize: 0x44 }
  - { offsetInCU: 0x55E08, offset: 0x55E08, size: 0x8, addend: 0x0, symName: __ZNSt10_HashtableINSt7__cxx1112basic_stringIcSt11char_traitsIcESaIcEEES5_SaIS5_ENSt8__detail9_IdentityESt8equal_toIS5_ESt4hashIS5_ENS7_18_Mod_range_hashingENS7_20_Default_ranged_hashENS7_20_Prime_rehash_policyENS7_17_Hashtable_traitsILb1ELb1ELb1EEEEC1ERKSI_, symObjAddr: 0x48C0, symBinAddr: 0x10000877C, symSize: 0x11C }
  - { offsetInCU: 0x55E10, offset: 0x55E10, size: 0x8, addend: 0x0, symName: __ZNSt7__debug13unordered_setINSt7__cxx1112basic_stringIcSt11char_traitsIcESaIcEEESt4hashIS6_ESt8equal_toIS6_ESaIS6_EE4findERKS6_, symObjAddr: 0x49DC, symBinAddr: 0x100008898, symSize: 0x4C }
  - { offsetInCU: 0x55E86, offset: 0x55E86, size: 0x8, addend: 0x0, symName: __ZNK11__gnu_debug14_Safe_iteratorINSt8__detail14_Node_iteratorISt4pairIKiNSt7__debug13unordered_setINSt7__cxx1112basic_stringIcSt11char_traitsIcESaIcEEESt4hashISC_ESt8equal_toISC_ESaISC_EEEELb0ELb0EEENS5_13unordered_mapIiSI_SD_IiESF_IiESaISJ_EEESt20forward_iterator_tagEdeEv, symObjAddr: 0x47EC, symBinAddr: 0x1000086A8, symSize: 0xD4 }
  - { offsetInCU: 0x55E8E, offset: 0x55E8E, size: 0x8, addend: 0x0, symName: __ZNSt10_HashtableINSt7__cxx1112basic_stringIcSt11char_traitsIcESaIcEEES5_SaIS5_ENSt8__detail9_IdentityESt8equal_toIS5_ESt4hashIS5_ENS7_18_Mod_range_hashingENS7_20_Default_ranged_hashENS7_20_Prime_rehash_policyENS7_17_Hashtable_traitsILb1ELb1ELb1EEEEC1ERKSI_, symObjAddr: 0x48C0, symBinAddr: 0x10000877C, symSize: 0x11C }
  - { offsetInCU: 0x55EEF, offset: 0x55EEF, size: 0x8, addend: 0x0, symName: __ZN11__gnu_debug14_Safe_iteratorINSt8__detail14_Node_iteratorISt4pairIKiNSt7__debug13unordered_setINSt7__cxx1112basic_stringIcSt11char_traitsIcESaIcEEESt4hashISC_ESt8equal_toISC_ESaISC_EEEELb0ELb0EEENS5_13unordered_mapIiSI_SD_IiESF_IiESaISJ_EEESt20forward_iterator_tagEppEv, symObjAddr: 0x46E8, symBinAddr: 0x1000085A4, symSize: 0x104 }
  - { offsetInCU: 0x55EF7, offset: 0x55EF7, size: 0x8, addend: 0x0, symName: __ZNK11__gnu_debug14_Safe_iteratorINSt8__detail14_Node_iteratorISt4pairIKiNSt7__debug13unordered_setINSt7__cxx1112basic_stringIcSt11char_traitsIcESaIcEEESt4hashISC_ESt8equal_toISC_ESaISC_EEEELb0ELb0EEENS5_13unordered_mapIiSI_SD_IiESF_IiESaISJ_EEESt20forward_iterator_tagEdeEv, symObjAddr: 0x47EC, symBinAddr: 0x1000086A8, symSize: 0xD4 }
  - { offsetInCU: 0x56090, offset: 0x56090, size: 0x8, addend: 0x0, symName: __ZN11__gnu_debugneERKNS_14_Safe_iteratorINSt8__detail14_Node_iteratorISt4pairIKiNSt7__debug13unordered_setINSt7__cxx1112basic_stringIcSt11char_traitsIcESaIcEEESt4hashISC_ESt8equal_toISC_ESaISC_EEEELb0ELb0EEENS5_13unordered_mapIiSI_SD_IiESF_IiESaISJ_EEESt20forward_iterator_tagEEST_, symObjAddr: 0x43FC, symBinAddr: 0x1000082B8, symSize: 0x2EC }
  - { offsetInCU: 0x56098, offset: 0x56098, size: 0x8, addend: 0x0, symName: __ZN11__gnu_debug14_Safe_iteratorINSt8__detail14_Node_iteratorISt4pairIKiNSt7__debug13unordered_setINSt7__cxx1112basic_stringIcSt11char_traitsIcESaIcEEESt4hashISC_ESt8equal_toISC_ESaISC_EEEELb0ELb0EEENS5_13unordered_mapIiSI_SD_IiESF_IiESaISJ_EEESt20forward_iterator_tagEppEv, symObjAddr: 0x46E8, symBinAddr: 0x1000085A4, symSize: 0x104 }
  - { offsetInCU: 0x56005, offset: 0x56005, size: 0x8, addend: 0x0, symName: __ZNSt7__debug13unordered_mapIiNS_13unordered_setINSt7__cxx1112basic_stringIcSt11char_traitsIcESaIcEEESt4hashIS7_ESt8equal_toIS7_ESaIS7_EEES8_IiESA_IiESaISt4pairIKiSD_EEE5beginEv, symObjAddr: 0x43B8, symBinAddr: 0x100008274, symSize: 0x44 }
  - { offsetInCU: 0x5600D, offset: 0x5600D, size: 0x8, addend: 0x0, symName: __ZN11__gnu_debugneERKNS_14_Safe_iteratorINSt8__detail14_Node_iteratorISt4pairIKiNSt7__debug13unordered_setINSt7__cxx1112basic_stringIcSt11char_traitsIcESaIcEEESt4hashISC_ESt8equal_toISC_ESaISC_EEEELb0ELb0EEENS5_13unordered_mapIiSI_SD_IiESF_IiESaISJ_EEESt20forward_iterator_tagEEST_, symObjAddr: 0x43FC, symBinAddr: 0x1000082B8, symSize: 0x2EC }
  - { offsetInCU: 0x56036, offset: 0x56036, size: 0x8, addend: 0x0, symName: __ZNSt7__debug13unordered_setINSt7__cxx1112basic_stringIcSt11char_traitsIcESaIcEEESt4hashIS6_ESt8equal_toIS6_ESaIS6_EE6insertERKS6_, symObjAddr: 0x4328, symBinAddr: 0x1000081E4, symSize: 0x90 }
  - { offsetInCU: 0x5603E, offset: 0x5603E, size: 0x8, addend: 0x0, symName: __ZNSt7__debug13unordered_mapIiNS_13unordered_setINSt7__cxx1112basic_stringIcSt11char_traitsIcESaIcEEESt4hashIS7_ESt8equal_toIS7_ESaIS7_EEES8_IiESA_IiESaISt4pairIKiSD_EEE5beginEv, symObjAddr: 0x43B8, symBinAddr: 0x100008274, symSize: 0x44 }
  - { offsetInCU: 0x560A8, offset: 0x560A8, size: 0x8, addend: 0x0, symName: __ZNSt10_HashtableINSt7__cxx1112basic_stringIcSt11char_traitsIcESaIcEEES5_SaIS5_ENSt8__detail9_IdentityESt8equal_toIS5_ESt4hashIS5_ENS7_18_Mod_range_hashingENS7_20_Default_ranged_hashENS7_20_Prime_rehash_policyENS7_17_Hashtable_traitsILb1ELb1ELb1EEEEaSEOSI_, symObjAddr: 0x42E4, symBinAddr: 0x1000081A0, symSize: 0x44 }
  - { offsetInCU: 0x560B0, offset: 0x560B0, size: 0x8, addend: 0x0, symName: __ZNSt7__debug13unordered_setINSt7__cxx1112basic_stringIcSt11char_traitsIcESaIcEEESt4hashIS6_ESt8equal_toIS6_ESaIS6_EE6insertERKS6_, symObjAddr: 0x4328, symBinAddr: 0x1000081E4, symSize: 0x90 }
  - { offsetInCU: 0x56103, offset: 0x56103, size: 0x8, addend: 0x0, symName: __ZN11__gnu_debug15_Safe_containerINSt7__debug13unordered_setINSt7__cxx1112basic_stringIcSt11char_traitsIcESaIcEEESt4hashIS8_ESt8equal_toIS8_ESaIS8_EEESD_NS_25_Safe_unordered_containerELb1EEaSEOSG_, symObjAddr: 0x4258, symBinAddr: 0x100008114, symSize: 0x8C }
  - { offsetInCU: 0x5610B, offset: 0x5610B, size: 0x8, addend: 0x0, symName: __ZNSt10_HashtableINSt7__cxx1112basic_stringIcSt11char_traitsIcESaIcEEES5_SaIS5_ENSt8__detail9_IdentityESt8equal_toIS5_ESt4hashIS5_ENS7_18_Mod_range_hashingENS7_20_Default_ranged_hashENS7_20_Prime_rehash_policyENS7_17_Hashtable_traitsILb1ELb1ELb1EEEEaSEOSI_, symObjAddr: 0x42E4, symBinAddr: 0x1000081A0, symSize: 0x44 }
  - { offsetInCU: 0x56296, offset: 0x56296, size: 0x8, addend: 0x0, symName: __ZNSt10_HashtableINSt7__cxx1112basic_stringIcSt11char_traitsIcESaIcEEES5_SaIS5_ENSt8__detail9_IdentityESt8equal_toIS5_ESt4hashIS5_ENS7_18_Mod_range_hashingENS7_20_Default_ranged_hashENS7_20_Prime_rehash_policyENS7_17_Hashtable_traitsILb1ELb1ELb1EEEED1Ev, symObjAddr: 0x4228, symBinAddr: 0x1000080E4, symSize: 0x30 }
  - { offsetInCU: 0x5629E, offset: 0x5629E, size: 0x8, addend: 0x0, symName: __ZN11__gnu_debug15_Safe_containerINSt7__debug13unordered_setINSt7__cxx1112basic_stringIcSt11char_traitsIcESaIcEEESt4hashIS8_ESt8equal_toIS8_ESaIS8_EEESD_NS_25_Safe_unordered_containerELb1EEaSEOSG_, symObjAddr: 0x4258, symBinAddr: 0x100008114, symSize: 0x8C }
  - { offsetInCU: 0x5628F, offset: 0x5628F, size: 0x8, addend: 0x0, symName: __ZNSt8__detail21_Hashtable_ebo_helperILi0ESaINS_10_Hash_nodeINSt7__cxx1112basic_stringIcSt11char_traitsIcESaIcEEELb1EEEELb1EEC2Ev, symObjAddr: 0x41FC, symBinAddr: 0x1000080B8, symSize: 0x2C }
  - { offsetInCU: 0x56297, offset: 0x56297, size: 0x8, addend: 0x0, symName: __ZNSt10_HashtableINSt7__cxx1112basic_stringIcSt11char_traitsIcESaIcEEES5_SaIS5_ENSt8__detail9_IdentityESt8equal_toIS5_ESt4hashIS5_ENS7_18_Mod_range_hashingENS7_20_Default_ranged_hashENS7_20_Prime_rehash_policyENS7_17_Hashtable_traitsILb1ELb1ELb1EEEED1Ev, symObjAddr: 0x4228, symBinAddr: 0x1000080E4, symSize: 0x30 }
  - { offsetInCU: 0x5628D, offset: 0x5628D, size: 0x8, addend: 0x0, symName: __ZNSt9__cxx199813unordered_mapIiNSt7__debug13unordered_setINSt7__cxx1112basic_stringIcSt11char_traitsIcESaIcEEESt4hashIS8_ESt8equal_toIS8_ESaIS8_EEES9_IiESB_IiESaISt4pairIKiSE_EEEixEOi, symObjAddr: 0x41C4, symBinAddr: 0x100008080, symSize: 0x38 }
  - { offsetInCU: 0x56295, offset: 0x56295, size: 0x8, addend: 0x0, symName: __ZNSt8__detail21_Hashtable_ebo_helperILi0ESaINS_10_Hash_nodeINSt7__cxx1112basic_stringIcSt11char_traitsIcESaIcEEELb1EEEELb1EEC2Ev, symObjAddr: 0x41FC, symBinAddr: 0x1000080B8, symSize: 0x2C }
  - { offsetInCU: 0x563F6, offset: 0x563F6, size: 0x8, addend: 0x0, symName: __ZN11__gnu_debugeqERKNS_14_Safe_iteratorINSt8__detail14_Node_iteratorISt4pairIKiNSt7__debug13unordered_setINSt7__cxx1112basic_stringIcSt11char_traitsIcESaIcEEESt4hashISC_ESt8equal_toISC_ESaISC_EEEELb0ELb0EEENS5_13unordered_mapIiSI_SD_IiESF_IiESaISJ_EEESt20forward_iterator_tagEEST_, symObjAddr: 0x3ED8, symBinAddr: 0x100007D94, symSize: 0x2EC }
  - { offsetInCU: 0x563FE, offset: 0x563FE, size: 0x8, addend: 0x0, symName: __ZNSt9__cxx199813unordered_mapIiNSt7__debug13unordered_setINSt7__cxx1112basic_stringIcSt11char_traitsIcESaIcEEESt4hashIS8_ESt8equal_toIS8_ESaIS8_EEES9_IiESB_IiESaISt4pairIKiSE_EEEixEOi, symObjAddr: 0x41C4, symBinAddr: 0x100008080, symSize: 0x38 }
  - { offsetInCU: 0x56342, offset: 0x56342, size: 0x8, addend: 0x0, symName: __ZNSt7__debug13unordered_mapIiNS_13unordered_setINSt7__cxx1112basic_stringIcSt11char_traitsIcESaIcEEESt4hashIS7_ESt8equal_toIS7_ESaIS7_EEES8_IiESA_IiESaISt4pairIKiSD_EEE3endEv, symObjAddr: 0x3E94, symBinAddr: 0x100007D50, symSize: 0x44 }
  - { offsetInCU: 0x5634A, offset: 0x5634A, size: 0x8, addend: 0x0, symName: __ZN11__gnu_debugeqERKNS_14_Safe_iteratorINSt8__detail14_Node_iteratorISt4pairIKiNSt7__debug13unordered_setINSt7__cxx1112basic_stringIcSt11char_traitsIcESaIcEEESt4hashISC_ESt8equal_toISC_ESaISC_EEEELb0ELb0EEENS5_13unordered_mapIiSI_SD_IiESF_IiESaISJ_EEESt20forward_iterator_tagEEST_, symObjAddr: 0x3ED8, symBinAddr: 0x100007D94, symSize: 0x2EC }
  - { offsetInCU: 0x56373, offset: 0x56373, size: 0x8, addend: 0x0, symName: __ZNSt7__debug13unordered_mapIiNS_13unordered_setINSt7__cxx1112basic_stringIcSt11char_traitsIcESaIcEEESt4hashIS7_ESt8equal_toIS7_ESaIS7_EEES8_IiESA_IiESaISt4pairIKiSD_EEE4findERSH_, symObjAddr: 0x3E48, symBinAddr: 0x100007D04, symSize: 0x4C }
  - { offsetInCU: 0x5637B, offset: 0x5637B, size: 0x8, addend: 0x0, symName: __ZNSt7__debug13unordered_mapIiNS_13unordered_setINSt7__cxx1112basic_stringIcSt11char_traitsIcESaIcEEESt4hashIS7_ESt8equal_toIS7_ESaIS7_EEES8_IiESA_IiESaISt4pairIKiSD_EEE3endEv, symObjAddr: 0x3E94, symBinAddr: 0x100007D50, symSize: 0x44 }
  - { offsetInCU: 0x563B9, offset: 0x563B9, size: 0x8, addend: 0x0, symName: __ZNKSt7__cxx1112basic_stringIcSt11char_traitsIcESaIcEE6lengthEv, symObjAddr: 0x3E30, symBinAddr: 0x100007CEC, symSize: 0x18 }
  - { offsetInCU: 0x563C1, offset: 0x563C1, size: 0x8, addend: 0x0, symName: __ZNSt7__debug13unordered_mapIiNS_13unordered_setINSt7__cxx1112basic_stringIcSt11char_traitsIcESaIcEEESt4hashIS7_ESt8equal_toIS7_ESaIS7_EEES8_IiESA_IiESaISt4pairIKiSD_EEE4findERSH_, symObjAddr: 0x3E48, symBinAddr: 0x100007D04, symSize: 0x4C }
  - { offsetInCU: 0x563EA, offset: 0x563EA, size: 0x8, addend: 0x0, symName: __ZNK11__gnu_debug14_Safe_iteratorIN9__gnu_cxx17__normal_iteratorIPNSt7__cxx1112basic_stringIcSt11char_traitsIcESaIcEEENSt9__cxx19986vectorIS8_SaIS8_EEEEENSt7__debug6vectorIS8_SC_EESt20forward_iterator_tagEdeEv, symObjAddr: 0x3D5C, symBinAddr: 0x100007C18, symSize: 0xD4 }
  - { offsetInCU: 0x563F2, offset: 0x563F2, size: 0x8, addend: 0x0, symName: __ZNKSt7__cxx1112basic_stringIcSt11char_traitsIcESaIcEE6lengthEv, symObjAddr: 0x3E30, symBinAddr: 0x100007CEC, symSize: 0x18 }
  - { offsetInCU: 0x56453, offset: 0x56453, size: 0x8, addend: 0x0, symName: __ZN11__gnu_debug14_Safe_iteratorIN9__gnu_cxx17__normal_iteratorIPNSt7__cxx1112basic_stringIcSt11char_traitsIcESaIcEEENSt9__cxx19986vectorIS8_SaIS8_EEEEENSt7__debug6vectorIS8_SC_EESt26random_access_iterator_tagEppEv, symObjAddr: 0x3D3C, symBinAddr: 0x100007BF8, symSize: 0x20 }
  - { offsetInCU: 0x5645B, offset: 0x5645B, size: 0x8, addend: 0x0, symName: __ZNK11__gnu_debug14_Safe_iteratorIN9__gnu_cxx17__normal_iteratorIPNSt7__cxx1112basic_stringIcSt11char_traitsIcESaIcEEENSt9__cxx19986vectorIS8_SaIS8_EEEEENSt7__debug6vectorIS8_SC_EESt20forward_iterator_tagEdeEv, symObjAddr: 0x3D5C, symBinAddr: 0x100007C18, symSize: 0xD4 }
  - { offsetInCU: 0x5656C, offset: 0x5656C, size: 0x8, addend: 0x0, symName: __ZN11__gnu_debugneERKNS_14_Safe_iteratorIN9__gnu_cxx17__normal_iteratorIPNSt7__cxx1112basic_stringIcSt11char_traitsIcESaIcEEENSt9__cxx19986vectorIS8_SaIS8_EEEEENSt7__debug6vectorIS8_SC_EESt26random_access_iterator_tagEESL_, symObjAddr: 0x3A50, symBinAddr: 0x10000790C, symSize: 0x2EC }
  - { offsetInCU: 0x56574, offset: 0x56574, size: 0x8, addend: 0x0, symName: __ZN11__gnu_debug14_Safe_iteratorIN9__gnu_cxx17__normal_iteratorIPNSt7__cxx1112basic_stringIcSt11char_traitsIcESaIcEEENSt9__cxx19986vectorIS8_SaIS8_EEEEENSt7__debug6vectorIS8_SC_EESt26random_access_iterator_tagEppEv, symObjAddr: 0x3D3C, symBinAddr: 0x100007BF8, symSize: 0x20 }
  - { offsetInCU: 0x5651C, offset: 0x5651C, size: 0x8, addend: 0x0, symName: __ZNSt7__debug6vectorINSt7__cxx1112basic_stringIcSt11char_traitsIcESaIcEEESaIS6_EE3endEv, symObjAddr: 0x3A0C, symBinAddr: 0x1000078C8, symSize: 0x44 }
  - { offsetInCU: 0x56524, offset: 0x56524, size: 0x8, addend: 0x0, symName: __ZN11__gnu_debugneERKNS_14_Safe_iteratorIN9__gnu_cxx17__normal_iteratorIPNSt7__cxx1112basic_stringIcSt11char_traitsIcESaIcEEENSt9__cxx19986vectorIS8_SaIS8_EEEEENSt7__debug6vectorIS8_SC_EESt26random_access_iterator_tagEESL_, symObjAddr: 0x3A50, symBinAddr: 0x10000790C, symSize: 0x2EC }
  - { offsetInCU: 0x5654D, offset: 0x5654D, size: 0x8, addend: 0x0, symName: __ZNSt7__debug6vectorINSt7__cxx1112basic_stringIcSt11char_traitsIcESaIcEEESaIS6_EE5beginEv, symObjAddr: 0x39C8, symBinAddr: 0x100007884, symSize: 0x44 }
  - { offsetInCU: 0x56555, offset: 0x56555, size: 0x8, addend: 0x0, symName: __ZNSt7__debug6vectorINSt7__cxx1112basic_stringIcSt11char_traitsIcESaIcEEESaIS6_EE3endEv, symObjAddr: 0x3A0C, symBinAddr: 0x1000078C8, symSize: 0x44 }
  - { offsetInCU: 0x566E1, offset: 0x566E1, size: 0x8, addend: 0x0, symName: __ZNSt10_HashtableIiSt4pairIKiNSt7__debug13unordered_setINSt7__cxx1112basic_stringIcSt11char_traitsIcESaIcEEESt4hashIS9_ESt8equal_toIS9_ESaIS9_EEEESaISG_ENSt8__detail10_Select1stESC_IiESA_IiENSI_18_Mod_range_hashingENSI_20_Default_ranged_hashENSI_20_Prime_rehash_policyENSI_17_Hashtable_traitsILb0ELb0ELb1EEEED1Ev, symObjAddr: 0x3998, symBinAddr: 0x100007854, symSize: 0x30 }
  - { offsetInCU: 0x566E9, offset: 0x566E9, size: 0x8, addend: 0x0, symName: __ZNSt7__debug6vectorINSt7__cxx1112basic_stringIcSt11char_traitsIcESaIcEEESaIS6_EE5beginEv, symObjAddr: 0x39C8, symBinAddr: 0x100007884, symSize: 0x44 }
  - { offsetInCU: 0x566EA, offset: 0x566EA, size: 0x8, addend: 0x0, symName: __ZNSt8__detail21_Hashtable_ebo_helperILi0ESaINS_10_Hash_nodeISt4pairIKiNSt7__debug13unordered_setINSt7__cxx1112basic_stringIcSt11char_traitsIcESaIcEEESt4hashISB_ESt8equal_toISB_ESaISB_EEEELb0EEEELb1EEC2Ev, symObjAddr: 0x396C, symBinAddr: 0x100007828, symSize: 0x2C }
  - { offsetInCU: 0x566F2, offset: 0x566F2, size: 0x8, addend: 0x0, symName: __ZNSt10_HashtableIiSt4pairIKiNSt7__debug13unordered_setINSt7__cxx1112basic_stringIcSt11char_traitsIcESaIcEEESt4hashIS9_ESt8equal_toIS9_ESaIS9_EEEESaISG_ENSt8__detail10_Select1stESC_IiESA_IiENSI_18_Mod_range_hashingENSI_20_Default_ranged_hashENSI_20_Prime_rehash_policyENSI_17_Hashtable_traitsILb0ELb0ELb1EEEED1Ev, symObjAddr: 0x3998, symBinAddr: 0x100007854, symSize: 0x30 }
  - { offsetInCU: 0x567E8, offset: 0x567E8, size: 0x8, addend: 0x0, symName: __ZNSt10_HashtableIiSt4pairIKiNSt7__debug6vectorINSt7__cxx1112basic_stringIcSt11char_traitsIcESaIcEEESaIS9_EEEESaISC_ENSt8__detail10_Select1stESt8equal_toIiESt4hashIiENSE_18_Mod_range_hashingENSE_20_Default_ranged_hashENSE_20_Prime_rehash_policyENSE_17_Hashtable_traitsILb0ELb0ELb1EEEED1Ev, symObjAddr: 0x393C, symBinAddr: 0x1000077F8, symSize: 0x30 }
  - { offsetInCU: 0x567F0, offset: 0x567F0, size: 0x8, addend: 0x0, symName: __ZNSt8__detail21_Hashtable_ebo_helperILi0ESaINS_10_Hash_nodeISt4pairIKiNSt7__debug13unordered_setINSt7__cxx1112basic_stringIcSt11char_traitsIcESaIcEEESt4hashISB_ESt8equal_toISB_ESaISB_EEEELb0EEEELb1EEC2Ev, symObjAddr: 0x396C, symBinAddr: 0x100007828, symSize: 0x2C }
  - { offsetInCU: 0x567E5, offset: 0x567E5, size: 0x8, addend: 0x0, symName: __ZNSt8__detail21_Hashtable_ebo_helperILi0ESaINS_10_Hash_nodeISt4pairIKiNSt7__debug6vectorINSt7__cxx1112basic_stringIcSt11char_traitsIcESaIcEEESaISB_EEEELb0EEEELb1EEC2Ev, symObjAddr: 0x3910, symBinAddr: 0x1000077CC, symSize: 0x2C }
  - { offsetInCU: 0x567ED, offset: 0x567ED, size: 0x8, addend: 0x0, symName: __ZNSt10_HashtableIiSt4pairIKiNSt7__debug6vectorINSt7__cxx1112basic_stringIcSt11char_traitsIcESaIcEEESaIS9_EEEESaISC_ENSt8__detail10_Select1stESt8equal_toIiESt4hashIiENSE_18_Mod_range_hashingENSE_20_Default_ranged_hashENSE_20_Prime_rehash_policyENSE_17_Hashtable_traitsILb0ELb0ELb1EEEED1Ev, symObjAddr: 0x393C, symBinAddr: 0x1000077F8, symSize: 0x30 }
  - { offsetInCU: 0x56819, offset: 0x56819, size: 0x8, addend: 0x0, symName: __ZNSt8__detail21_Hashtable_ebo_helperILi0ESt8equal_toIiELb1EEC2Ev, symObjAddr: 0x38FC, symBinAddr: 0x1000077B8, symSize: 0x14 }
  - { offsetInCU: 0x56821, offset: 0x56821, size: 0x8, addend: 0x0, symName: __ZNSt8__detail21_Hashtable_ebo_helperILi0ESaINS_10_Hash_nodeISt4pairIKiNSt7__debug6vectorINSt7__cxx1112basic_stringIcSt11char_traitsIcESaIcEEESaISB_EEEELb0EEEELb1EEC2Ev, symObjAddr: 0x3910, symBinAddr: 0x1000077CC, symSize: 0x2C }
  - { offsetInCU: 0x56860, offset: 0x56860, size: 0x8, addend: 0x0, symName: __ZNSt8__detail21_Hashtable_ebo_helperILi1ESt4hashIiELb1EEC2Ev, symObjAddr: 0x38E8, symBinAddr: 0x1000077A4, symSize: 0x14 }
  - { offsetInCU: 0x56868, offset: 0x56868, size: 0x8, addend: 0x0, symName: __ZNSt8__detail21_Hashtable_ebo_helperILi0ESt8equal_toIiELb1EEC2Ev, symObjAddr: 0x38FC, symBinAddr: 0x1000077B8, symSize: 0x14 }
  - { offsetInCU: 0x56852, offset: 0x56852, size: 0x8, addend: 0x0, symName: __ZNSt7__debug6vectorIiSaIiEEixEm, symObjAddr: 0x37C0, symBinAddr: 0x10000767C, symSize: 0x128 }
  - { offsetInCU: 0x5685A, offset: 0x5685A, size: 0x8, addend: 0x0, symName: __ZNSt8__detail21_Hashtable_ebo_helperILi1ESt4hashIiELb1EEC2Ev, symObjAddr: 0x38E8, symBinAddr: 0x1000077A4, symSize: 0x14 }
  - { offsetInCU: 0x568CE, offset: 0x568CE, size: 0x8, addend: 0x0, symName: __ZNSt9__cxx199813unordered_mapINSt7__cxx1112basic_stringIcSt11char_traitsIcESaIcEEEiSt4hashIS6_ESt8equal_toIS6_ESaISt4pairIKS6_iEEEixERSC_, symObjAddr: 0x379C, symBinAddr: 0x100007658, symSize: 0x24 }
  - { offsetInCU: 0x568D6, offset: 0x568D6, size: 0x8, addend: 0x0, symName: __ZNSt7__debug6vectorIiSaIiEEixEm, symObjAddr: 0x37C0, symBinAddr: 0x10000767C, symSize: 0x128 }
  - { offsetInCU: 0x56A0E, offset: 0x56A0E, size: 0x8, addend: 0x0, symName: __ZN11__gnu_debugneERKNS_14_Safe_iteratorINSt8__detail14_Node_iteratorISt4pairIKNSt7__cxx1112basic_stringIcSt11char_traitsIcESaIcEEEiELb0ELb1EEENSt7__debug13unordered_mapIS9_iSt4hashIS9_ESt8equal_toIS9_ESaISB_EEESt20forward_iterator_tagEESO_, symObjAddr: 0x34B0, symBinAddr: 0x10000736C, symSize: 0x2EC }
  - { offsetInCU: 0x56A16, offset: 0x56A16, size: 0x8, addend: 0x0, symName: __ZNSt9__cxx199813unordered_mapINSt7__cxx1112basic_stringIcSt11char_traitsIcESaIcEEEiSt4hashIS6_ESt8equal_toIS6_ESaISt4pairIKS6_iEEEixERSC_, symObjAddr: 0x379C, symBinAddr: 0x100007658, symSize: 0x24 }
  - { offsetInCU: 0x569AC, offset: 0x569AC, size: 0x8, addend: 0x0, symName: __ZNSt7__debug13unordered_mapINSt7__cxx1112basic_stringIcSt11char_traitsIcESaIcEEEiSt4hashIS6_ESt8equal_toIS6_ESaISt4pairIKS6_iEEE3endEv, symObjAddr: 0x346C, symBinAddr: 0x100007328, symSize: 0x44 }
  - { offsetInCU: 0x569B4, offset: 0x569B4, size: 0x8, addend: 0x0, symName: __ZN11__gnu_debugneERKNS_14_Safe_iteratorINSt8__detail14_Node_iteratorISt4pairIKNSt7__cxx1112basic_stringIcSt11char_traitsIcESaIcEEEiELb0ELb1EEENSt7__debug13unordered_mapIS9_iSt4hashIS9_ESt8equal_toIS9_ESaISB_EEESt20forward_iterator_tagEESO_, symObjAddr: 0x34B0, symBinAddr: 0x10000736C, symSize: 0x2EC }
  - { offsetInCU: 0x569DD, offset: 0x569DD, size: 0x8, addend: 0x0, symName: __ZNSt7__debug13unordered_mapINSt7__cxx1112basic_stringIcSt11char_traitsIcESaIcEEEiSt4hashIS6_ESt8equal_toIS6_ESaISt4pairIKS6_iEEE4findERSC_, symObjAddr: 0x3420, symBinAddr: 0x1000072DC, symSize: 0x4C }
  - { offsetInCU: 0x569E5, offset: 0x569E5, size: 0x8, addend: 0x0, symName: __ZNSt7__debug13unordered_mapINSt7__cxx1112basic_stringIcSt11char_traitsIcESaIcEEEiSt4hashIS6_ESt8equal_toIS6_ESaISt4pairIKS6_iEEE3endEv, symObjAddr: 0x346C, symBinAddr: 0x100007328, symSize: 0x44 }
  - { offsetInCU: 0x56A23, offset: 0x56A23, size: 0x8, addend: 0x0, symName: __ZNSt7__debug6vectorINSt7__cxx1112basic_stringIcSt11char_traitsIcESaIcEEESaIS6_EEixEm, symObjAddr: 0x32F8, symBinAddr: 0x1000071B4, symSize: 0x128 }
  - { offsetInCU: 0x56A2B, offset: 0x56A2B, size: 0x8, addend: 0x0, symName: __ZNSt7__debug13unordered_mapINSt7__cxx1112basic_stringIcSt11char_traitsIcESaIcEEEiSt4hashIS6_ESt8equal_toIS6_ESaISt4pairIKS6_iEEE4findERSC_, symObjAddr: 0x3420, symBinAddr: 0x1000072DC, symSize: 0x4C }
  - { offsetInCU: 0x56AA1, offset: 0x56AA1, size: 0x8, addend: 0x0, symName: __ZNKSt9__cxx19986vectorINSt7__cxx1112basic_stringIcSt11char_traitsIcESaIcEEESaIS6_EE4sizeEv, symObjAddr: 0x32D0, symBinAddr: 0x10000718C, symSize: 0x28 }
  - { offsetInCU: 0x56AA9, offset: 0x56AA9, size: 0x8, addend: 0x0, symName: __ZNSt7__debug6vectorINSt7__cxx1112basic_stringIcSt11char_traitsIcESaIcEEESaIS6_EEixEm, symObjAddr: 0x32F8, symBinAddr: 0x1000071B4, symSize: 0x128 }
  - { offsetInCU: 0x56C07, offset: 0x56C07, size: 0x8, addend: 0x0, symName: __ZNSt10_HashtableINSt7__cxx1112basic_stringIcSt11char_traitsIcESaIcEEESt4pairIKS5_iESaIS8_ENSt8__detail10_Select1stESt8equal_toIS5_ESt4hashIS5_ENSA_18_Mod_range_hashingENSA_20_Default_ranged_hashENSA_20_Prime_rehash_policyENSA_17_Hashtable_traitsILb1ELb0ELb1EEEED1Ev, symObjAddr: 0x32A0, symBinAddr: 0x10000715C, symSize: 0x30 }
  - { offsetInCU: 0x56C0F, offset: 0x56C0F, size: 0x8, addend: 0x0, symName: __ZNKSt9__cxx19986vectorINSt7__cxx1112basic_stringIcSt11char_traitsIcESaIcEEESaIS6_EE4sizeEv, symObjAddr: 0x32D0, symBinAddr: 0x10000718C, symSize: 0x28 }
  - { offsetInCU: 0x56BFE, offset: 0x56BFE, size: 0x8, addend: 0x0, symName: __ZNSt8__detail21_Hashtable_ebo_helperILi0ESaINS_10_Hash_nodeISt4pairIKNSt7__cxx1112basic_stringIcSt11char_traitsIcESaIcEEEiELb1EEEELb1EEC2Ev, symObjAddr: 0x3274, symBinAddr: 0x100007130, symSize: 0x2C }
  - { offsetInCU: 0x56C06, offset: 0x56C06, size: 0x8, addend: 0x0, symName: __ZNSt10_HashtableINSt7__cxx1112basic_stringIcSt11char_traitsIcESaIcEEESt4pairIKS5_iESaIS8_ENSt8__detail10_Select1stESt8equal_toIS5_ESt4hashIS5_ENSA_18_Mod_range_hashingENSA_20_Default_ranged_hashENSA_20_Prime_rehash_policyENSA_17_Hashtable_traitsILb1ELb0ELb1EEEED1Ev, symObjAddr: 0x32A0, symBinAddr: 0x10000715C, symSize: 0x30 }
  - { offsetInCU: 0x56C81, offset: 0x56C81, size: 0x8, addend: 0x0, symName: __ZNSt8__detail21_Hashtable_ebo_helperILi0ESt8equal_toINSt7__cxx1112basic_stringIcSt11char_traitsIcESaIcEEEELb1EEC2Ev, symObjAddr: 0x3260, symBinAddr: 0x10000711C, symSize: 0x14 }
  - { offsetInCU: 0x56C89, offset: 0x56C89, size: 0x8, addend: 0x0, symName: __ZNSt8__detail21_Hashtable_ebo_helperILi0ESaINS_10_Hash_nodeISt4pairIKNSt7__cxx1112basic_stringIcSt11char_traitsIcESaIcEEEiELb1EEEELb1EEC2Ev, symObjAddr: 0x3274, symBinAddr: 0x100007130, symSize: 0x2C }
  - { offsetInCU: 0x56CC8, offset: 0x56CC8, size: 0x8, addend: 0x0, symName: __ZNSt8__detail21_Hashtable_ebo_helperILi1ESt4hashINSt7__cxx1112basic_stringIcSt11char_traitsIcESaIcEEEELb1EEC2Ev, symObjAddr: 0x324C, symBinAddr: 0x100007108, symSize: 0x14 }
  - { offsetInCU: 0x56CD0, offset: 0x56CD0, size: 0x8, addend: 0x0, symName: __ZNSt8__detail21_Hashtable_ebo_helperILi0ESt8equal_toINSt7__cxx1112basic_stringIcSt11char_traitsIcESaIcEEEELb1EEC2Ev, symObjAddr: 0x3260, symBinAddr: 0x10000711C, symSize: 0x14 }
  - { offsetInCU: 0x56CD4, offset: 0x56CD4, size: 0x8, addend: 0x0, symName: __ZNSt9__cxx19986vectorIiSaIiEED2Ev, symObjAddr: 0x31F0, symBinAddr: 0x1000070AC, symSize: 0x5C }
  - { offsetInCU: 0x56CDC, offset: 0x56CDC, size: 0x8, addend: 0x0, symName: __ZNSt8__detail21_Hashtable_ebo_helperILi1ESt4hashINSt7__cxx1112basic_stringIcSt11char_traitsIcESaIcEEEELb1EEC2Ev, symObjAddr: 0x324C, symBinAddr: 0x100007108, symSize: 0x14 }
  - { offsetInCU: 0x56D9C, offset: 0x56D9C, size: 0x8, addend: 0x0, symName: __ZNSt7__debug6vectorIiSaIiEEC1ESt16initializer_listIiERKS1_, symObjAddr: 0x318C, symBinAddr: 0x100007048, symSize: 0x64 }
  - { offsetInCU: 0x56DA4, offset: 0x56DA4, size: 0x8, addend: 0x0, symName: __ZNSt9__cxx19986vectorIiSaIiEED2Ev, symObjAddr: 0x31F0, symBinAddr: 0x1000070AC, symSize: 0x5C }
  - { offsetInCU: 0x56E23, offset: 0x56E23, size: 0x8, addend: 0x0, symName: __ZN11__gnu_debug15_Safe_containerINSt7__debug6vectorIiSaIiEEES3_NS_14_Safe_sequenceELb1EEC2Ev, symObjAddr: 0x316C, symBinAddr: 0x100007028, symSize: 0x20 }
  - { offsetInCU: 0x56E2B, offset: 0x56E2B, size: 0x8, addend: 0x0, symName: __ZNSt7__debug6vectorIiSaIiEEC1ESt16initializer_listIiERKS1_, symObjAddr: 0x318C, symBinAddr: 0x100007048, symSize: 0x64 }
  - { offsetInCU: 0x56E68, offset: 0x56E68, size: 0x8, addend: 0x0, symName: __ZN11__gnu_debug14_Safe_sequenceINSt7__debug6vectorIiSaIiEEEEC2Ev, symObjAddr: 0x314C, symBinAddr: 0x100007008, symSize: 0x20 }
  - { offsetInCU: 0x56E70, offset: 0x56E70, size: 0x8, addend: 0x0, symName: __ZN11__gnu_debug15_Safe_containerINSt7__debug6vectorIiSaIiEEES3_NS_14_Safe_sequenceELb1EEC2Ev, symObjAddr: 0x316C, symBinAddr: 0x100007028, symSize: 0x20 }
  - { offsetInCU: 0x56F1D, offset: 0x56F1D, size: 0x8, addend: 0x0, symName: __ZNSt9__cxx19986vectorINSt7__cxx1112basic_stringIcSt11char_traitsIcESaIcEEESaIS6_EED1Ev, symObjAddr: 0x30F0, symBinAddr: 0x100006FAC, symSize: 0x5C }
  - { offsetInCU: 0x56F25, offset: 0x56F25, size: 0x8, addend: 0x0, symName: __ZN11__gnu_debug14_Safe_sequenceINSt7__debug6vectorIiSaIiEEEEC2Ev, symObjAddr: 0x314C, symBinAddr: 0x100007008, symSize: 0x20 }
  - { offsetInCU: 0x56F8F, offset: 0x56F8F, size: 0x8, addend: 0x0, symName: __ZNSt9__cxx19986vectorINSt7__cxx1112basic_stringIcSt11char_traitsIcESaIcEEESaIS6_EED2Ev, symObjAddr: 0x3094, symBinAddr: 0x100006F50, symSize: 0x5C }
  - { offsetInCU: 0x56F97, offset: 0x56F97, size: 0x8, addend: 0x0, symName: __ZNSt9__cxx19986vectorINSt7__cxx1112basic_stringIcSt11char_traitsIcESaIcEEESaIS6_EED1Ev, symObjAddr: 0x30F0, symBinAddr: 0x100006FAC, symSize: 0x5C }
  - { offsetInCU: 0x57099, offset: 0x57099, size: 0x8, addend: 0x0, symName: __ZNSt7__debug6vectorINSt7__cxx1112basic_stringIcSt11char_traitsIcESaIcEEESaIS6_EEC1IPKPKcvEET_SE_RKS7_, symObjAddr: 0x2FF0, symBinAddr: 0x100006EAC, symSize: 0xA4 }
  - { offsetInCU: 0x570A1, offset: 0x570A1, size: 0x8, addend: 0x0, symName: __ZNSt9__cxx19986vectorINSt7__cxx1112basic_stringIcSt11char_traitsIcESaIcEEESaIS6_EED2Ev, symObjAddr: 0x3094, symBinAddr: 0x100006F50, symSize: 0x5C }
  - { offsetInCU: 0x570EF, offset: 0x570EF, size: 0x8, addend: 0x0, symName: __ZNKSt7__cxx1112basic_stringIcSt11char_traitsIcESaIcEE6substrEmm, symObjAddr: 0x2F9C, symBinAddr: 0x100006E58, symSize: 0x54 }
  - { offsetInCU: 0x570F7, offset: 0x570F7, size: 0x8, addend: 0x0, symName: __ZNSt7__debug6vectorINSt7__cxx1112basic_stringIcSt11char_traitsIcESaIcEEESaIS6_EEC1IPKPKcvEET_SE_RKS7_, symObjAddr: 0x2FF0, symBinAddr: 0x100006EAC, symSize: 0xA4 }
  - { offsetInCU: 0x5714A, offset: 0x5714A, size: 0x8, addend: 0x0, symName: __ZNSt7__cxx1112basic_stringIcSt11char_traitsIcESaIcEEaSEOS4_, symObjAddr: 0x2D44, symBinAddr: 0x100006C00, symSize: 0x258 }
  - { offsetInCU: 0x57152, offset: 0x57152, size: 0x8, addend: 0x0, symName: __ZNKSt7__cxx1112basic_stringIcSt11char_traitsIcESaIcEE6substrEmm, symObjAddr: 0x2F9C, symBinAddr: 0x100006E58, symSize: 0x54 }
  - { offsetInCU: 0x5729C, offset: 0x5729C, size: 0x8, addend: 0x0, symName: __ZNSt7__cxx1112basic_stringIcSt11char_traitsIcESaIcEEC1ERKS4_, symObjAddr: 0x2C58, symBinAddr: 0x100006B14, symSize: 0xEC }
  - { offsetInCU: 0x572A4, offset: 0x572A4, size: 0x8, addend: 0x0, symName: __ZNSt7__cxx1112basic_stringIcSt11char_traitsIcESaIcEEaSEOS4_, symObjAddr: 0x2D44, symBinAddr: 0x100006C00, symSize: 0x258 }
  - { offsetInCU: 0x5737C, offset: 0x5737C, size: 0x8, addend: 0x0, symName: __ZNSt7__cxx1112basic_stringIcSt11char_traitsIcESaIcEE5clearEv, symObjAddr: 0x2C34, symBinAddr: 0x100006AF0, symSize: 0x24 }
  - { offsetInCU: 0x57384, offset: 0x57384, size: 0x8, addend: 0x0, symName: __ZNSt7__cxx1112basic_stringIcSt11char_traitsIcESaIcEEC1ERKS4_, symObjAddr: 0x2C58, symBinAddr: 0x100006B14, symSize: 0xEC }
  - { offsetInCU: 0x5743E, offset: 0x5743E, size: 0x8, addend: 0x0, symName: __ZSt4moveIRNSt7__cxx1112basic_stringIcSt11char_traitsIcESaIcEEEEONSt16remove_referenceIT_E4typeEOS8_, symObjAddr: 0x2C20, symBinAddr: 0x100006ADC, symSize: 0x14 }
  - { offsetInCU: 0x57446, offset: 0x57446, size: 0x8, addend: 0x0, symName: __ZNSt7__cxx1112basic_stringIcSt11char_traitsIcESaIcEE5clearEv, symObjAddr: 0x2C34, symBinAddr: 0x100006AF0, symSize: 0x24 }
  - { offsetInCU: 0x5749D, offset: 0x5749D, size: 0x8, addend: 0x0, symName: __ZNSt7__cxx1112basic_stringIcSt11char_traitsIcESaIcEEC1IS3_EEPKcRKS3_, symObjAddr: 0x2B84, symBinAddr: 0x100006A40, symSize: 0x9C }
  - { offsetInCU: 0x574A5, offset: 0x574A5, size: 0x8, addend: 0x0, symName: __ZSt4moveIRNSt7__cxx1112basic_stringIcSt11char_traitsIcESaIcEEEEONSt16remove_referenceIT_E4typeEOS8_, symObjAddr: 0x2C20, symBinAddr: 0x100006ADC, symSize: 0x14 }
  - { offsetInCU: 0x57571, offset: 0x57571, size: 0x8, addend: 0x0, symName: __ZStplIcSt11char_traitsIcESaIcEENSt7__cxx1112basic_stringIT_T0_T1_EERKS8_PKS5_, symObjAddr: 0x2AD8, symBinAddr: 0x100006994, symSize: 0xAC }
  - { offsetInCU: 0x57579, offset: 0x57579, size: 0x8, addend: 0x0, symName: __ZNSt7__cxx1112basic_stringIcSt11char_traitsIcESaIcEEC1IS3_EEPKcRKS3_, symObjAddr: 0x2B84, symBinAddr: 0x100006A40, symSize: 0x9C }
  - { offsetInCU: 0x575D7, offset: 0x575D7, size: 0x8, addend: 0x0, symName: __ZSt3maxImERKT_S2_S2_, symObjAddr: 0x2AA0, symBinAddr: 0x10000695C, symSize: 0x38 }
  - { offsetInCU: 0x575DF, offset: 0x575DF, size: 0x8, addend: 0x0, symName: __ZStplIcSt11char_traitsIcESaIcEENSt7__cxx1112basic_stringIT_T0_T1_EERKS8_PKS5_, symObjAddr: 0x2AD8, symBinAddr: 0x100006994, symSize: 0xAC }
  - { offsetInCU: 0x57608, offset: 0x57608, size: 0x8, addend: 0x0, symName: __ZNKSt7__cxx1112basic_stringIcSt11char_traitsIcESaIcEE4sizeEv, symObjAddr: 0x2A88, symBinAddr: 0x100006944, symSize: 0x18 }
  - { offsetInCU: 0x57610, offset: 0x57610, size: 0x8, addend: 0x0, symName: __ZSt3maxImERKT_S2_S2_, symObjAddr: 0x2AA0, symBinAddr: 0x10000695C, symSize: 0x38 }
  - { offsetInCU: 0x576A3, offset: 0x576A3, size: 0x8, addend: 0x0, symName: __ZNSt7__cxx1112basic_stringIcSt11char_traitsIcESaIcEEC1EOS4_, symObjAddr: 0x2994, symBinAddr: 0x100006850, symSize: 0xF4 }
  - { offsetInCU: 0x576AB, offset: 0x576AB, size: 0x8, addend: 0x0, symName: __ZNKSt7__cxx1112basic_stringIcSt11char_traitsIcESaIcEE4sizeEv, symObjAddr: 0x2A88, symBinAddr: 0x100006944, symSize: 0x18 }
  - { offsetInCU: 0x576A3, offset: 0x576A3, size: 0x8, addend: 0x0, symName: __ZNSt7__cxx1112basic_stringIcSt11char_traitsIcESaIcEEixEm, symObjAddr: 0x28E8, symBinAddr: 0x1000067A4, symSize: 0xAC }
  - { offsetInCU: 0x576AB, offset: 0x576AB, size: 0x8, addend: 0x0, symName: __ZNSt7__cxx1112basic_stringIcSt11char_traitsIcESaIcEEC1EOS4_, symObjAddr: 0x2994, symBinAddr: 0x100006850, symSize: 0xF4 }
  - { offsetInCU: 0x57785, offset: 0x57785, size: 0x8, addend: 0x0, symName: __ZNSt7__cxx1112basic_stringIcSt11char_traitsIcESaIcEED1Ev, symObjAddr: 0x28C0, symBinAddr: 0x10000677C, symSize: 0x28 }
  - { offsetInCU: 0x5778D, offset: 0x5778D, size: 0x8, addend: 0x0, symName: __ZNSt7__cxx1112basic_stringIcSt11char_traitsIcESaIcEEixEm, symObjAddr: 0x28E8, symBinAddr: 0x1000067A4, symSize: 0xAC }
  - { offsetInCU: 0x577F0, offset: 0x577F0, size: 0x8, addend: 0x0, symName: __ZNSt7__cxx1112basic_stringIcSt11char_traitsIcESaIcEE12_Alloc_hiderD1Ev, symObjAddr: 0x2894, symBinAddr: 0x100006750, symSize: 0x2C }
  - { offsetInCU: 0x577F8, offset: 0x577F8, size: 0x8, addend: 0x0, symName: __ZNSt7__cxx1112basic_stringIcSt11char_traitsIcESaIcEED1Ev, symObjAddr: 0x28C0, symBinAddr: 0x10000677C, symSize: 0x28 }
  - { offsetInCU: 0x57845, offset: 0x57845, size: 0x8, addend: 0x0, symName: __ZNKSt7__cxx1112basic_stringIcSt11char_traitsIcESaIcEE5c_strEv, symObjAddr: 0x2878, symBinAddr: 0x100006734, symSize: 0x1C }
  - { offsetInCU: 0x5784D, offset: 0x5784D, size: 0x8, addend: 0x0, symName: __ZNSt7__cxx1112basic_stringIcSt11char_traitsIcESaIcEE12_Alloc_hiderD1Ev, symObjAddr: 0x2894, symBinAddr: 0x100006750, symSize: 0x2C }
  - { offsetInCU: 0x57876, offset: 0x57876, size: 0x8, addend: 0x0, symName: __ZN9__gnu_cxx11char_traitsIcE6lengthEPKc, symObjAddr: 0x281C, symBinAddr: 0x1000066D8, symSize: 0x5C }
  - { offsetInCU: 0x5787E, offset: 0x5787E, size: 0x8, addend: 0x0, symName: __ZNKSt7__cxx1112basic_stringIcSt11char_traitsIcESaIcEE5c_strEv, symObjAddr: 0x2878, symBinAddr: 0x100006734, symSize: 0x1C }
  - { offsetInCU: 0x578C6, offset: 0x578C6, size: 0x8, addend: 0x0, symName: _main, symObjAddr: 0x19C4, symBinAddr: 0x100005880, symSize: 0xE58 }
  - { offsetInCU: 0x578CE, offset: 0x578CE, size: 0x8, addend: 0x0, symName: __ZN9__gnu_cxx11char_traitsIcE6lengthEPKc, symObjAddr: 0x281C, symBinAddr: 0x1000066D8, symSize: 0x5C }
  - { offsetInCU: 0x57E05, offset: 0x57E05, size: 0x8, addend: 0x0, symName: __ZNSt7__debug6vectorINSt7__cxx1112basic_stringIcSt11char_traitsIcESaIcEEESaIS6_EEaSEOS8_, symObjAddr: 0x1964, symBinAddr: 0x100005820, symSize: 0x60 }
  - { offsetInCU: 0x57E0D, offset: 0x57E0D, size: 0x8, addend: 0x0, symName: _main, symObjAddr: 0x19C4, symBinAddr: 0x100005880, symSize: 0xE58 }
  - { offsetInCU: 0x57EB4, offset: 0x57EB4, size: 0x8, addend: 0x0, symName: __ZNSt7__debug6vectorINSt7__cxx1112basic_stringIcSt11char_traitsIcESaIcEEESaIS6_EEC1Ev, symObjAddr: 0x192C, symBinAddr: 0x1000057E8, symSize: 0x38 }
  - { offsetInCU: 0x57EBC, offset: 0x57EBC, size: 0x8, addend: 0x0, symName: __ZNSt7__debug6vectorINSt7__cxx1112basic_stringIcSt11char_traitsIcESaIcEEESaIS6_EEaSEOS8_, symObjAddr: 0x1964, symBinAddr: 0x100005820, symSize: 0x60 }
  - { offsetInCU: 0x57F01, offset: 0x57F01, size: 0x8, addend: 0x0, symName: __ZNSt9__cxx19986vectorINSt7__cxx1112basic_stringIcSt11char_traitsIcESaIcEEESaIS6_EEC2Ev, symObjAddr: 0x190C, symBinAddr: 0x1000057C8, symSize: 0x20 }
  - { offsetInCU: 0x57F09, offset: 0x57F09, size: 0x8, addend: 0x0, symName: __ZNSt7__debug6vectorINSt7__cxx1112basic_stringIcSt11char_traitsIcESaIcEEESaIS6_EEC1Ev, symObjAddr: 0x192C, symBinAddr: 0x1000057E8, symSize: 0x38 }
  - { offsetInCU: 0x57F53, offset: 0x57F53, size: 0x8, addend: 0x0, symName: __ZNSt9__cxx199812_Vector_baseINSt7__cxx1112basic_stringIcSt11char_traitsIcESaIcEEESaIS6_EEC2Ev, symObjAddr: 0x18EC, symBinAddr: 0x1000057A8, symSize: 0x20 }
  - { offsetInCU: 0x57F5B, offset: 0x57F5B, size: 0x8, addend: 0x0, symName: __ZNSt9__cxx19986vectorINSt7__cxx1112basic_stringIcSt11char_traitsIcESaIcEEESaIS6_EEC2Ev, symObjAddr: 0x190C, symBinAddr: 0x1000057C8, symSize: 0x20 }
  - { offsetInCU: 0x57FBE, offset: 0x57FBE, size: 0x8, addend: 0x0, symName: __ZNSt9__cxx199812_Vector_baseINSt7__cxx1112basic_stringIcSt11char_traitsIcESaIcEEESaIS6_EE12_Vector_implD1Ev, symObjAddr: 0x18C0, symBinAddr: 0x10000577C, symSize: 0x2C }
  - { offsetInCU: 0x57FC6, offset: 0x57FC6, size: 0x8, addend: 0x0, symName: __ZNSt9__cxx199812_Vector_baseINSt7__cxx1112basic_stringIcSt11char_traitsIcESaIcEEESaIS6_EEC2Ev, symObjAddr: 0x18EC, symBinAddr: 0x1000057A8, symSize: 0x20 }
  - { offsetInCU: 0x58057, offset: 0x58057, size: 0x8, addend: 0x0, symName: __ZN11__gnu_debug15_Safe_containerINSt7__debug6vectorINSt7__cxx1112basic_stringIcSt11char_traitsIcESaIcEEESaIS8_EEES9_NS_14_Safe_sequenceELb1EEC2Ev, symObjAddr: 0x18A0, symBinAddr: 0x10000575C, symSize: 0x20 }
  - { offsetInCU: 0x5805F, offset: 0x5805F, size: 0x8, addend: 0x0, symName: __ZNSt9__cxx199812_Vector_baseINSt7__cxx1112basic_stringIcSt11char_traitsIcESaIcEEESaIS6_EE12_Vector_implD1Ev, symObjAddr: 0x18C0, symBinAddr: 0x10000577C, symSize: 0x2C }
  - { offsetInCU: 0x5809C, offset: 0x5809C, size: 0x8, addend: 0x0, symName: __ZN11__gnu_debug14_Safe_sequenceINSt7__debug6vectorINSt7__cxx1112basic_stringIcSt11char_traitsIcESaIcEEESaIS8_EEEEC2Ev, symObjAddr: 0x1880, symBinAddr: 0x10000573C, symSize: 0x20 }
  - { offsetInCU: 0x580A4, offset: 0x580A4, size: 0x8, addend: 0x0, symName: __ZN11__gnu_debug15_Safe_containerINSt7__debug6vectorINSt7__cxx1112basic_stringIcSt11char_traitsIcESaIcEEESaIS8_EEES9_NS_14_Safe_sequenceELb1EEC2Ev, symObjAddr: 0x18A0, symBinAddr: 0x10000575C, symSize: 0x20 }
  - { offsetInCU: 0x5817C, offset: 0x5817C, size: 0x8, addend: 0x0, symName: __ZN11__gnu_debug14_Safe_iteratorINSt8__detail14_Node_iteratorISt4pairIKiNSt7__debug6vectorINSt7__cxx1112basic_stringIcSt11char_traitsIcESaIcEEESaISC_EEEELb0ELb0EEENS5_13unordered_mapIiSE_St4hashIiESt8equal_toIiESaISF_EEESt20forward_iterator_tagED1Ev, symObjAddr: 0x185C, symBinAddr: 0x100005718, symSize: 0x24 }
  - { offsetInCU: 0x58184, offset: 0x58184, size: 0x8, addend: 0x0, symName: __ZN11__gnu_debug14_Safe_sequenceINSt7__debug6vectorINSt7__cxx1112basic_stringIcSt11char_traitsIcESaIcEEESaIS8_EEEEC2Ev, symObjAddr: 0x1880, symBinAddr: 0x10000573C, symSize: 0x20 }
  - { offsetInCU: 0x58166, offset: 0x58166, size: 0x8, addend: 0x0, symName: __ZNSt4pairIKiNSt7__debug13unordered_setINSt7__cxx1112basic_stringIcSt11char_traitsIcESaIcEEESt4hashIS8_ESt8equal_toIS8_ESaIS8_EEEED1Ev, symObjAddr: 0x1838, symBinAddr: 0x1000056F4, symSize: 0x24 }
  - { offsetInCU: 0x5816E, offset: 0x5816E, size: 0x8, addend: 0x0, symName: __ZN11__gnu_debug14_Safe_iteratorINSt8__detail14_Node_iteratorISt4pairIKiNSt7__debug6vectorINSt7__cxx1112basic_stringIcSt11char_traitsIcESaIcEEESaISC_EEEELb0ELb0EEENS5_13unordered_mapIiSE_St4hashIiESt8equal_toIiESaISF_EEESt20forward_iterator_tagED1Ev, symObjAddr: 0x185C, symBinAddr: 0x100005718, symSize: 0x24 }
  - { offsetInCU: 0x581BE, offset: 0x581BE, size: 0x8, addend: 0x0, symName: __ZNSt4pairIKiNSt7__debug13unordered_setINSt7__cxx1112basic_stringIcSt11char_traitsIcESaIcEEESt4hashIS8_ESt8equal_toIS8_ESaIS8_EEEEC1ERKSF_, symObjAddr: 0x17F0, symBinAddr: 0x1000056AC, symSize: 0x48 }
  - { offsetInCU: 0x581C6, offset: 0x581C6, size: 0x8, addend: 0x0, symName: __ZNSt4pairIKiNSt7__debug13unordered_setINSt7__cxx1112basic_stringIcSt11char_traitsIcESaIcEEESt4hashIS8_ESt8equal_toIS8_ESaIS8_EEEED1Ev, symObjAddr: 0x1838, symBinAddr: 0x1000056F4, symSize: 0x24 }
  - { offsetInCU: 0x58212, offset: 0x58212, size: 0x8, addend: 0x0, symName: __ZNSt7__debug13unordered_setINSt7__cxx1112basic_stringIcSt11char_traitsIcESaIcEEESt4hashIS6_ESt8equal_toIS6_ESaIS6_EEC1ERKSC_, symObjAddr: 0x1790, symBinAddr: 0x10000564C, symSize: 0x60 }
  - { offsetInCU: 0x5821A, offset: 0x5821A, size: 0x8, addend: 0x0, symName: __ZNSt4pairIKiNSt7__debug13unordered_setINSt7__cxx1112basic_stringIcSt11char_traitsIcESaIcEEESt4hashIS8_ESt8equal_toIS8_ESaIS8_EEEEC1ERKSF_, symObjAddr: 0x17F0, symBinAddr: 0x1000056AC, symSize: 0x48 }
  - { offsetInCU: 0x58275, offset: 0x58275, size: 0x8, addend: 0x0, symName: __ZNSt9__cxx199813unordered_setINSt7__cxx1112basic_stringIcSt11char_traitsIcESaIcEEESt4hashIS6_ESt8equal_toIS6_ESaIS6_EEC2ERKSC_, symObjAddr: 0x1768, symBinAddr: 0x100005624, symSize: 0x28 }
  - { offsetInCU: 0x5827D, offset: 0x5827D, size: 0x8, addend: 0x0, symName: __ZNSt7__debug13unordered_setINSt7__cxx1112basic_stringIcSt11char_traitsIcESaIcEEESt4hashIS6_ESt8equal_toIS6_ESaIS6_EEC1ERKSC_, symObjAddr: 0x1790, symBinAddr: 0x10000564C, symSize: 0x60 }
  - { offsetInCU: 0x5831C, offset: 0x5831C, size: 0x8, addend: 0x0, symName: __ZN11__gnu_debug15_Safe_containerINSt7__debug13unordered_setINSt7__cxx1112basic_stringIcSt11char_traitsIcESaIcEEESt4hashIS8_ESt8equal_toIS8_ESaIS8_EEESD_NS_25_Safe_unordered_containerELb1EEC2ERKSG_, symObjAddr: 0x1740, symBinAddr: 0x1000055FC, symSize: 0x28 }
  - { offsetInCU: 0x58324, offset: 0x58324, size: 0x8, addend: 0x0, symName: __ZNSt9__cxx199813unordered_setINSt7__cxx1112basic_stringIcSt11char_traitsIcESaIcEEESt4hashIS6_ESt8equal_toIS6_ESaIS6_EEC2ERKSC_, symObjAddr: 0x1768, symBinAddr: 0x100005624, symSize: 0x28 }
  - { offsetInCU: 0x5836E, offset: 0x5836E, size: 0x8, addend: 0x0, symName: __ZN11__gnu_debug25_Safe_unordered_containerINSt7__debug13unordered_setINSt7__cxx1112basic_stringIcSt11char_traitsIcESaIcEEESt4hashIS8_ESt8equal_toIS8_ESaIS8_EEEEC2ERKSF_, symObjAddr: 0x1718, symBinAddr: 0x1000055D4, symSize: 0x28 }
  - { offsetInCU: 0x58376, offset: 0x58376, size: 0x8, addend: 0x0, symName: __ZN11__gnu_debug15_Safe_containerINSt7__debug13unordered_setINSt7__cxx1112basic_stringIcSt11char_traitsIcESaIcEEESt4hashIS8_ESt8equal_toIS8_ESaIS8_EEESD_NS_25_Safe_unordered_containerELb1EEC2ERKSG_, symObjAddr: 0x1740, symBinAddr: 0x1000055FC, symSize: 0x28 }
  - { offsetInCU: 0x58417, offset: 0x58417, size: 0x8, addend: 0x0, symName: __ZNSt4pairIN11__gnu_debug14_Safe_iteratorINSt8__detail14_Node_iteratorINSt7__cxx1112basic_stringIcSt11char_traitsIcESaIcEEELb1ELb1EEENSt7__debug13unordered_setIS9_St4hashIS9_ESt8equal_toIS9_ESaIS9_EEESt20forward_iterator_tagEEbED1Ev, symObjAddr: 0x16F8, symBinAddr: 0x1000055B4, symSize: 0x20 }
  - { offsetInCU: 0x5841F, offset: 0x5841F, size: 0x8, addend: 0x0, symName: __ZN11__gnu_debug25_Safe_unordered_containerINSt7__debug13unordered_setINSt7__cxx1112basic_stringIcSt11char_traitsIcESaIcEEESt4hashIS8_ESt8equal_toIS8_ESaIS8_EEEEC2ERKSF_, symObjAddr: 0x1718, symBinAddr: 0x1000055D4, symSize: 0x28 }
  - { offsetInCU: 0x58468, offset: 0x58468, size: 0x8, addend: 0x0, symName: __ZN11__gnu_debug14_Safe_iteratorINSt8__detail14_Node_iteratorINSt7__cxx1112basic_stringIcSt11char_traitsIcESaIcEEELb1ELb1EEENSt7__debug13unordered_setIS8_St4hashIS8_ESt8equal_toIS8_ESaIS8_EEESt20forward_iterator_tagED1Ev, symObjAddr: 0x16D4, symBinAddr: 0x100005590, symSize: 0x24 }
  - { offsetInCU: 0x58470, offset: 0x58470, size: 0x8, addend: 0x0, symName: __ZNSt4pairIN11__gnu_debug14_Safe_iteratorINSt8__detail14_Node_iteratorINSt7__cxx1112basic_stringIcSt11char_traitsIcESaIcEEELb1ELb1EEENSt7__debug13unordered_setIS9_St4hashIS9_ESt8equal_toIS9_ESaIS9_EEESt20forward_iterator_tagEEbED1Ev, symObjAddr: 0x16F8, symBinAddr: 0x1000055B4, symSize: 0x20 }
  - { offsetInCU: 0x583BB, offset: 0x583BB, size: 0x8, addend: 0x0, symName: __ZNSt7__debug13unordered_setINSt7__cxx1112basic_stringIcSt11char_traitsIcESaIcEEESt4hashIS6_ESt8equal_toIS6_ESaIS6_EEaSEOSC_, symObjAddr: 0x1690, symBinAddr: 0x10000554C, symSize: 0x44 }
  - { offsetInCU: 0x583C3, offset: 0x583C3, size: 0x8, addend: 0x0, symName: __ZN11__gnu_debug14_Safe_iteratorINSt8__detail14_Node_iteratorINSt7__cxx1112basic_stringIcSt11char_traitsIcESaIcEEELb1ELb1EEENSt7__debug13unordered_setIS8_St4hashIS8_ESt8equal_toIS8_ESaIS8_EEESt20forward_iterator_tagED1Ev, symObjAddr: 0x16D4, symBinAddr: 0x100005590, symSize: 0x24 }
  - { offsetInCU: 0x583F9, offset: 0x583F9, size: 0x8, addend: 0x0, symName: __ZNSt9__cxx199813unordered_setINSt7__cxx1112basic_stringIcSt11char_traitsIcESaIcEEESt4hashIS6_ESt8equal_toIS6_ESaIS6_EEaSEOSC_, symObjAddr: 0x1668, symBinAddr: 0x100005524, symSize: 0x28 }
  - { offsetInCU: 0x58401, offset: 0x58401, size: 0x8, addend: 0x0, symName: __ZNSt7__debug13unordered_setINSt7__cxx1112basic_stringIcSt11char_traitsIcESaIcEEESt4hashIS6_ESt8equal_toIS6_ESaIS6_EEaSEOSC_, symObjAddr: 0x1690, symBinAddr: 0x10000554C, symSize: 0x44 }
  - { offsetInCU: 0x584DB, offset: 0x584DB, size: 0x8, addend: 0x0, symName: __ZNSt7__debug13unordered_setINSt7__cxx1112basic_stringIcSt11char_traitsIcESaIcEEESt4hashIS6_ESt8equal_toIS6_ESaIS6_EED1Ev, symObjAddr: 0x163C, symBinAddr: 0x1000054F8, symSize: 0x2C }
  - { offsetInCU: 0x584E3, offset: 0x584E3, size: 0x8, addend: 0x0, symName: __ZNSt9__cxx199813unordered_setINSt7__cxx1112basic_stringIcSt11char_traitsIcESaIcEEESt4hashIS6_ESt8equal_toIS6_ESaIS6_EEaSEOSC_, symObjAddr: 0x1668, symBinAddr: 0x100005524, symSize: 0x28 }
  - { offsetInCU: 0x58526, offset: 0x58526, size: 0x8, addend: 0x0, symName: __ZNSt7__debug13unordered_setINSt7__cxx1112basic_stringIcSt11char_traitsIcESaIcEEESt4hashIS6_ESt8equal_toIS6_ESaIS6_EEC1Ev, symObjAddr: 0x1610, symBinAddr: 0x1000054CC, symSize: 0x2C }
  - { offsetInCU: 0x5852E, offset: 0x5852E, size: 0x8, addend: 0x0, symName: __ZNSt7__debug13unordered_setINSt7__cxx1112basic_stringIcSt11char_traitsIcESaIcEEESt4hashIS6_ESt8equal_toIS6_ESaIS6_EED1Ev, symObjAddr: 0x163C, symBinAddr: 0x1000054F8, symSize: 0x2C }
  - { offsetInCU: 0x58585, offset: 0x58585, size: 0x8, addend: 0x0, symName: __ZNSt9__cxx199813unordered_setINSt7__cxx1112basic_stringIcSt11char_traitsIcESaIcEEESt4hashIS6_ESt8equal_toIS6_ESaIS6_EED2Ev, symObjAddr: 0x15F0, symBinAddr: 0x1000054AC, symSize: 0x20 }
  - { offsetInCU: 0x5858D, offset: 0x5858D, size: 0x8, addend: 0x0, symName: __ZNSt7__debug13unordered_setINSt7__cxx1112basic_stringIcSt11char_traitsIcESaIcEEESt4hashIS6_ESt8equal_toIS6_ESaIS6_EEC1Ev, symObjAddr: 0x1610, symBinAddr: 0x1000054CC, symSize: 0x2C }
  - { offsetInCU: 0x585D0, offset: 0x585D0, size: 0x8, addend: 0x0, symName: __ZNSt9__cxx199813unordered_setINSt7__cxx1112basic_stringIcSt11char_traitsIcESaIcEEESt4hashIS6_ESt8equal_toIS6_ESaIS6_EEC2Ev, symObjAddr: 0x15D0, symBinAddr: 0x10000548C, symSize: 0x20 }
  - { offsetInCU: 0x585D8, offset: 0x585D8, size: 0x8, addend: 0x0, symName: __ZNSt9__cxx199813unordered_setINSt7__cxx1112basic_stringIcSt11char_traitsIcESaIcEEESt4hashIS6_ESt8equal_toIS6_ESaIS6_EED2Ev, symObjAddr: 0x15F0, symBinAddr: 0x1000054AC, symSize: 0x20 }
  - { offsetInCU: 0x5869D, offset: 0x5869D, size: 0x8, addend: 0x0, symName: __ZNSt10_HashtableINSt7__cxx1112basic_stringIcSt11char_traitsIcESaIcEEES5_SaIS5_ENSt8__detail9_IdentityESt8equal_toIS5_ESt4hashIS5_ENS7_18_Mod_range_hashingENS7_20_Default_ranged_hashENS7_20_Prime_rehash_policyENS7_17_Hashtable_traitsILb1ELb1ELb1EEEEC1Ev, symObjAddr: 0x1560, symBinAddr: 0x10000541C, symSize: 0x70 }
  - { offsetInCU: 0x586A5, offset: 0x586A5, size: 0x8, addend: 0x0, symName: __ZNSt9__cxx199813unordered_setINSt7__cxx1112basic_stringIcSt11char_traitsIcESaIcEEESt4hashIS6_ESt8equal_toIS6_ESaIS6_EEC2Ev, symObjAddr: 0x15D0, symBinAddr: 0x10000548C, symSize: 0x20 }
  - { offsetInCU: 0x58672, offset: 0x58672, size: 0x8, addend: 0x0, symName: __ZNSt8__detail16_Hashtable_allocISaINS_10_Hash_nodeINSt7__cxx1112basic_stringIcSt11char_traitsIcESaIcEEELb1EEEEED2Ev, symObjAddr: 0x1540, symBinAddr: 0x1000053FC, symSize: 0x20 }
  - { offsetInCU: 0x5867A, offset: 0x5867A, size: 0x8, addend: 0x0, symName: __ZNSt10_HashtableINSt7__cxx1112basic_stringIcSt11char_traitsIcESaIcEEES5_SaIS5_ENSt8__detail9_IdentityESt8equal_toIS5_ESt4hashIS5_ENS7_18_Mod_range_hashingENS7_20_Default_ranged_hashENS7_20_Prime_rehash_policyENS7_17_Hashtable_traitsILb1ELb1ELb1EEEEC1Ev, symObjAddr: 0x1560, symBinAddr: 0x10000541C, symSize: 0x70 }
  - { offsetInCU: 0x586BD, offset: 0x586BD, size: 0x8, addend: 0x0, symName: __ZNSt8__detail16_Hashtable_allocISaINS_10_Hash_nodeINSt7__cxx1112basic_stringIcSt11char_traitsIcESaIcEEELb1EEEEEC2Ev, symObjAddr: 0x1520, symBinAddr: 0x1000053DC, symSize: 0x20 }
  - { offsetInCU: 0x586C5, offset: 0x586C5, size: 0x8, addend: 0x0, symName: __ZNSt8__detail16_Hashtable_allocISaINS_10_Hash_nodeINSt7__cxx1112basic_stringIcSt11char_traitsIcESaIcEEELb1EEEEED2Ev, symObjAddr: 0x1540, symBinAddr: 0x1000053FC, symSize: 0x20 }
  - { offsetInCU: 0x58728, offset: 0x58728, size: 0x8, addend: 0x0, symName: __ZNSt8__detail21_Hashtable_ebo_helperILi0ESaINS_10_Hash_nodeINSt7__cxx1112basic_stringIcSt11char_traitsIcESaIcEEELb1EEEELb1EED2Ev, symObjAddr: 0x14F4, symBinAddr: 0x1000053B0, symSize: 0x2C }
  - { offsetInCU: 0x58730, offset: 0x58730, size: 0x8, addend: 0x0, symName: __ZNSt8__detail16_Hashtable_allocISaINS_10_Hash_nodeINSt7__cxx1112basic_stringIcSt11char_traitsIcESaIcEEELb1EEEEEC2Ev, symObjAddr: 0x1520, symBinAddr: 0x1000053DC, symSize: 0x20 }
  - { offsetInCU: 0x587F7, offset: 0x587F7, size: 0x8, addend: 0x0, symName: __ZNSt8__detail15_Hashtable_baseINSt7__cxx1112basic_stringIcSt11char_traitsIcESaIcEEES6_NS_9_IdentityESt8equal_toIS6_ESt4hashIS6_ENS_18_Mod_range_hashingENS_20_Default_ranged_hashENS_17_Hashtable_traitsILb1ELb1ELb1EEEEC2Ev, symObjAddr: 0x14CC, symBinAddr: 0x100005388, symSize: 0x28 }
  - { offsetInCU: 0x587FF, offset: 0x587FF, size: 0x8, addend: 0x0, symName: __ZNSt8__detail21_Hashtable_ebo_helperILi0ESaINS_10_Hash_nodeINSt7__cxx1112basic_stringIcSt11char_traitsIcESaIcEEELb1EEEELb1EED2Ev, symObjAddr: 0x14F4, symBinAddr: 0x1000053B0, symSize: 0x2C }
  - { offsetInCU: 0x58811, offset: 0x58811, size: 0x8, addend: 0x0, symName: __ZNSt8__detail15_Hash_code_baseINSt7__cxx1112basic_stringIcSt11char_traitsIcESaIcEEES6_NS_9_IdentityESt4hashIS6_ENS_18_Mod_range_hashingENS_20_Default_ranged_hashELb1EEC2Ev, symObjAddr: 0x14AC, symBinAddr: 0x100005368, symSize: 0x20 }
  - { offsetInCU: 0x58819, offset: 0x58819, size: 0x8, addend: 0x0, symName: __ZNSt8__detail15_Hashtable_baseINSt7__cxx1112basic_stringIcSt11char_traitsIcESaIcEEES6_NS_9_IdentityESt8equal_toIS6_ESt4hashIS6_ENS_18_Mod_range_hashingENS_20_Default_ranged_hashENS_17_Hashtable_traitsILb1ELb1ELb1EEEEC2Ev, symObjAddr: 0x14CC, symBinAddr: 0x100005388, symSize: 0x28 }
  - { offsetInCU: 0x58883, offset: 0x58883, size: 0x8, addend: 0x0, symName: __ZN11__gnu_debug15_Safe_containerINSt7__debug13unordered_setINSt7__cxx1112basic_stringIcSt11char_traitsIcESaIcEEESt4hashIS8_ESt8equal_toIS8_ESaIS8_EEESD_NS_25_Safe_unordered_containerELb1EED2Ev, symObjAddr: 0x148C, symBinAddr: 0x100005348, symSize: 0x20 }
  - { offsetInCU: 0x5888B, offset: 0x5888B, size: 0x8, addend: 0x0, symName: __ZNSt8__detail15_Hash_code_baseINSt7__cxx1112basic_stringIcSt11char_traitsIcESaIcEEES6_NS_9_IdentityESt4hashIS6_ENS_18_Mod_range_hashingENS_20_Default_ranged_hashELb1EEC2Ev, symObjAddr: 0x14AC, symBinAddr: 0x100005368, symSize: 0x20 }
  - { offsetInCU: 0x588CE, offset: 0x588CE, size: 0x8, addend: 0x0, symName: __ZN11__gnu_debug15_Safe_containerINSt7__debug13unordered_setINSt7__cxx1112basic_stringIcSt11char_traitsIcESaIcEEESt4hashIS8_ESt8equal_toIS8_ESaIS8_EEESD_NS_25_Safe_unordered_containerELb1EEC2Ev, symObjAddr: 0x146C, symBinAddr: 0x100005328, symSize: 0x20 }
  - { offsetInCU: 0x588D6, offset: 0x588D6, size: 0x8, addend: 0x0, symName: __ZN11__gnu_debug15_Safe_containerINSt7__debug13unordered_setINSt7__cxx1112basic_stringIcSt11char_traitsIcESaIcEEESt4hashIS8_ESt8equal_toIS8_ESaIS8_EEESD_NS_25_Safe_unordered_containerELb1EED2Ev, symObjAddr: 0x148C, symBinAddr: 0x100005348, symSize: 0x20 }
  - { offsetInCU: 0x5890F, offset: 0x5890F, size: 0x8, addend: 0x0, symName: __ZN11__gnu_debug25_Safe_unordered_containerINSt7__debug13unordered_setINSt7__cxx1112basic_stringIcSt11char_traitsIcESaIcEEESt4hashIS8_ESt8equal_toIS8_ESaIS8_EEEED2Ev, symObjAddr: 0x144C, symBinAddr: 0x100005308, symSize: 0x20 }
  - { offsetInCU: 0x58917, offset: 0x58917, size: 0x8, addend: 0x0, symName: __ZN11__gnu_debug15_Safe_containerINSt7__debug13unordered_setINSt7__cxx1112basic_stringIcSt11char_traitsIcESaIcEEESt4hashIS8_ESt8equal_toIS8_ESaIS8_EEESD_NS_25_Safe_unordered_containerELb1EEC2Ev, symObjAddr: 0x146C, symBinAddr: 0x100005328, symSize: 0x20 }
  - { offsetInCU: 0x5895D, offset: 0x5895D, size: 0x8, addend: 0x0, symName: __ZN11__gnu_debug25_Safe_unordered_containerINSt7__debug13unordered_setINSt7__cxx1112basic_stringIcSt11char_traitsIcESaIcEEESt4hashIS8_ESt8equal_toIS8_ESaIS8_EEEEC2Ev, symObjAddr: 0x142C, symBinAddr: 0x1000052E8, symSize: 0x20 }
  - { offsetInCU: 0x58965, offset: 0x58965, size: 0x8, addend: 0x0, symName: __ZN11__gnu_debug25_Safe_unordered_containerINSt7__debug13unordered_setINSt7__cxx1112basic_stringIcSt11char_traitsIcESaIcEEESt4hashIS8_ESt8equal_toIS8_ESaIS8_EEEED2Ev, symObjAddr: 0x144C, symBinAddr: 0x100005308, symSize: 0x20 }
  - { offsetInCU: 0x58A26, offset: 0x58A26, size: 0x8, addend: 0x0, symName: __ZN11__gnu_debug14_Safe_iteratorINSt8__detail14_Node_iteratorISt4pairIKiNSt7__debug13unordered_setINSt7__cxx1112basic_stringIcSt11char_traitsIcESaIcEEESt4hashISC_ESt8equal_toISC_ESaISC_EEEELb0ELb0EEENS5_13unordered_mapIiSI_SD_IiESF_IiESaISJ_EEESt20forward_iterator_tagED1Ev, symObjAddr: 0x1408, symBinAddr: 0x1000052C4, symSize: 0x24 }
  - { offsetInCU: 0x58A2E, offset: 0x58A2E, size: 0x8, addend: 0x0, symName: __ZN11__gnu_debug25_Safe_unordered_containerINSt7__debug13unordered_setINSt7__cxx1112basic_stringIcSt11char_traitsIcESaIcEEESt4hashIS8_ESt8equal_toIS8_ESaIS8_EEEEC2Ev, symObjAddr: 0x142C, symBinAddr: 0x1000052E8, symSize: 0x20 }
  - { offsetInCU: 0x58A49, offset: 0x58A49, size: 0x8, addend: 0x0, symName: __ZN11__gnu_debug14_Safe_iteratorIN9__gnu_cxx17__normal_iteratorIPNSt7__cxx1112basic_stringIcSt11char_traitsIcESaIcEEENSt9__cxx19986vectorIS8_SaIS8_EEEEENSt7__debug6vectorIS8_SC_EESt26random_access_iterator_tagED1Ev, symObjAddr: 0x13E8, symBinAddr: 0x1000052A4, symSize: 0x20 }
  - { offsetInCU: 0x58A51, offset: 0x58A51, size: 0x8, addend: 0x0, symName: __ZN11__gnu_debug14_Safe_iteratorINSt8__detail14_Node_iteratorISt4pairIKiNSt7__debug13unordered_setINSt7__cxx1112basic_stringIcSt11char_traitsIcESaIcEEESt4hashISC_ESt8equal_toISC_ESaISC_EEEELb0ELb0EEENS5_13unordered_mapIiSI_SD_IiESF_IiESaISJ_EEESt20forward_iterator_tagED1Ev, symObjAddr: 0x1408, symBinAddr: 0x1000052C4, symSize: 0x24 }
  - { offsetInCU: 0x58AA7, offset: 0x58AA7, size: 0x8, addend: 0x0, symName: __ZN11__gnu_debug14_Safe_iteratorIN9__gnu_cxx17__normal_iteratorIPNSt7__cxx1112basic_stringIcSt11char_traitsIcESaIcEEENSt9__cxx19986vectorIS8_SaIS8_EEEEENSt7__debug6vectorIS8_SC_EESt26bidirectional_iterator_tagED2Ev, symObjAddr: 0x13C8, symBinAddr: 0x100005284, symSize: 0x20 }
  - { offsetInCU: 0x58AAF, offset: 0x58AAF, size: 0x8, addend: 0x0, symName: __ZN11__gnu_debug14_Safe_iteratorIN9__gnu_cxx17__normal_iteratorIPNSt7__cxx1112basic_stringIcSt11char_traitsIcESaIcEEENSt9__cxx19986vectorIS8_SaIS8_EEEEENSt7__debug6vectorIS8_SC_EESt26random_access_iterator_tagED1Ev, symObjAddr: 0x13E8, symBinAddr: 0x1000052A4, symSize: 0x20 }
  - { offsetInCU: 0x58AFE, offset: 0x58AFE, size: 0x8, addend: 0x0, symName: __ZN11__gnu_debug14_Safe_iteratorIN9__gnu_cxx17__normal_iteratorIPNSt7__cxx1112basic_stringIcSt11char_traitsIcESaIcEEENSt9__cxx19986vectorIS8_SaIS8_EEEEENSt7__debug6vectorIS8_SC_EESt20forward_iterator_tagED2Ev, symObjAddr: 0x13A4, symBinAddr: 0x100005260, symSize: 0x24 }
  - { offsetInCU: 0x58B06, offset: 0x58B06, size: 0x8, addend: 0x0, symName: __ZN11__gnu_debug14_Safe_iteratorIN9__gnu_cxx17__normal_iteratorIPNSt7__cxx1112basic_stringIcSt11char_traitsIcESaIcEEENSt9__cxx19986vectorIS8_SaIS8_EEEEENSt7__debug6vectorIS8_SC_EESt26bidirectional_iterator_tagED2Ev, symObjAddr: 0x13C8, symBinAddr: 0x100005284, symSize: 0x20 }
  - { offsetInCU: 0x58B35, offset: 0x58B35, size: 0x8, addend: 0x0, symName: __ZNSt7__debug13unordered_mapIiNS_13unordered_setINSt7__cxx1112basic_stringIcSt11char_traitsIcESaIcEEESt4hashIS7_ESt8equal_toIS7_ESaIS7_EEES8_IiESA_IiESaISt4pairIKiSD_EEED1Ev, symObjAddr: 0x1378, symBinAddr: 0x100005234, symSize: 0x2C }
  - { offsetInCU: 0x58B3D, offset: 0x58B3D, size: 0x8, addend: 0x0, symName: __ZN11__gnu_debug14_Safe_iteratorIN9__gnu_cxx17__normal_iteratorIPNSt7__cxx1112basic_stringIcSt11char_traitsIcESaIcEEENSt9__cxx19986vectorIS8_SaIS8_EEEEENSt7__debug6vectorIS8_SC_EESt20forward_iterator_tagED2Ev, symObjAddr: 0x13A4, symBinAddr: 0x100005260, symSize: 0x24 }
  - { offsetInCU: 0x58B80, offset: 0x58B80, size: 0x8, addend: 0x0, symName: __ZNSt7__debug13unordered_mapIiNS_13unordered_setINSt7__cxx1112basic_stringIcSt11char_traitsIcESaIcEEESt4hashIS7_ESt8equal_toIS7_ESaIS7_EEES8_IiESA_IiESaISt4pairIKiSD_EEEC1Ev, symObjAddr: 0x134C, symBinAddr: 0x100005208, symSize: 0x2C }
  - { offsetInCU: 0x58B88, offset: 0x58B88, size: 0x8, addend: 0x0, symName: __ZNSt7__debug13unordered_mapIiNS_13unordered_setINSt7__cxx1112basic_stringIcSt11char_traitsIcESaIcEEESt4hashIS7_ESt8equal_toIS7_ESaIS7_EEES8_IiESA_IiESaISt4pairIKiSD_EEED1Ev, symObjAddr: 0x1378, symBinAddr: 0x100005234, symSize: 0x2C }
  - { offsetInCU: 0x58BE7, offset: 0x58BE7, size: 0x8, addend: 0x0, symName: __ZNSt9__cxx199813unordered_mapIiNSt7__debug13unordered_setINSt7__cxx1112basic_stringIcSt11char_traitsIcESaIcEEESt4hashIS8_ESt8equal_toIS8_ESaIS8_EEES9_IiESB_IiESaISt4pairIKiSE_EEED2Ev, symObjAddr: 0x132C, symBinAddr: 0x1000051E8, symSize: 0x20 }
  - { offsetInCU: 0x58BEF, offset: 0x58BEF, size: 0x8, addend: 0x0, symName: __ZNSt7__debug13unordered_mapIiNS_13unordered_setINSt7__cxx1112basic_stringIcSt11char_traitsIcESaIcEEESt4hashIS7_ESt8equal_toIS7_ESaIS7_EEES8_IiESA_IiESaISt4pairIKiSD_EEEC1Ev, symObjAddr: 0x134C, symBinAddr: 0x100005208, symSize: 0x2C }
  - { offsetInCU: 0x58C32, offset: 0x58C32, size: 0x8, addend: 0x0, symName: __ZNSt9__cxx199813unordered_mapIiNSt7__debug13unordered_setINSt7__cxx1112basic_stringIcSt11char_traitsIcESaIcEEESt4hashIS8_ESt8equal_toIS8_ESaIS8_EEES9_IiESB_IiESaISt4pairIKiSE_EEEC2Ev, symObjAddr: 0x130C, symBinAddr: 0x1000051C8, symSize: 0x20 }
  - { offsetInCU: 0x58C3A, offset: 0x58C3A, size: 0x8, addend: 0x0, symName: __ZNSt9__cxx199813unordered_mapIiNSt7__debug13unordered_setINSt7__cxx1112basic_stringIcSt11char_traitsIcESaIcEEESt4hashIS8_ESt8equal_toIS8_ESaIS8_EEES9_IiESB_IiESaISt4pairIKiSE_EEED2Ev, symObjAddr: 0x132C, symBinAddr: 0x1000051E8, symSize: 0x20 }
  - { offsetInCU: 0x58CFE, offset: 0x58CFE, size: 0x8, addend: 0x0, symName: __ZNSt10_HashtableIiSt4pairIKiNSt7__debug13unordered_setINSt7__cxx1112basic_stringIcSt11char_traitsIcESaIcEEESt4hashIS9_ESt8equal_toIS9_ESaIS9_EEEESaISG_ENSt8__detail10_Select1stESC_IiESA_IiENSI_18_Mod_range_hashingENSI_20_Default_ranged_hashENSI_20_Prime_rehash_policyENSI_17_Hashtable_traitsILb0ELb0ELb1EEEEC1Ev, symObjAddr: 0x129C, symBinAddr: 0x100005158, symSize: 0x70 }
  - { offsetInCU: 0x58D06, offset: 0x58D06, size: 0x8, addend: 0x0, symName: __ZNSt9__cxx199813unordered_mapIiNSt7__debug13unordered_setINSt7__cxx1112basic_stringIcSt11char_traitsIcESaIcEEESt4hashIS8_ESt8equal_toIS8_ESaIS8_EEES9_IiESB_IiESaISt4pairIKiSE_EEEC2Ev, symObjAddr: 0x130C, symBinAddr: 0x1000051C8, symSize: 0x20 }
  - { offsetInCU: 0x58CE3, offset: 0x58CE3, size: 0x8, addend: 0x0, symName: __ZNSt8__detail16_Hashtable_allocISaINS_10_Hash_nodeISt4pairIKiNSt7__debug13unordered_setINSt7__cxx1112basic_stringIcSt11char_traitsIcESaIcEEESt4hashISB_ESt8equal_toISB_ESaISB_EEEELb0EEEEED2Ev, symObjAddr: 0x127C, symBinAddr: 0x100005138, symSize: 0x20 }
  - { offsetInCU: 0x58CEB, offset: 0x58CEB, size: 0x8, addend: 0x0, symName: __ZNSt10_HashtableIiSt4pairIKiNSt7__debug13unordered_setINSt7__cxx1112basic_stringIcSt11char_traitsIcESaIcEEESt4hashIS9_ESt8equal_toIS9_ESaIS9_EEEESaISG_ENSt8__detail10_Select1stESC_IiESA_IiENSI_18_Mod_range_hashingENSI_20_Default_ranged_hashENSI_20_Prime_rehash_policyENSI_17_Hashtable_traitsILb0ELb0ELb1EEEEC1Ev, symObjAddr: 0x129C, symBinAddr: 0x100005158, symSize: 0x70 }
  - { offsetInCU: 0x58D2E, offset: 0x58D2E, size: 0x8, addend: 0x0, symName: __ZNSt8__detail16_Hashtable_allocISaINS_10_Hash_nodeISt4pairIKiNSt7__debug13unordered_setINSt7__cxx1112basic_stringIcSt11char_traitsIcESaIcEEESt4hashISB_ESt8equal_toISB_ESaISB_EEEELb0EEEEEC2Ev, symObjAddr: 0x125C, symBinAddr: 0x100005118, symSize: 0x20 }
  - { offsetInCU: 0x58D36, offset: 0x58D36, size: 0x8, addend: 0x0, symName: __ZNSt8__detail16_Hashtable_allocISaINS_10_Hash_nodeISt4pairIKiNSt7__debug13unordered_setINSt7__cxx1112basic_stringIcSt11char_traitsIcESaIcEEESt4hashISB_ESt8equal_toISB_ESaISB_EEEELb0EEEEED2Ev, symObjAddr: 0x127C, symBinAddr: 0x100005138, symSize: 0x20 }
  - { offsetInCU: 0x58D99, offset: 0x58D99, size: 0x8, addend: 0x0, symName: __ZNSt8__detail21_Hashtable_ebo_helperILi0ESaINS_10_Hash_nodeISt4pairIKiNSt7__debug13unordered_setINSt7__cxx1112basic_stringIcSt11char_traitsIcESaIcEEESt4hashISB_ESt8equal_toISB_ESaISB_EEEELb0EEEELb1EED2Ev, symObjAddr: 0x1230, symBinAddr: 0x1000050EC, symSize: 0x2C }
  - { offsetInCU: 0x58DA1, offset: 0x58DA1, size: 0x8, addend: 0x0, symName: __ZNSt8__detail16_Hashtable_allocISaINS_10_Hash_nodeISt4pairIKiNSt7__debug13unordered_setINSt7__cxx1112basic_stringIcSt11char_traitsIcESaIcEEESt4hashISB_ESt8equal_toISB_ESaISB_EEEELb0EEEEEC2Ev, symObjAddr: 0x125C, symBinAddr: 0x100005118, symSize: 0x20 }
  - { offsetInCU: 0x58E58, offset: 0x58E58, size: 0x8, addend: 0x0, symName: __ZNSt8__detail15_Hashtable_baseIiSt4pairIKiNSt7__debug13unordered_setINSt7__cxx1112basic_stringIcSt11char_traitsIcESaIcEEESt4hashISA_ESt8equal_toISA_ESaISA_EEEENS_10_Select1stESD_IiESB_IiENS_18_Mod_range_hashingENS_20_Default_ranged_hashENS_17_Hashtable_traitsILb0ELb0ELb1EEEEC2Ev, symObjAddr: 0x1208, symBinAddr: 0x1000050C4, symSize: 0x28 }
  - { offsetInCU: 0x58E60, offset: 0x58E60, size: 0x8, addend: 0x0, symName: __ZNSt8__detail21_Hashtable_ebo_helperILi0ESaINS_10_Hash_nodeISt4pairIKiNSt7__debug13unordered_setINSt7__cxx1112basic_stringIcSt11char_traitsIcESaIcEEESt4hashISB_ESt8equal_toISB_ESaISB_EEEELb0EEEELb1EED2Ev, symObjAddr: 0x1230, symBinAddr: 0x1000050EC, symSize: 0x2C }
  - { offsetInCU: 0x58E7C, offset: 0x58E7C, size: 0x8, addend: 0x0, symName: __ZNSt8__detail15_Hash_code_baseIiSt4pairIKiNSt7__debug13unordered_setINSt7__cxx1112basic_stringIcSt11char_traitsIcESaIcEEESt4hashISA_ESt8equal_toISA_ESaISA_EEEENS_10_Select1stESB_IiENS_18_Mod_range_hashingENS_20_Default_ranged_hashELb0EEC2Ev, symObjAddr: 0x11E8, symBinAddr: 0x1000050A4, symSize: 0x20 }
  - { offsetInCU: 0x58E84, offset: 0x58E84, size: 0x8, addend: 0x0, symName: __ZNSt8__detail15_Hashtable_baseIiSt4pairIKiNSt7__debug13unordered_setINSt7__cxx1112basic_stringIcSt11char_traitsIcESaIcEEESt4hashISA_ESt8equal_toISA_ESaISA_EEEENS_10_Select1stESD_IiESB_IiENS_18_Mod_range_hashingENS_20_Default_ranged_hashENS_17_Hashtable_traitsILb0ELb0ELb1EEEEC2Ev, symObjAddr: 0x1208, symBinAddr: 0x1000050C4, symSize: 0x28 }
  - { offsetInCU: 0x58EDE, offset: 0x58EDE, size: 0x8, addend: 0x0, symName: __ZN11__gnu_debug15_Safe_containerINSt7__debug13unordered_mapIiNS1_13unordered_setINSt7__cxx1112basic_stringIcSt11char_traitsIcESaIcEEESt4hashIS9_ESt8equal_toIS9_ESaIS9_EEESA_IiESC_IiESaISt4pairIKiSF_EEEESL_NS_25_Safe_unordered_containerELb1EED2Ev, symObjAddr: 0x11C8, symBinAddr: 0x100005084, symSize: 0x20 }
  - { offsetInCU: 0x58EE6, offset: 0x58EE6, size: 0x8, addend: 0x0, symName: __ZNSt8__detail15_Hash_code_baseIiSt4pairIKiNSt7__debug13unordered_setINSt7__cxx1112basic_stringIcSt11char_traitsIcESaIcEEESt4hashISA_ESt8equal_toISA_ESaISA_EEEENS_10_Select1stESB_IiENS_18_Mod_range_hashingENS_20_Default_ranged_hashELb0EEC2Ev, symObjAddr: 0x11E8, symBinAddr: 0x1000050A4, symSize: 0x20 }
  - { offsetInCU: 0x58F29, offset: 0x58F29, size: 0x8, addend: 0x0, symName: __ZN11__gnu_debug15_Safe_containerINSt7__debug13unordered_mapIiNS1_13unordered_setINSt7__cxx1112basic_stringIcSt11char_traitsIcESaIcEEESt4hashIS9_ESt8equal_toIS9_ESaIS9_EEESA_IiESC_IiESaISt4pairIKiSF_EEEESL_NS_25_Safe_unordered_containerELb1EEC2Ev, symObjAddr: 0x11A8, symBinAddr: 0x100005064, symSize: 0x20 }
  - { offsetInCU: 0x58F31, offset: 0x58F31, size: 0x8, addend: 0x0, symName: __ZN11__gnu_debug15_Safe_containerINSt7__debug13unordered_mapIiNS1_13unordered_setINSt7__cxx1112basic_stringIcSt11char_traitsIcESaIcEEESt4hashIS9_ESt8equal_toIS9_ESaIS9_EEESA_IiESC_IiESaISt4pairIKiSF_EEEESL_NS_25_Safe_unordered_containerELb1EED2Ev, symObjAddr: 0x11C8, symBinAddr: 0x100005084, symSize: 0x20 }
  - { offsetInCU: 0x58F6A, offset: 0x58F6A, size: 0x8, addend: 0x0, symName: __ZN11__gnu_debug25_Safe_unordered_containerINSt7__debug13unordered_mapIiNS1_13unordered_setINSt7__cxx1112basic_stringIcSt11char_traitsIcESaIcEEESt4hashIS9_ESt8equal_toIS9_ESaIS9_EEESA_IiESC_IiESaISt4pairIKiSF_EEEEED2Ev, symObjAddr: 0x1188, symBinAddr: 0x100005044, symSize: 0x20 }
  - { offsetInCU: 0x58F72, offset: 0x58F72, size: 0x8, addend: 0x0, symName: __ZN11__gnu_debug15_Safe_containerINSt7__debug13unordered_mapIiNS1_13unordered_setINSt7__cxx1112basic_stringIcSt11char_traitsIcESaIcEEESt4hashIS9_ESt8equal_toIS9_ESaIS9_EEESA_IiESC_IiESaISt4pairIKiSF_EEEESL_NS_25_Safe_unordered_containerELb1EEC2Ev, symObjAddr: 0x11A8, symBinAddr: 0x100005064, symSize: 0x20 }
  - { offsetInCU: 0x58FB8, offset: 0x58FB8, size: 0x8, addend: 0x0, symName: __ZN11__gnu_debug25_Safe_unordered_containerINSt7__debug13unordered_mapIiNS1_13unordered_setINSt7__cxx1112basic_stringIcSt11char_traitsIcESaIcEEESt4hashIS9_ESt8equal_toIS9_ESaIS9_EEESA_IiESC_IiESaISt4pairIKiSF_EEEEEC2Ev, symObjAddr: 0x1168, symBinAddr: 0x100005024, symSize: 0x20 }
  - { offsetInCU: 0x58FC0, offset: 0x58FC0, size: 0x8, addend: 0x0, symName: __ZN11__gnu_debug25_Safe_unordered_containerINSt7__debug13unordered_mapIiNS1_13unordered_setINSt7__cxx1112basic_stringIcSt11char_traitsIcESaIcEEESt4hashIS9_ESt8equal_toIS9_ESaIS9_EEESA_IiESC_IiESaISt4pairIKiSF_EEEEED2Ev, symObjAddr: 0x1188, symBinAddr: 0x100005044, symSize: 0x20 }
  - { offsetInCU: 0x58FCD, offset: 0x58FCD, size: 0x8, addend: 0x0, symName: __ZNSt7__debug13unordered_mapIiNS_6vectorINSt7__cxx1112basic_stringIcSt11char_traitsIcESaIcEEESaIS7_EEESt4hashIiESt8equal_toIiESaISt4pairIKiS9_EEED1Ev, symObjAddr: 0x113C, symBinAddr: 0x100004FF8, symSize: 0x2C }
  - { offsetInCU: 0x58FD5, offset: 0x58FD5, size: 0x8, addend: 0x0, symName: __ZN11__gnu_debug25_Safe_unordered_containerINSt7__debug13unordered_mapIiNS1_13unordered_setINSt7__cxx1112basic_stringIcSt11char_traitsIcESaIcEEESt4hashIS9_ESt8equal_toIS9_ESaIS9_EEESA_IiESC_IiESaISt4pairIKiSF_EEEEEC2Ev, symObjAddr: 0x1168, symBinAddr: 0x100005024, symSize: 0x20 }
  - { offsetInCU: 0x59018, offset: 0x59018, size: 0x8, addend: 0x0, symName: __ZNSt7__debug13unordered_mapIiNS_6vectorINSt7__cxx1112basic_stringIcSt11char_traitsIcESaIcEEESaIS7_EEESt4hashIiESt8equal_toIiESaISt4pairIKiS9_EEEC1Ev, symObjAddr: 0x1110, symBinAddr: 0x100004FCC, symSize: 0x2C }
  - { offsetInCU: 0x59020, offset: 0x59020, size: 0x8, addend: 0x0, symName: __ZNSt7__debug13unordered_mapIiNS_6vectorINSt7__cxx1112basic_stringIcSt11char_traitsIcESaIcEEESaIS7_EEESt4hashIiESt8equal_toIiESaISt4pairIKiS9_EEED1Ev, symObjAddr: 0x113C, symBinAddr: 0x100004FF8, symSize: 0x2C }
  - { offsetInCU: 0x5907F, offset: 0x5907F, size: 0x8, addend: 0x0, symName: __ZNSt9__cxx199813unordered_mapIiNSt7__debug6vectorINSt7__cxx1112basic_stringIcSt11char_traitsIcESaIcEEESaIS8_EEESt4hashIiESt8equal_toIiESaISt4pairIKiSA_EEED2Ev, symObjAddr: 0x10F0, symBinAddr: 0x100004FAC, symSize: 0x20 }
  - { offsetInCU: 0x59087, offset: 0x59087, size: 0x8, addend: 0x0, symName: __ZNSt7__debug13unordered_mapIiNS_6vectorINSt7__cxx1112basic_stringIcSt11char_traitsIcESaIcEEESaIS7_EEESt4hashIiESt8equal_toIiESaISt4pairIKiS9_EEEC1Ev, symObjAddr: 0x1110, symBinAddr: 0x100004FCC, symSize: 0x2C }
  - { offsetInCU: 0x590CA, offset: 0x590CA, size: 0x8, addend: 0x0, symName: __ZNSt9__cxx199813unordered_mapIiNSt7__debug6vectorINSt7__cxx1112basic_stringIcSt11char_traitsIcESaIcEEESaIS8_EEESt4hashIiESt8equal_toIiESaISt4pairIKiSA_EEEC2Ev, symObjAddr: 0x10D0, symBinAddr: 0x100004F8C, symSize: 0x20 }
  - { offsetInCU: 0x590D2, offset: 0x590D2, size: 0x8, addend: 0x0, symName: __ZNSt9__cxx199813unordered_mapIiNSt7__debug6vectorINSt7__cxx1112basic_stringIcSt11char_traitsIcESaIcEEESaIS8_EEESt4hashIiESt8equal_toIiESaISt4pairIKiSA_EEED2Ev, symObjAddr: 0x10F0, symBinAddr: 0x100004FAC, symSize: 0x20 }
  - { offsetInCU: 0x59196, offset: 0x59196, size: 0x8, addend: 0x0, symName: __ZNSt10_HashtableIiSt4pairIKiNSt7__debug6vectorINSt7__cxx1112basic_stringIcSt11char_traitsIcESaIcEEESaIS9_EEEESaISC_ENSt8__detail10_Select1stESt8equal_toIiESt4hashIiENSE_18_Mod_range_hashingENSE_20_Default_ranged_hashENSE_20_Prime_rehash_policyENSE_17_Hashtable_traitsILb0ELb0ELb1EEEEC1Ev, symObjAddr: 0x1060, symBinAddr: 0x100004F1C, symSize: 0x70 }
  - { offsetInCU: 0x5919E, offset: 0x5919E, size: 0x8, addend: 0x0, symName: __ZNSt9__cxx199813unordered_mapIiNSt7__debug6vectorINSt7__cxx1112basic_stringIcSt11char_traitsIcESaIcEEESaIS8_EEESt4hashIiESt8equal_toIiESaISt4pairIKiSA_EEEC2Ev, symObjAddr: 0x10D0, symBinAddr: 0x100004F8C, symSize: 0x20 }
  - { offsetInCU: 0x5916F, offset: 0x5916F, size: 0x8, addend: 0x0, symName: __ZNSt8__detail16_Hashtable_allocISaINS_10_Hash_nodeISt4pairIKiNSt7__debug6vectorINSt7__cxx1112basic_stringIcSt11char_traitsIcESaIcEEESaISB_EEEELb0EEEEED2Ev, symObjAddr: 0x1040, symBinAddr: 0x100004EFC, symSize: 0x20 }
  - { offsetInCU: 0x59177, offset: 0x59177, size: 0x8, addend: 0x0, symName: __ZNSt10_HashtableIiSt4pairIKiNSt7__debug6vectorINSt7__cxx1112basic_stringIcSt11char_traitsIcESaIcEEESaIS9_EEEESaISC_ENSt8__detail10_Select1stESt8equal_toIiESt4hashIiENSE_18_Mod_range_hashingENSE_20_Default_ranged_hashENSE_20_Prime_rehash_policyENSE_17_Hashtable_traitsILb0ELb0ELb1EEEEC1Ev, symObjAddr: 0x1060, symBinAddr: 0x100004F1C, symSize: 0x70 }
  - { offsetInCU: 0x591BA, offset: 0x591BA, size: 0x8, addend: 0x0, symName: __ZNSt8__detail16_Hashtable_allocISaINS_10_Hash_nodeISt4pairIKiNSt7__debug6vectorINSt7__cxx1112basic_stringIcSt11char_traitsIcESaIcEEESaISB_EEEELb0EEEEEC2Ev, symObjAddr: 0x1020, symBinAddr: 0x100004EDC, symSize: 0x20 }
  - { offsetInCU: 0x591C2, offset: 0x591C2, size: 0x8, addend: 0x0, symName: __ZNSt8__detail16_Hashtable_allocISaINS_10_Hash_nodeISt4pairIKiNSt7__debug6vectorINSt7__cxx1112basic_stringIcSt11char_traitsIcESaIcEEESaISB_EEEELb0EEEEED2Ev, symObjAddr: 0x1040, symBinAddr: 0x100004EFC, symSize: 0x20 }
  - { offsetInCU: 0x59225, offset: 0x59225, size: 0x8, addend: 0x0, symName: __ZNSt8__detail21_Hashtable_ebo_helperILi0ESaINS_10_Hash_nodeISt4pairIKiNSt7__debug6vectorINSt7__cxx1112basic_stringIcSt11char_traitsIcESaIcEEESaISB_EEEELb0EEEELb1EED2Ev, symObjAddr: 0xFF4, symBinAddr: 0x100004EB0, symSize: 0x2C }
  - { offsetInCU: 0x5922D, offset: 0x5922D, size: 0x8, addend: 0x0, symName: __ZNSt8__detail16_Hashtable_allocISaINS_10_Hash_nodeISt4pairIKiNSt7__debug6vectorINSt7__cxx1112basic_stringIcSt11char_traitsIcESaIcEEESaISB_EEEELb0EEEEEC2Ev, symObjAddr: 0x1020, symBinAddr: 0x100004EDC, symSize: 0x20 }
  - { offsetInCU: 0x592F0, offset: 0x592F0, size: 0x8, addend: 0x0, symName: __ZNSt8__detail15_Hashtable_baseIiSt4pairIKiNSt7__debug6vectorINSt7__cxx1112basic_stringIcSt11char_traitsIcESaIcEEESaISA_EEEENS_10_Select1stESt8equal_toIiESt4hashIiENS_18_Mod_range_hashingENS_20_Default_ranged_hashENS_17_Hashtable_traitsILb0ELb0ELb1EEEEC2Ev, symObjAddr: 0xFCC, symBinAddr: 0x100004E88, symSize: 0x28 }
  - { offsetInCU: 0x592F8, offset: 0x592F8, size: 0x8, addend: 0x0, symName: __ZNSt8__detail21_Hashtable_ebo_helperILi0ESaINS_10_Hash_nodeISt4pairIKiNSt7__debug6vectorINSt7__cxx1112basic_stringIcSt11char_traitsIcESaIcEEESaISB_EEEELb0EEEELb1EED2Ev, symObjAddr: 0xFF4, symBinAddr: 0x100004EB0, symSize: 0x2C }
  - { offsetInCU: 0x5930C, offset: 0x5930C, size: 0x8, addend: 0x0, symName: __ZNSt8__detail15_Hash_code_baseIiSt4pairIKiNSt7__debug6vectorINSt7__cxx1112basic_stringIcSt11char_traitsIcESaIcEEESaISA_EEEENS_10_Select1stESt4hashIiENS_18_Mod_range_hashingENS_20_Default_ranged_hashELb0EEC2Ev, symObjAddr: 0xFAC, symBinAddr: 0x100004E68, symSize: 0x20 }
  - { offsetInCU: 0x59314, offset: 0x59314, size: 0x8, addend: 0x0, symName: __ZNSt8__detail15_Hashtable_baseIiSt4pairIKiNSt7__debug6vectorINSt7__cxx1112basic_stringIcSt11char_traitsIcESaIcEEESaISA_EEEENS_10_Select1stESt8equal_toIiESt4hashIiENS_18_Mod_range_hashingENS_20_Default_ranged_hashENS_17_Hashtable_traitsILb0ELb0ELb1EEEEC2Ev, symObjAddr: 0xFCC, symBinAddr: 0x100004E88, symSize: 0x28 }
  - { offsetInCU: 0x59376, offset: 0x59376, size: 0x8, addend: 0x0, symName: __ZN11__gnu_debug15_Safe_containerINSt7__debug13unordered_mapIiNS1_6vectorINSt7__cxx1112basic_stringIcSt11char_traitsIcESaIcEEESaIS9_EEESt4hashIiESt8equal_toIiESaISt4pairIKiSB_EEEESJ_NS_25_Safe_unordered_containerELb1EED2Ev, symObjAddr: 0xF8C, symBinAddr: 0x100004E48, symSize: 0x20 }
  - { offsetInCU: 0x5937E, offset: 0x5937E, size: 0x8, addend: 0x0, symName: __ZNSt8__detail15_Hash_code_baseIiSt4pairIKiNSt7__debug6vectorINSt7__cxx1112basic_stringIcSt11char_traitsIcESaIcEEESaISA_EEEENS_10_Select1stESt4hashIiENS_18_Mod_range_hashingENS_20_Default_ranged_hashELb0EEC2Ev, symObjAddr: 0xFAC, symBinAddr: 0x100004E68, symSize: 0x20 }
