---
triple:          'arm64-apple-darwin'
binary-path:     brute
relocations:
  - { offsetInCU: 0x1B151, offset: 0x1B151, size: 0x8, addend: 0x0, symName: __ZStL8__ioinit, symObjAddr: 0x96828, symBinAddr: 0x100010228, symSize: 0x0 }
  - { offsetInCU: 0x1B25A, offset: 0x1B25A, size: 0x8, addend: 0x0, symName: __ZL3INF, symObjAddr: 0x46D8, symBinAddr: 0x100008E68, symSize: 0x0 }
  - { offsetInCU: 0x1B274, offset: 0x1B274, size: 0x8, addend: 0x0, symName: __ZL6INF_LL, symObjAddr: 0x46E0, symBinAddr: 0x100008E70, symSize: 0x0 }
  - { offsetInCU: 0x1B287, offset: 0x1B287, size: 0x8, addend: 0x0, symName: _T, symObjAddr: 0x9682C, symBinAddr: 0x10001022C, symSize: 0x0 }
  - { offsetInCU: 0x1B29E, offset: 0x1B29E, size: 0x8, addend: 0x0, symName: _X, symObjAddr: 0x96830, symBinAddr: 0x100010230, symSize: 0x0 }
  - { offsetInCU: 0x1B2B5, offset: 0x1B2B5, size: 0x8, addend: 0x0, symName: _N, symObjAddr: 0x96834, symBinAddr: 0x100010234, symSize: 0x0 }
  - { offsetInCU: 0x1B2CC, offset: 0x1B2CC, size: 0x8, addend: 0x0, symName: _M, symObjAddr: 0x96838, symBinAddr: 0x100010238, symSize: 0x0 }
  - { offsetInCU: 0x1B7AC, offset: 0x1B7AC, size: 0x8, addend: 0x0, symName: __ZSt7forwardINSt7__cxx1112basic_stringIcSt11char_traitsIcESaIcEEEEOT_RNSt16remove_referenceIS6_E4typeE, symObjAddr: 0x3C1C, symBinAddr: 0x100007B84, symSize: 0x14 }
  - { offsetInCU: 0x1B865, offset: 0x1B865, size: 0x8, addend: 0x0, symName: __ZSt19__relocate_object_aINSt7__cxx1112basic_stringIcSt11char_traitsIcESaIcEEES5_SaIS5_EEvPT_PT0_RT1_, symObjAddr: 0x3B4C, symBinAddr: 0x100007AB4, symSize: 0xD0 }
  - { offsetInCU: 0x1B9AD, offset: 0x1B9AD, size: 0x8, addend: 0x0, symName: __ZSt14__relocate_a_1IPNSt7__cxx1112basic_stringIcSt11char_traitsIcESaIcEEES6_SaIS5_EET0_T_S9_S8_RT1_, symObjAddr: 0x3AC8, symBinAddr: 0x100007A30, symSize: 0x84 }
  - { offsetInCU: 0x1BA36, offset: 0x1BA36, size: 0x8, addend: 0x0, symName: __ZSt12__niter_baseIPNSt7__cxx1112basic_stringIcSt11char_traitsIcESaIcEEEET_S7_, symObjAddr: 0x3AB4, symBinAddr: 0x100007A1C, symSize: 0x14 }
  - { offsetInCU: 0x1BA6D, offset: 0x1BA6D, size: 0x8, addend: 0x0, symName: __ZNSt15__new_allocatorINSt7__cxx1112basic_stringIcSt11char_traitsIcESaIcEEEE8allocateEmPKv, symObjAddr: 0x3A38, symBinAddr: 0x1000079A0, symSize: 0x7C }
  - { offsetInCU: 0x1BAF9, offset: 0x1BAF9, size: 0x8, addend: 0x0, symName: __ZNKSt9__cxx199812_Vector_baseINSt7__cxx1112basic_stringIcSt11char_traitsIcESaIcEEESaIS6_EE19_M_get_Tp_allocatorEv, symObjAddr: 0x3A24, symBinAddr: 0x10000798C, symSize: 0x14 }
  - { offsetInCU: 0x1BB1F, offset: 0x1BB1F, size: 0x8, addend: 0x0, symName: __ZNSt9__cxx19986vectorINSt7__cxx1112basic_stringIcSt11char_traitsIcESaIcEEESaIS6_EE11_S_max_sizeERKS7_, symObjAddr: 0x39D0, symBinAddr: 0x100007938, symSize: 0x54 }
  - { offsetInCU: 0x1BBD6, offset: 0x1BBD6, size: 0x8, addend: 0x0, symName: __ZSt11__addressofIKcEPT_RS1_, symObjAddr: 0x39BC, symBinAddr: 0x100007924, symSize: 0x14 }
  - { offsetInCU: 0x1BC1E, offset: 0x1BC1E, size: 0x8, addend: 0x0, symName: __ZSt8_DestroyINSt7__cxx1112basic_stringIcSt11char_traitsIcESaIcEEEEvPT_, symObjAddr: 0x399C, symBinAddr: 0x100007904, symSize: 0x20 }
  - { offsetInCU: 0x1BC50, offset: 0x1BC50, size: 0x8, addend: 0x0, symName: __ZSt12__relocate_aIPNSt7__cxx1112basic_stringIcSt11char_traitsIcESaIcEEES6_SaIS5_EET0_T_S9_S8_RT1_, symObjAddr: 0x3940, symBinAddr: 0x1000078A8, symSize: 0x5C }
  - { offsetInCU: 0x1BCF0, offset: 0x1BCF0, size: 0x8, addend: 0x0, symName: __ZNKSt9__cxx19986vectorINSt7__cxx1112basic_stringIcSt11char_traitsIcESaIcEEESaIS6_EE8max_sizeEv, symObjAddr: 0x3920, symBinAddr: 0x100007888, symSize: 0x20 }
  - { offsetInCU: 0x1BD1A, offset: 0x1BD1A, size: 0x8, addend: 0x0, symName: __ZNSt15__new_allocatorIcE8allocateEmPKv, symObjAddr: 0x38BC, symBinAddr: 0x100007824, symSize: 0x64 }
  - { offsetInCU: 0x1BDA2, offset: 0x1BDA2, size: 0x8, addend: 0x0, symName: __ZSt9addressofIKcEPT_RS1_, symObjAddr: 0x38A0, symBinAddr: 0x100007808, symSize: 0x1C }
  - { offsetInCU: 0x1BDEA, offset: 0x1BDEA, size: 0x8, addend: 0x0, symName: __ZSt11__addressofIcEPT_RS0_, symObjAddr: 0x388C, symBinAddr: 0x1000077F4, symSize: 0x14 }
  - { offsetInCU: 0x1BE1C, offset: 0x1BE1C, size: 0x8, addend: 0x0, symName: __ZSt11__addressofIKN11__gnu_debug14_Safe_iteratorIN9__gnu_cxx17__normal_iteratorIPNSt7__cxx1112basic_stringIcSt11char_traitsIcESaIcEEENSt9__cxx19986vectorIS9_SaIS9_EEEEENSt7__debug6vectorIS9_SD_EESt20forward_iterator_tagEEEPT_RSM_, symObjAddr: 0x3878, symBinAddr: 0x1000077E0, symSize: 0x14 }
  - { offsetInCU: 0x1BE4E, offset: 0x1BE4E, size: 0x8, addend: 0x0, symName: __ZN11__gnu_debug18_BeforeBeginHelperINSt7__debug6vectorINSt7__cxx1112basic_stringIcSt11char_traitsIcESaIcEEESaIS8_EEEE5_S_IsIN9__gnu_cxx17__normal_iteratorIPS8_NSt9__cxx19986vectorIS8_S9_EEEESt20forward_iterator_tagEEbRKNS_14_Safe_iteratorIT_SA_T0_EE, symObjAddr: 0x3864, symBinAddr: 0x1000077CC, symSize: 0x14 }
  - { offsetInCU: 0x1BE86, offset: 0x1BE86, size: 0x8, addend: 0x0, symName: __ZNSt7__debug6vectorINSt7__cxx1112basic_stringIcSt11char_traitsIcESaIcEEESaIS6_EE7_M_baseEv, symObjAddr: 0x384C, symBinAddr: 0x1000077B4, symSize: 0x18 }
  - { offsetInCU: 0x1BEB0, offset: 0x1BEB0, size: 0x8, addend: 0x0, symName: __ZNK11__gnu_debug14_Safe_iteratorIN9__gnu_cxx17__normal_iteratorIPNSt7__cxx1112basic_stringIcSt11char_traitsIcESaIcEEENSt9__cxx19986vectorIS8_SaIS8_EEEEENSt7__debug6vectorIS8_SC_EESt20forward_iterator_tagE16_M_incrementableEv, symObjAddr: 0x37F0, symBinAddr: 0x100007758, symSize: 0x5C }
  - { offsetInCU: 0x1BEDA, offset: 0x1BEDA, size: 0x8, addend: 0x0, symName: __ZN9__gnu_cxx17__normal_iteratorIPNSt7__cxx1112basic_stringIcSt11char_traitsIcESaIcEEENSt9__cxx19986vectorIS6_SaIS6_EEEEppEv, symObjAddr: 0x37C8, symBinAddr: 0x100007730, symSize: 0x28 }
  - { offsetInCU: 0x1BF04, offset: 0x1BF04, size: 0x8, addend: 0x0, symName: __ZN11__gnu_debug14_Safe_iteratorIN9__gnu_cxx17__normal_iteratorIPNSt7__cxx1112basic_stringIcSt11char_traitsIcESaIcEEENSt9__cxx19986vectorIS8_SaIS8_EEEEENSt7__debug6vectorIS8_SC_EESt20forward_iterator_tagE4baseEv, symObjAddr: 0x37B4, symBinAddr: 0x10000771C, symSize: 0x14 }
  - { offsetInCU: 0x1BF2E, offset: 0x1BF2E, size: 0x8, addend: 0x0, symName: __ZNK11__gnu_debug14_Safe_iteratorIN9__gnu_cxx17__normal_iteratorIPNSt7__cxx1112basic_stringIcSt11char_traitsIcESaIcEEENSt9__cxx19986vectorIS8_SaIS8_EEEEENSt7__debug6vectorIS8_SC_EESt20forward_iterator_tagE11_M_is_beginEv, symObjAddr: 0x3768, symBinAddr: 0x1000076D0, symSize: 0x4C }
  - { offsetInCU: 0x1BF58, offset: 0x1BF58, size: 0x8, addend: 0x0, symName: __ZNK11__gnu_debug14_Safe_iteratorIN9__gnu_cxx17__normal_iteratorIPNSt7__cxx1112basic_stringIcSt11char_traitsIcESaIcEEENSt9__cxx19986vectorIS8_SaIS8_EEEEENSt7__debug6vectorIS8_SC_EESt20forward_iterator_tagE15_M_get_sequenceEv, symObjAddr: 0x3750, symBinAddr: 0x1000076B8, symSize: 0x18 }
  - { offsetInCU: 0x1BF7E, offset: 0x1BF7E, size: 0x8, addend: 0x0, symName: __ZSt11__addressofIKN11__gnu_debug14_Safe_iteratorIN9__gnu_cxx17__normal_iteratorIPNSt7__cxx1112basic_stringIcSt11char_traitsIcESaIcEEENSt9__cxx19986vectorIS9_SaIS9_EEEEENSt7__debug6vectorIS9_SD_EESt26random_access_iterator_tagEEEPT_RSM_, symObjAddr: 0x373C, symBinAddr: 0x1000076A4, symSize: 0x14 }
  - { offsetInCU: 0x1C0D2, offset: 0x1C0D2, size: 0x8, addend: 0x0, symName: __ZN11__gnu_debug14_Safe_iteratorIN9__gnu_cxx17__normal_iteratorIPNSt7__cxx1112basic_stringIcSt11char_traitsIcESaIcEEENSt9__cxx19986vectorIS8_SaIS8_EEEEENSt7__debug6vectorIS8_SC_EESt20forward_iterator_tagEC2ESE_PKNS_19_Safe_sequence_baseE, symObjAddr: 0x36EC, symBinAddr: 0x100007654, symSize: 0x50 }
  - { offsetInCU: 0x1C01C, offset: 0x1C01C, size: 0x8, addend: 0x0, symName: __ZNSt12_Destroy_auxILb0EE9__destroyIPNSt7__cxx1112basic_stringIcSt11char_traitsIcESaIcEEEEEvT_S9_, symObjAddr: 0x36A0, symBinAddr: 0x100007608, symSize: 0x4C }
  - { offsetInCU: 0x1C062, offset: 0x1C062, size: 0x8, addend: 0x0, symName: __ZNSt15__new_allocatorINSt7__cxx1112basic_stringIcSt11char_traitsIcESaIcEEEE10deallocateEPS5_m, symObjAddr: 0x3670, symBinAddr: 0x1000075D8, symSize: 0x30 }
  - { offsetInCU: 0x1C0AC, offset: 0x1C0AC, size: 0x8, addend: 0x0, symName: __ZNKSt9__cxx19986vectorINSt7__cxx1112basic_stringIcSt11char_traitsIcESaIcEEESaIS6_EE8capacityEv, symObjAddr: 0x3648, symBinAddr: 0x1000075B0, symSize: 0x28 }
  - { offsetInCU: 0x1C0D2, offset: 0x1C0D2, size: 0x8, addend: 0x0, symName: __ZNSt9__cxx19986vectorINSt7__cxx1112basic_stringIcSt11char_traitsIcESaIcEEESaIS6_EE11_S_relocateEPS6_S9_S9_RS7_, symObjAddr: 0x3614, symBinAddr: 0x10000757C, symSize: 0x34 }
  - { offsetInCU: 0x1C12F, offset: 0x1C12F, size: 0x8, addend: 0x0, symName: __ZSt12__to_addressINSt7__cxx1112basic_stringIcSt11char_traitsIcESaIcEEEEPT_S7_, symObjAddr: 0x3600, symBinAddr: 0x100007568, symSize: 0x14 }
  - { offsetInCU: 0x1C165, offset: 0x1C165, size: 0x8, addend: 0x0, symName: __ZNSt9__cxx199812_Vector_baseINSt7__cxx1112basic_stringIcSt11char_traitsIcESaIcEEESaIS6_EE11_M_allocateEm, symObjAddr: 0x35B0, symBinAddr: 0x100007518, symSize: 0x50 }
  - { offsetInCU: 0x1C1C9, offset: 0x1C1C9, size: 0x8, addend: 0x0, symName: __ZN9__gnu_cxxmiIPNSt7__cxx1112basic_stringIcSt11char_traitsIcESaIcEEENSt9__cxx19986vectorIS6_SaIS6_EEEEENS_17__normal_iteratorIT_T0_E15difference_typeERKSF_SI_, symObjAddr: 0x3570, symBinAddr: 0x1000074D8, symSize: 0x40 }
  - { offsetInCU: 0x1C21A, offset: 0x1C21A, size: 0x8, addend: 0x0, symName: __ZNKSt9__cxx19986vectorINSt7__cxx1112basic_stringIcSt11char_traitsIcESaIcEEESaIS6_EE12_M_check_lenEmPKc, symObjAddr: 0x34A0, symBinAddr: 0x100007408, symSize: 0xD0 }
  - { offsetInCU: 0x1C2BB, offset: 0x1C2BB, size: 0x8, addend: 0x0, symName: __ZSt7forwardIRKNSt7__cxx1112basic_stringIcSt11char_traitsIcESaIcEEEEOT_RNSt16remove_referenceIS8_E4typeE, symObjAddr: 0x348C, symBinAddr: 0x1000073F4, symSize: 0x14 }
  - { offsetInCU: 0x1C2F6, offset: 0x1C2F6, size: 0x8, addend: 0x0, symName: __ZNSt7__cxx1112basic_stringIcSt11char_traitsIcESaIcEE9_M_appendEPKcm, symObjAddr: 0x33C4, symBinAddr: 0x10000732C, symSize: 0xC8 }
  - { offsetInCU: 0x1C357, offset: 0x1C357, size: 0x8, addend: 0x0, symName: __ZNSt7__cxx1112basic_stringIcSt11char_traitsIcESaIcEE9_M_mutateEmmPKcm, symObjAddr: 0x326C, symBinAddr: 0x1000071D4, symSize: 0x158 }
  - { offsetInCU: 0x1C3F8, offset: 0x1C3F8, size: 0x8, addend: 0x0, symName: __ZNKSt7__cxx1112basic_stringIcSt11char_traitsIcESaIcEE15_M_check_lengthEmmPKc, symObjAddr: 0x31F8, symBinAddr: 0x100007160, symSize: 0x74 }
  - { offsetInCU: 0x1C479, offset: 0x1C479, size: 0x8, addend: 0x0, symName: __ZNSt15__new_allocatorIcE10deallocateEPcm, symObjAddr: 0x31D0, symBinAddr: 0x100007138, symSize: 0x28 }
  - { offsetInCU: 0x1C51F, offset: 0x1C51F, size: 0x8, addend: 0x0, symName: __ZNSt19__ptr_traits_ptr_toIPKcS0_Lb0EE10pointer_toERS0_, symObjAddr: 0x31B4, symBinAddr: 0x10000711C, symSize: 0x1C }
  - { offsetInCU: 0x1C54C, offset: 0x1C54C, size: 0x8, addend: 0x0, symName: __ZNKSt7__cxx1112basic_stringIcSt11char_traitsIcESaIcEE8max_sizeEv, symObjAddr: 0x3170, symBinAddr: 0x1000070D8, symSize: 0x44 }
  - { offsetInCU: 0x1C5F8, offset: 0x1C5F8, size: 0x8, addend: 0x0, symName: __ZSt9addressofIcEPT_RS0_, symObjAddr: 0x3154, symBinAddr: 0x1000070BC, symSize: 0x1C }
  - { offsetInCU: 0x1C794, offset: 0x1C794, size: 0x8, addend: 0x0, symName: __ZN11__gnu_debug16_Error_formatter10_ParameterC1IN9__gnu_cxx17__normal_iteratorIPNSt7__cxx1112basic_stringIcSt11char_traitsIcESaIcEEENSt9__cxx19986vectorISA_SaISA_EEEEENSt7__debug6vectorISA_SE_EESt20forward_iterator_tagEERKNS_14_Safe_iteratorIT_T0_T1_EEPKcNS0_12_Is_iteratorE, symObjAddr: 0x2FEC, symBinAddr: 0x100006F54, symSize: 0x168 }
  - { offsetInCU: 0x1C6E0, offset: 0x1C6E0, size: 0x8, addend: 0x0, symName: __ZNK11__gnu_debug14_Safe_iteratorIN9__gnu_cxx17__normal_iteratorIPNSt7__cxx1112basic_stringIcSt11char_traitsIcESaIcEEENSt9__cxx19986vectorIS8_SaIS8_EEEEENSt7__debug6vectorIS8_SC_EESt20forward_iterator_tagE18_M_is_before_beginEv, symObjAddr: 0x2FD0, symBinAddr: 0x100006F38, symSize: 0x1C }
  - { offsetInCU: 0x1C70A, offset: 0x1C70A, size: 0x8, addend: 0x0, symName: __ZNK11__gnu_debug14_Safe_iteratorIN9__gnu_cxx17__normal_iteratorIPNSt7__cxx1112basic_stringIcSt11char_traitsIcESaIcEEENSt9__cxx19986vectorIS8_SaIS8_EEEEENSt7__debug6vectorIS8_SC_EESt20forward_iterator_tagE9_M_is_endEv, symObjAddr: 0x2F84, symBinAddr: 0x100006EEC, symSize: 0x4C }
  - { offsetInCU: 0x1C734, offset: 0x1C734, size: 0x8, addend: 0x0, symName: __ZN11__gnu_debug14_Safe_iteratorIN9__gnu_cxx17__normal_iteratorIPNSt7__cxx1112basic_stringIcSt11char_traitsIcESaIcEEENSt9__cxx19986vectorIS8_SaIS8_EEEEENSt7__debug6vectorIS8_SC_EESt20forward_iterator_tagEppEv, symObjAddr: 0x2EB4, symBinAddr: 0x100006E1C, symSize: 0xD0 }
  - { offsetInCU: 0x1C7C3, offset: 0x1C7C3, size: 0x8, addend: 0x0, symName: __ZNK9__gnu_cxx17__normal_iteratorIPNSt7__cxx1112basic_stringIcSt11char_traitsIcESaIcEEENSt9__cxx19986vectorIS6_SaIS6_EEEE4baseEv, symObjAddr: 0x2EA0, symBinAddr: 0x100006E08, symSize: 0x14 }
  - { offsetInCU: 0x1C959, offset: 0x1C959, size: 0x8, addend: 0x0, symName: __ZN11__gnu_debug16_Error_formatter10_ParameterC1IN9__gnu_cxx17__normal_iteratorIPNSt7__cxx1112basic_stringIcSt11char_traitsIcESaIcEEENSt9__cxx19986vectorISA_SaISA_EEEEENSt7__debug6vectorISA_SE_EESt26random_access_iterator_tagEERKNS_14_Safe_iteratorIT_T0_T1_EEPKcNS0_12_Is_iteratorE, symObjAddr: 0x2D38, symBinAddr: 0x100006CA0, symSize: 0x168 }
  - { offsetInCU: 0x1C89C, offset: 0x1C89C, size: 0x8, addend: 0x0, symName: __ZN11__gnu_debug14_Safe_iteratorIN9__gnu_cxx17__normal_iteratorIPNSt7__cxx1112basic_stringIcSt11char_traitsIcESaIcEEENSt9__cxx19986vectorIS8_SaIS8_EEEEENSt7__debug6vectorIS8_SC_EESt20forward_iterator_tagE11_S_constantEv, symObjAddr: 0x2D30, symBinAddr: 0x100006C98, symSize: 0x8 }
  - { offsetInCU: 0x1C8B3, offset: 0x1C8B3, size: 0x8, addend: 0x0, symName: __ZN9__gnu_cxxeqIPNSt7__cxx1112basic_stringIcSt11char_traitsIcESaIcEEENSt9__cxx19986vectorIS6_SaIS6_EEEEEbRKNS_17__normal_iteratorIT_T0_EESH_, symObjAddr: 0x2CEC, symBinAddr: 0x100006C54, symSize: 0x44 }
  - { offsetInCU: 0x1C997, offset: 0x1C997, size: 0x8, addend: 0x0, symName: __ZN9__gnu_cxx17__normal_iteratorIPNSt7__cxx1112basic_stringIcSt11char_traitsIcESaIcEEENSt9__cxx19986vectorIS6_SaIS6_EEEEC1Ev, symObjAddr: 0x2CD0, symBinAddr: 0x100006C38, symSize: 0x1C }
  - { offsetInCU: 0x1CA6A, offset: 0x1CA6A, size: 0x8, addend: 0x0, symName: __ZN11__gnu_debug14_Safe_iteratorIN9__gnu_cxx17__normal_iteratorIPNSt7__cxx1112basic_stringIcSt11char_traitsIcESaIcEEENSt9__cxx19986vectorIS8_SaIS8_EEEEENSt7__debug6vectorIS8_SC_EESt26bidirectional_iterator_tagEC2ESE_PKNS_19_Safe_sequence_baseE, symObjAddr: 0x2CA0, symBinAddr: 0x100006C08, symSize: 0x30 }
  - { offsetInCU: 0x1CA57, offset: 0x1CA57, size: 0x8, addend: 0x0, symName: __ZN9__gnu_cxx17__normal_iteratorIPNSt7__cxx1112basic_stringIcSt11char_traitsIcESaIcEEENSt9__cxx19986vectorIS6_SaIS6_EEEEC1ERKS7_, symObjAddr: 0x2C78, symBinAddr: 0x100006BE0, symSize: 0x28 }
  - { offsetInCU: 0x1CA05, offset: 0x1CA05, size: 0x8, addend: 0x0, symName: __ZSt8_DestroyIPNSt7__cxx1112basic_stringIcSt11char_traitsIcESaIcEEEEvT_S7_, symObjAddr: 0x2C50, symBinAddr: 0x100006BB8, symSize: 0x28 }
  - { offsetInCU: 0x1CA93, offset: 0x1CA93, size: 0x8, addend: 0x0, symName: __ZNKSt7__debug6vectorINSt7__cxx1112basic_stringIcSt11char_traitsIcESaIcEEESaIS6_EE8capacityEv, symObjAddr: 0x2C0C, symBinAddr: 0x100006B74, symSize: 0x44 }
  - { offsetInCU: 0x1CAD7, offset: 0x1CAD7, size: 0x8, addend: 0x0, symName: __ZNK11__gnu_debug12_Safe_vectorINSt7__debug6vectorINSt7__cxx1112basic_stringIcSt11char_traitsIcESaIcEEESaIS8_EEENSt9__cxx19986vectorIS8_S9_EEE6_M_seqEv, symObjAddr: 0x2BF4, symBinAddr: 0x100006B5C, symSize: 0x18 }
  - { offsetInCU: 0x1CB01, offset: 0x1CB01, size: 0x8, addend: 0x0, symName: __ZNSt9__cxx19986vectorINSt7__cxx1112basic_stringIcSt11char_traitsIcESaIcEEESaIS6_EE17_M_realloc_appendIJRKS6_EEEvDpOT_, symObjAddr: 0x29F8, symBinAddr: 0x100006960, symSize: 0x1FC }
  - { offsetInCU: 0x1CD0E, offset: 0x1CD0E, size: 0x8, addend: 0x0, symName: __ZZNSt9__cxx19986vectorINSt7__cxx1112basic_stringIcSt11char_traitsIcESaIcEEESaIS6_EE17_M_realloc_appendIJRKS6_EEEvDpOT_EN6_GuardC1EPS6_mRS7_, symObjAddr: 0x2954, symBinAddr: 0x1000068BC, symSize: 0x44 }
  - { offsetInCU: 0x1CD4C, offset: 0x1CD4C, size: 0x8, addend: 0x0, symName: __ZZNSt9__cxx19986vectorINSt7__cxx1112basic_stringIcSt11char_traitsIcESaIcEEESaIS6_EE17_M_realloc_appendIJRKS6_EEEvDpOT_EN6_GuardD1Ev, symObjAddr: 0x2998, symBinAddr: 0x100006900, symSize: 0x60 }
  - { offsetInCU: 0x1CDFD, offset: 0x1CDFD, size: 0x8, addend: 0x0, symName: __ZNSt7__cxx1112basic_stringIcSt11char_traitsIcESaIcEE6appendEPKcm, symObjAddr: 0x2910, symBinAddr: 0x100006878, symSize: 0x44 }
  - { offsetInCU: 0x1CE45, offset: 0x1CE45, size: 0x8, addend: 0x0, symName: __ZNSt7__cxx1112basic_stringIcSt11char_traitsIcESaIcEE11_S_allocateERS3_m, symObjAddr: 0x28CC, symBinAddr: 0x100006834, symSize: 0x44 }
  - { offsetInCU: 0x1CEEC, offset: 0x1CEEC, size: 0x8, addend: 0x0, symName: __ZNSt7__cxx1112basic_stringIcSt11char_traitsIcESaIcEE13_S_copy_charsEPcS5_S5_, symObjAddr: 0x2890, symBinAddr: 0x1000067F8, symSize: 0x3C }
  - { offsetInCU: 0x1CF79, offset: 0x1CF79, size: 0x8, addend: 0x0, symName: __ZNSt7__cxx1112basic_stringIcSt11char_traitsIcESaIcEE13_S_copy_charsEPcPKcS7_, symObjAddr: 0x2854, symBinAddr: 0x1000067BC, symSize: 0x3C }
  - { offsetInCU: 0x1D00A, offset: 0x1D00A, size: 0x8, addend: 0x0, symName: __ZNKSt7__cxx1112basic_stringIcSt11char_traitsIcESaIcEE13_M_local_dataEv, symObjAddr: 0x2834, symBinAddr: 0x10000679C, symSize: 0x20 }
  - { offsetInCU: 0x1D038, offset: 0x1D038, size: 0x8, addend: 0x0, symName: __ZNSt7__cxx1112basic_stringIcSt11char_traitsIcESaIcEE9_M_createERmm, symObjAddr: 0x2740, symBinAddr: 0x1000066A8, symSize: 0xF4 }
  - { offsetInCU: 0x1D081, offset: 0x1D081, size: 0x8, addend: 0x0, symName: __ZNKSt7__cxx1112basic_stringIcSt11char_traitsIcESaIcEE8capacityEv, symObjAddr: 0x2708, symBinAddr: 0x100006670, symSize: 0x38 }
  - { offsetInCU: 0x1D0CA, offset: 0x1D0CA, size: 0x8, addend: 0x0, symName: __ZNSt19__ptr_traits_ptr_toIPccLb0EE10pointer_toERc, symObjAddr: 0x26EC, symBinAddr: 0x100006654, symSize: 0x1C }
  - { offsetInCU: 0x1D0F7, offset: 0x1D0F7, size: 0x8, addend: 0x0, symName: __ZNK9__gnu_cxx17__normal_iteratorIPcNSt7__cxx1112basic_stringIcSt11char_traitsIcESaIcEEEE4baseEv, symObjAddr: 0x26D8, symBinAddr: 0x100006640, symSize: 0x14 }
  - { offsetInCU: 0x1D1A6, offset: 0x1D1A6, size: 0x8, addend: 0x0, symName: __ZN9__gnu_cxx17__normal_iteratorIPcNSt7__cxx1112basic_stringIcSt11char_traitsIcESaIcEEEEC1ERKS1_, symObjAddr: 0x26B0, symBinAddr: 0x100006618, symSize: 0x28 }
  - { offsetInCU: 0x1D178, offset: 0x1D178, size: 0x8, addend: 0x0, symName: __ZNK9__gnu_cxx17__normal_iteratorIPNSt7__cxx1112basic_stringIcSt11char_traitsIcESaIcEEENSt9__cxx19986vectorIS6_SaIS6_EEEEdeEv, symObjAddr: 0x2698, symBinAddr: 0x100006600, symSize: 0x18 }
  - { offsetInCU: 0x1D1A2, offset: 0x1D1A2, size: 0x8, addend: 0x0, symName: __ZN11__gnu_debug16_Error_formatter11_M_iteratorINS_14_Safe_iteratorIN9__gnu_cxx17__normal_iteratorIPNSt7__cxx1112basic_stringIcSt11char_traitsIcESaIcEEENSt9__cxx19986vectorISA_SaISA_EEEEENSt7__debug6vectorISA_SE_EESt20forward_iterator_tagEEEERS0_RKT_PKc, symObjAddr: 0x25FC, symBinAddr: 0x100006564, symSize: 0x9C }
  - { offsetInCU: 0x1D1FA, offset: 0x1D1FA, size: 0x8, addend: 0x0, symName: __ZNK11__gnu_debug14_Safe_iteratorIN9__gnu_cxx17__normal_iteratorIPNSt7__cxx1112basic_stringIcSt11char_traitsIcESaIcEEENSt9__cxx19986vectorIS8_SaIS8_EEEEENSt7__debug6vectorIS8_SC_EESt20forward_iterator_tagE18_M_dereferenceableEv, symObjAddr: 0x2584, symBinAddr: 0x1000064EC, symSize: 0x78 }
  - { offsetInCU: 0x1D224, offset: 0x1D224, size: 0x8, addend: 0x0, symName: __ZN11__gnu_debug14_Safe_iteratorIN9__gnu_cxx17__normal_iteratorIPNSt7__cxx1112basic_stringIcSt11char_traitsIcESaIcEEENSt9__cxx19986vectorIS8_SaIS8_EEEEENSt7__debug6vectorIS8_SC_EESt26bidirectional_iterator_tagEppEv, symObjAddr: 0x2564, symBinAddr: 0x1000064CC, symSize: 0x20 }
  - { offsetInCU: 0x1D24A, offset: 0x1D24A, size: 0x8, addend: 0x0, symName: __ZN9__gnu_cxxneIPNSt7__cxx1112basic_stringIcSt11char_traitsIcESaIcEEENSt9__cxx19986vectorIS6_SaIS6_EEEEEbRKNS_17__normal_iteratorIT_T0_EESH_, symObjAddr: 0x2520, symBinAddr: 0x100006488, symSize: 0x44 }
  - { offsetInCU: 0x1D29B, offset: 0x1D29B, size: 0x8, addend: 0x0, symName: __ZNK11__gnu_debug14_Safe_iteratorIN9__gnu_cxx17__normal_iteratorIPNSt7__cxx1112basic_stringIcSt11char_traitsIcESaIcEEENSt9__cxx19986vectorIS8_SaIS8_EEEEENSt7__debug6vectorIS8_SC_EESt20forward_iterator_tagE4baseEv, symObjAddr: 0x250C, symBinAddr: 0x100006474, symSize: 0x14 }
  - { offsetInCU: 0x1D2C5, offset: 0x1D2C5, size: 0x8, addend: 0x0, symName: __ZN11__gnu_debug16_Error_formatter11_M_iteratorINS_14_Safe_iteratorIN9__gnu_cxx17__normal_iteratorIPNSt7__cxx1112basic_stringIcSt11char_traitsIcESaIcEEENSt9__cxx19986vectorISA_SaISA_EEEEENSt7__debug6vectorISA_SE_EESt26random_access_iterator_tagEEEERS0_RKT_PKc, symObjAddr: 0x2470, symBinAddr: 0x1000063D8, symSize: 0x9C }
  - { offsetInCU: 0x1D31D, offset: 0x1D31D, size: 0x8, addend: 0x0, symName: __ZNK11__gnu_debug14_Safe_iteratorIN9__gnu_cxx17__normal_iteratorIPNSt7__cxx1112basic_stringIcSt11char_traitsIcESaIcEEENSt9__cxx19986vectorIS8_SaIS8_EEEEENSt7__debug6vectorIS8_SC_EESt20forward_iterator_tagE20_M_value_initializedEv, symObjAddr: 0x2408, symBinAddr: 0x100006370, symSize: 0x68 }
  - { offsetInCU: 0x1D347, offset: 0x1D347, size: 0x8, addend: 0x0, symName: __ZNSt9__cxx19986vectorINSt7__cxx1112basic_stringIcSt11char_traitsIcESaIcEEESaIS6_EE3endEv, symObjAddr: 0x23E0, symBinAddr: 0x100006348, symSize: 0x28 }
  - { offsetInCU: 0x1D497, offset: 0x1D497, size: 0x8, addend: 0x0, symName: __ZN11__gnu_debug14_Safe_iteratorIN9__gnu_cxx17__normal_iteratorIPNSt7__cxx1112basic_stringIcSt11char_traitsIcESaIcEEENSt9__cxx19986vectorIS8_SaIS8_EEEEENSt7__debug6vectorIS8_SC_EESt26random_access_iterator_tagEC1ESE_PKNS_19_Safe_sequence_baseE, symObjAddr: 0x23B0, symBinAddr: 0x100006318, symSize: 0x30 }
  - { offsetInCU: 0x1D3DF, offset: 0x1D3DF, size: 0x8, addend: 0x0, symName: __ZNSt9__cxx19986vectorINSt7__cxx1112basic_stringIcSt11char_traitsIcESaIcEEESaIS6_EE5beginEv, symObjAddr: 0x238C, symBinAddr: 0x1000062F4, symSize: 0x24 }
  - { offsetInCU: 0x1D444, offset: 0x1D444, size: 0x8, addend: 0x0, symName: __ZNSt9__cxx199812_Vector_baseINSt7__cxx1112basic_stringIcSt11char_traitsIcESaIcEEESaIS6_EE19_M_get_Tp_allocatorEv, symObjAddr: 0x2378, symBinAddr: 0x1000062E0, symSize: 0x14 }
  - { offsetInCU: 0x1D46E, offset: 0x1D46E, size: 0x8, addend: 0x0, symName: __ZNSt9__cxx199812_Vector_baseINSt7__cxx1112basic_stringIcSt11char_traitsIcESaIcEEESaIS6_EE13_M_deallocateEPS6_m, symObjAddr: 0x2320, symBinAddr: 0x100006288, symSize: 0x58 }
  - { offsetInCU: 0x1D561, offset: 0x1D561, size: 0x8, addend: 0x0, symName: __ZNSt15__new_allocatorINSt7__cxx1112basic_stringIcSt11char_traitsIcESaIcEEEED2Ev, symObjAddr: 0x230C, symBinAddr: 0x100006274, symSize: 0x14 }
  - { offsetInCU: 0x1D5C2, offset: 0x1D5C2, size: 0x8, addend: 0x0, symName: __ZNSt9__cxx199812_Vector_baseINSt7__cxx1112basic_stringIcSt11char_traitsIcESaIcEEESaIS6_EE17_Vector_impl_dataC2Ev, symObjAddr: 0x22E0, symBinAddr: 0x100006248, symSize: 0x2C }
  - { offsetInCU: 0x1D590, offset: 0x1D590, size: 0x8, addend: 0x0, symName: __ZN11__gnu_debug12_Safe_vectorINSt7__debug6vectorINSt7__cxx1112basic_stringIcSt11char_traitsIcESaIcEEESaIS8_EEENSt9__cxx19986vectorIS8_S9_EEE29_M_update_guaranteed_capacityEv, symObjAddr: 0x2278, symBinAddr: 0x1000061E0, symSize: 0x68 }
  - { offsetInCU: 0x1D5BA, offset: 0x1D5BA, size: 0x8, addend: 0x0, symName: __ZNK11__gnu_debug12_Safe_vectorINSt7__debug6vectorINSt7__cxx1112basic_stringIcSt11char_traitsIcESaIcEEESaIS8_EEENSt9__cxx19986vectorIS8_S9_EEE24_M_requires_reallocationEm, symObjAddr: 0x2240, symBinAddr: 0x1000061A8, symSize: 0x38 }
  - { offsetInCU: 0x1D5F4, offset: 0x1D5F4, size: 0x8, addend: 0x0, symName: __ZNKSt9__cxx19986vectorINSt7__cxx1112basic_stringIcSt11char_traitsIcESaIcEEESaIS6_EE4sizeEv, symObjAddr: 0x2218, symBinAddr: 0x100006180, symSize: 0x28 }
  - { offsetInCU: 0x1D61E, offset: 0x1D61E, size: 0x8, addend: 0x0, symName: __ZNSt9__cxx19986vectorINSt7__cxx1112basic_stringIcSt11char_traitsIcESaIcEEESaIS6_EE9push_backERKS6_, symObjAddr: 0x211C, symBinAddr: 0x100006084, symSize: 0xFC }
  - { offsetInCU: 0x1D6BF, offset: 0x1D6BF, size: 0x8, addend: 0x0, symName: __ZSt12__str_concatINSt7__cxx1112basic_stringIcSt11char_traitsIcESaIcEEEET_PKNS6_10value_typeENS6_9size_typeES9_SA_RKNS6_14allocator_typeE, symObjAddr: 0x203C, symBinAddr: 0x100005FA4, symSize: 0xE0 }
  - { offsetInCU: 0x1D811, offset: 0x1D811, size: 0x8, addend: 0x0, symName: __ZNKSt7__cxx1112basic_stringIcSt11char_traitsIcESaIcEE13get_allocatorEv, symObjAddr: 0x1FEC, symBinAddr: 0x100005F54, symSize: 0x50 }
  - { offsetInCU: 0x1D8F6, offset: 0x1D8F6, size: 0x8, addend: 0x0, symName: __ZNSt7__cxx1112basic_stringIcSt11char_traitsIcESaIcEEC1ERKS3_, symObjAddr: 0x1F94, symBinAddr: 0x100005EFC, symSize: 0x58 }
  - { offsetInCU: 0x1D90B, offset: 0x1D90B, size: 0x8, addend: 0x0, symName: __ZNSt7__cxx1112basic_stringIcSt11char_traitsIcESaIcEE7_S_copyEPcPKcm, symObjAddr: 0x1F48, symBinAddr: 0x100005EB0, symSize: 0x4C }
  - { offsetInCU: 0x1D95B, offset: 0x1D95B, size: 0x8, addend: 0x0, symName: __ZNSt7__cxx1112basic_stringIcSt11char_traitsIcESaIcEE10_M_destroyEm, symObjAddr: 0x1EE4, symBinAddr: 0x100005E4C, symSize: 0x64 }
  - { offsetInCU: 0x1D9CC, offset: 0x1D9CC, size: 0x8, addend: 0x0, symName: __ZNSt7__cxx1112basic_stringIcSt11char_traitsIcESaIcEE12_M_constructIPcEEvT_S7_St20forward_iterator_tag, symObjAddr: 0x1E04, symBinAddr: 0x100005D6C, symSize: 0xE0 }
  - { offsetInCU: 0x1DB48, offset: 0x1DB48, size: 0x8, addend: 0x0, symName: __ZZNSt7__cxx1112basic_stringIcSt11char_traitsIcESaIcEE12_M_constructIPcEEvT_S7_St20forward_iterator_tagEN6_GuardC1EPS4_, symObjAddr: 0x1DAC, symBinAddr: 0x100005D14, symSize: 0x24 }
  - { offsetInCU: 0x1DB79, offset: 0x1DB79, size: 0x8, addend: 0x0, symName: __ZZNSt7__cxx1112basic_stringIcSt11char_traitsIcESaIcEE12_M_constructIPcEEvT_S7_St20forward_iterator_tagEN6_GuardD1Ev, symObjAddr: 0x1DD0, symBinAddr: 0x100005D38, symSize: 0x34 }
  - { offsetInCU: 0x1DBF8, offset: 0x1DBF8, size: 0x8, addend: 0x0, symName: __ZNKSt7__cxx1112basic_stringIcSt11char_traitsIcESaIcEE16_M_get_allocatorEv, symObjAddr: 0x1D98, symBinAddr: 0x100005D00, symSize: 0x14 }
  - { offsetInCU: 0x1DC22, offset: 0x1DC22, size: 0x8, addend: 0x0, symName: __ZNSt7__cxx1112basic_stringIcSt11char_traitsIcESaIcEE12_M_constructIPKcEEvT_S8_St20forward_iterator_tag, symObjAddr: 0x1CB8, symBinAddr: 0x100005C20, symSize: 0xE0 }
  - { offsetInCU: 0x1DD9F, offset: 0x1DD9F, size: 0x8, addend: 0x0, symName: __ZZNSt7__cxx1112basic_stringIcSt11char_traitsIcESaIcEE12_M_constructIPKcEEvT_S8_St20forward_iterator_tagEN6_GuardC1EPS4_, symObjAddr: 0x1C60, symBinAddr: 0x100005BC8, symSize: 0x24 }
  - { offsetInCU: 0x1DDD0, offset: 0x1DDD0, size: 0x8, addend: 0x0, symName: __ZZNSt7__cxx1112basic_stringIcSt11char_traitsIcESaIcEE12_M_constructIPKcEEvT_S8_St20forward_iterator_tagEN6_GuardD1Ev, symObjAddr: 0x1C84, symBinAddr: 0x100005BEC, symSize: 0x34 }
  - { offsetInCU: 0x1DEB7, offset: 0x1DEB7, size: 0x8, addend: 0x0, symName: __ZNSt7__cxx1112basic_stringIcSt11char_traitsIcESaIcEE12_Alloc_hiderC1EPcRKS3_, symObjAddr: 0x1C10, symBinAddr: 0x100005B78, symSize: 0x50 }
  - { offsetInCU: 0x1DF3B, offset: 0x1DF3B, size: 0x8, addend: 0x0, symName: __ZNSt15__new_allocatorIcED2Ev, symObjAddr: 0x1BFC, symBinAddr: 0x100005B64, symSize: 0x14 }
  - { offsetInCU: 0x1DF5D, offset: 0x1DF5D, size: 0x8, addend: 0x0, symName: __ZNKSt7__cxx1112basic_stringIcSt11char_traitsIcESaIcEE4sizeEv, symObjAddr: 0x1BE4, symBinAddr: 0x100005B4C, symSize: 0x18 }
  - { offsetInCU: 0x1DFB3, offset: 0x1DFB3, size: 0x8, addend: 0x0, symName: __ZNSt7__cxx1112basic_stringIcSt11char_traitsIcESaIcEE9_M_lengthEm, symObjAddr: 0x1BC0, symBinAddr: 0x100005B28, symSize: 0x24 }
  - { offsetInCU: 0x1DFED, offset: 0x1DFED, size: 0x8, addend: 0x0, symName: __ZNSt7__cxx1112basic_stringIcSt11char_traitsIcESaIcEE11_M_capacityEm, symObjAddr: 0x1B9C, symBinAddr: 0x100005B04, symSize: 0x24 }
  - { offsetInCU: 0x1E027, offset: 0x1E027, size: 0x8, addend: 0x0, symName: __ZNSt7__cxx1112basic_stringIcSt11char_traitsIcESaIcEE7_M_dataEPc, symObjAddr: 0x1B78, symBinAddr: 0x100005AE0, symSize: 0x24 }
  - { offsetInCU: 0x1E061, offset: 0x1E061, size: 0x8, addend: 0x0, symName: __ZNKSt7__cxx1112basic_stringIcSt11char_traitsIcESaIcEE6lengthEv, symObjAddr: 0x1B60, symBinAddr: 0x100005AC8, symSize: 0x18 }
  - { offsetInCU: 0x1E08B, offset: 0x1E08B, size: 0x8, addend: 0x0, symName: __ZNKSt7__cxx1112basic_stringIcSt11char_traitsIcESaIcEE11_M_is_localEv, symObjAddr: 0x1AF8, symBinAddr: 0x100005A60, symSize: 0x68 }
  - { offsetInCU: 0x1E0B8, offset: 0x1E0B8, size: 0x8, addend: 0x0, symName: __ZSt4moveIRSaIcEEONSt16remove_referenceIT_E4typeEOS3_, symObjAddr: 0x1AE4, symBinAddr: 0x100005A4C, symSize: 0x14 }
  - { offsetInCU: 0x1E0EE, offset: 0x1E0EE, size: 0x8, addend: 0x0, symName: __ZNSt7__cxx1112basic_stringIcSt11char_traitsIcESaIcEE16_M_get_allocatorEv, symObjAddr: 0x1AD0, symBinAddr: 0x100005A38, symSize: 0x14 }
  - { offsetInCU: 0x1E11D, offset: 0x1E11D, size: 0x8, addend: 0x0, symName: __ZNSt7__cxx1112basic_stringIcSt11char_traitsIcESaIcEE7reserveEm, symObjAddr: 0x1A28, symBinAddr: 0x100005990, symSize: 0xA8 }
  - { offsetInCU: 0x1E179, offset: 0x1E179, size: 0x8, addend: 0x0, symName: __ZNSt7__cxx1112basic_stringIcSt11char_traitsIcESaIcEE10_M_disposeEv, symObjAddr: 0x19E0, symBinAddr: 0x100005948, symSize: 0x48 }
  - { offsetInCU: 0x1E1A3, offset: 0x1E1A3, size: 0x8, addend: 0x0, symName: __ZNSt7__cxx1112basic_stringIcSt11char_traitsIcESaIcEE13_M_set_lengthEm, symObjAddr: 0x1998, symBinAddr: 0x100005900, symSize: 0x48 }
  - { offsetInCU: 0x1E271, offset: 0x1E271, size: 0x8, addend: 0x0, symName: __ZNSt7__cxx1112basic_stringIcSt11char_traitsIcESaIcEE12_Alloc_hiderC1EPcOS3_, symObjAddr: 0x193C, symBinAddr: 0x1000058A4, symSize: 0x5C }
  - { offsetInCU: 0x1E2B8, offset: 0x1E2B8, size: 0x8, addend: 0x0, symName: __ZNSt7__cxx1112basic_stringIcSt11char_traitsIcESaIcEE13_M_local_dataEv, symObjAddr: 0x191C, symBinAddr: 0x100005884, symSize: 0x20 }
  - { offsetInCU: 0x1E2E2, offset: 0x1E2E2, size: 0x8, addend: 0x0, symName: __ZNKSt7__cxx1112basic_stringIcSt11char_traitsIcESaIcEE7_M_dataEv, symObjAddr: 0x1904, symBinAddr: 0x10000586C, symSize: 0x18 }
  - { offsetInCU: 0x1E308, offset: 0x1E308, size: 0x8, addend: 0x0, symName: __ZN9__gnu_cxx11char_traitsIcE2eqERKcS3_, symObjAddr: 0x18D4, symBinAddr: 0x10000583C, symSize: 0x30 }
  - { offsetInCU: 0x1E341, offset: 0x1E341, size: 0x8, addend: 0x0, symName: __ZSt3maxIiERKT_S2_S2_, symObjAddr: 0x189C, symBinAddr: 0x100005804, symSize: 0x38 }
  - { offsetInCU: 0x1E385, offset: 0x1E385, size: 0x8, addend: 0x0, symName: __ZSt3minIiERKT_S2_S2_, symObjAddr: 0x1864, symBinAddr: 0x1000057CC, symSize: 0x38 }
  - { offsetInCU: 0x1E3CB, offset: 0x1E3CB, size: 0x8, addend: 0x0, symName: __ZNK9__gnu_cxx17__normal_iteratorIPcNSt7__cxx1112basic_stringIcSt11char_traitsIcESaIcEEEEdeEv, symObjAddr: 0x184C, symBinAddr: 0x1000057B4, symSize: 0x18 }
  - { offsetInCU: 0x1E3F5, offset: 0x1E3F5, size: 0x8, addend: 0x0, symName: __ZN9__gnu_cxx17__normal_iteratorIPcNSt7__cxx1112basic_stringIcSt11char_traitsIcESaIcEEEEppEv, symObjAddr: 0x1824, symBinAddr: 0x10000578C, symSize: 0x28 }
  - { offsetInCU: 0x1E421, offset: 0x1E421, size: 0x8, addend: 0x0, symName: __ZN9__gnu_cxxneIPcNSt7__cxx1112basic_stringIcSt11char_traitsIcESaIcEEEEEbRKNS_17__normal_iteratorIT_T0_EESD_, symObjAddr: 0x17E0, symBinAddr: 0x100005748, symSize: 0x44 }
  - { offsetInCU: 0x1E472, offset: 0x1E472, size: 0x8, addend: 0x0, symName: __ZNSt7__cxx1112basic_stringIcSt11char_traitsIcESaIcEE3endEv, symObjAddr: 0x1798, symBinAddr: 0x100005700, symSize: 0x48 }
  - { offsetInCU: 0x1E49C, offset: 0x1E49C, size: 0x8, addend: 0x0, symName: __ZNSt7__cxx1112basic_stringIcSt11char_traitsIcESaIcEE5beginEv, symObjAddr: 0x1768, symBinAddr: 0x1000056D0, symSize: 0x30 }
  - { offsetInCU: 0x1E4C6, offset: 0x1E4C6, size: 0x8, addend: 0x0, symName: __ZNK11__gnu_debug14_Safe_iteratorIN9__gnu_cxx17__normal_iteratorIPNSt7__cxx1112basic_stringIcSt11char_traitsIcESaIcEEENSt9__cxx19986vectorIS8_SaIS8_EEEEENSt7__debug6vectorIS8_SC_EESt20forward_iterator_tagEdeEv, symObjAddr: 0x16C8, symBinAddr: 0x100005630, symSize: 0xA0 }
  - { offsetInCU: 0x1E531, offset: 0x1E531, size: 0x8, addend: 0x0, symName: __ZN11__gnu_debug14_Safe_iteratorIN9__gnu_cxx17__normal_iteratorIPNSt7__cxx1112basic_stringIcSt11char_traitsIcESaIcEEENSt9__cxx19986vectorIS8_SaIS8_EEEEENSt7__debug6vectorIS8_SC_EESt26random_access_iterator_tagEppEv, symObjAddr: 0x16A8, symBinAddr: 0x100005610, symSize: 0x20 }
  - { offsetInCU: 0x1E55D, offset: 0x1E55D, size: 0x8, addend: 0x0, symName: __ZN11__gnu_debugneERKNS_14_Safe_iteratorIN9__gnu_cxx17__normal_iteratorIPNSt7__cxx1112basic_stringIcSt11char_traitsIcESaIcEEENSt9__cxx19986vectorIS8_SaIS8_EEEEENSt7__debug6vectorIS8_SC_EESt26random_access_iterator_tagEESL_, symObjAddr: 0x14B8, symBinAddr: 0x100005420, symSize: 0x1F0 }
  - { offsetInCU: 0x1E5DD, offset: 0x1E5DD, size: 0x8, addend: 0x0, symName: __ZNSt7__debug6vectorINSt7__cxx1112basic_stringIcSt11char_traitsIcESaIcEEESaIS6_EE3endEv, symObjAddr: 0x1474, symBinAddr: 0x1000053DC, symSize: 0x44 }
  - { offsetInCU: 0x1E607, offset: 0x1E607, size: 0x8, addend: 0x0, symName: __ZNSt7__debug6vectorINSt7__cxx1112basic_stringIcSt11char_traitsIcESaIcEEESaIS6_EE5beginEv, symObjAddr: 0x1430, symBinAddr: 0x100005398, symSize: 0x44 }
  - { offsetInCU: 0x1E6D9, offset: 0x1E6D9, size: 0x8, addend: 0x0, symName: __ZN11__gnu_debug12_Safe_vectorINSt7__debug6vectorINSt7__cxx1112basic_stringIcSt11char_traitsIcESaIcEEESaIS8_EEENSt9__cxx19986vectorIS8_S9_EEEC2Ev, symObjAddr: 0x1408, symBinAddr: 0x100005370, symSize: 0x28 }
  - { offsetInCU: 0x1E6E9, offset: 0x1E6E9, size: 0x8, addend: 0x0, symName: __ZNSt9__cxx19986vectorINSt7__cxx1112basic_stringIcSt11char_traitsIcESaIcEEESaIS6_EED2Ev, symObjAddr: 0x13AC, symBinAddr: 0x100005314, symSize: 0x5C }
  - { offsetInCU: 0x1E770, offset: 0x1E770, size: 0x8, addend: 0x0, symName: __ZNSt9__cxx199812_Vector_baseINSt7__cxx1112basic_stringIcSt11char_traitsIcESaIcEEESaIS6_EED2Ev, symObjAddr: 0x135C, symBinAddr: 0x1000052C4, symSize: 0x50 }
  - { offsetInCU: 0x1E7DE, offset: 0x1E7DE, size: 0x8, addend: 0x0, symName: __ZNSt9__cxx199812_Vector_baseINSt7__cxx1112basic_stringIcSt11char_traitsIcESaIcEEESaIS6_EE12_Vector_implC1Ev, symObjAddr: 0x1324, symBinAddr: 0x10000528C, symSize: 0x38 }
  - { offsetInCU: 0x1E7E1, offset: 0x1E7E1, size: 0x8, addend: 0x0, symName: __ZNSt7__debug6vectorINSt7__cxx1112basic_stringIcSt11char_traitsIcESaIcEEESaIS6_EE9push_backERKS6_, symObjAddr: 0x1284, symBinAddr: 0x1000051EC, symSize: 0xA0 }
  - { offsetInCU: 0x1E843, offset: 0x1E843, size: 0x8, addend: 0x0, symName: __ZStplIcSt11char_traitsIcESaIcEENSt7__cxx1112basic_stringIT_T0_T1_EERKS8_PKS5_, symObjAddr: 0x11D4, symBinAddr: 0x10000513C, symSize: 0xB0 }
  - { offsetInCU: 0x1E8DB, offset: 0x1E8DB, size: 0x8, addend: 0x0, symName: __ZSt11__addressofINSt7__cxx1112basic_stringIcSt11char_traitsIcESaIcEEEEPT_RS6_, symObjAddr: 0x11C0, symBinAddr: 0x100005128, symSize: 0x14 }
  - { offsetInCU: 0x1E973, offset: 0x1E973, size: 0x8, addend: 0x0, symName: __ZNSt7__cxx1112basic_stringIcSt11char_traitsIcESaIcEEC1ERKS4_, symObjAddr: 0x10D4, symBinAddr: 0x10000503C, symSize: 0xEC }
  - { offsetInCU: 0x1EA2E, offset: 0x1EA2E, size: 0x8, addend: 0x0, symName: __ZSt4moveIRNSt7__cxx1112basic_stringIcSt11char_traitsIcESaIcEEEEONSt16remove_referenceIT_E4typeEOS8_, symObjAddr: 0x10C0, symBinAddr: 0x100005028, symSize: 0x14 }
  - { offsetInCU: 0x1EAED, offset: 0x1EAED, size: 0x8, addend: 0x0, symName: __ZNSt7__cxx1112basic_stringIcSt11char_traitsIcESaIcEEC1IS3_EEPKcRKS3_, symObjAddr: 0x1024, symBinAddr: 0x100004F8C, symSize: 0x9C }
  - { offsetInCU: 0x1EB0C, offset: 0x1EB0C, size: 0x8, addend: 0x0, symName: __ZSt3maxImERKT_S2_S2_, symObjAddr: 0xFEC, symBinAddr: 0x100004F54, symSize: 0x38 }
  - { offsetInCU: 0x1EBEB, offset: 0x1EBEB, size: 0x8, addend: 0x0, symName: __ZNSt7__cxx1112basic_stringIcSt11char_traitsIcESaIcEEC1EOS4_, symObjAddr: 0xEE4, symBinAddr: 0x100004E4C, symSize: 0x108 }
  - { offsetInCU: 0x1EC83, offset: 0x1EC83, size: 0x8, addend: 0x0, symName: __ZNSt7__cxx1112basic_stringIcSt11char_traitsIcESaIcEED1Ev, symObjAddr: 0xEBC, symBinAddr: 0x100004E24, symSize: 0x28 }
  - { offsetInCU: 0x1ECDE, offset: 0x1ECDE, size: 0x8, addend: 0x0, symName: __ZNSt7__cxx1112basic_stringIcSt11char_traitsIcESaIcEE12_Alloc_hiderD1Ev, symObjAddr: 0xE90, symBinAddr: 0x100004DF8, symSize: 0x2C }
  - { offsetInCU: 0x1ECE3, offset: 0x1ECE3, size: 0x8, addend: 0x0, symName: __ZNKSt7__cxx1112basic_stringIcSt11char_traitsIcESaIcEE5c_strEv, symObjAddr: 0xE74, symBinAddr: 0x100004DDC, symSize: 0x1C }
  - { offsetInCU: 0x1ED09, offset: 0x1ED09, size: 0x8, addend: 0x0, symName: __ZN9__gnu_cxx11char_traitsIcE6lengthEPKc, symObjAddr: 0xE1C, symBinAddr: 0x100004D84, symSize: 0x58 }
  - { offsetInCU: 0x1ED4B, offset: 0x1ED4B, size: 0x8, addend: 0x0, symName: _main, symObjAddr: 0xB78, symBinAddr: 0x100004AE0, symSize: 0x2A4 }
  - { offsetInCU: 0x1EF47, offset: 0x1EF47, size: 0x8, addend: 0x0, symName: __ZN11__gnu_debug14_Safe_iteratorIN9__gnu_cxx17__normal_iteratorIPNSt7__cxx1112basic_stringIcSt11char_traitsIcESaIcEEENSt9__cxx19986vectorIS8_SaIS8_EEEEENSt7__debug6vectorIS8_SC_EESt26random_access_iterator_tagED1Ev, symObjAddr: 0xB58, symBinAddr: 0x100004AC0, symSize: 0x20 }
  - { offsetInCU: 0x1EF95, offset: 0x1EF95, size: 0x8, addend: 0x0, symName: __ZN11__gnu_debug14_Safe_iteratorIN9__gnu_cxx17__normal_iteratorIPNSt7__cxx1112basic_stringIcSt11char_traitsIcESaIcEEENSt9__cxx19986vectorIS8_SaIS8_EEEEENSt7__debug6vectorIS8_SC_EESt26bidirectional_iterator_tagED2Ev, symObjAddr: 0xB38, symBinAddr: 0x100004AA0, symSize: 0x20 }
  - { offsetInCU: 0x1EFDC, offset: 0x1EFDC, size: 0x8, addend: 0x0, symName: __ZN11__gnu_debug14_Safe_iteratorIN9__gnu_cxx17__normal_iteratorIPNSt7__cxx1112basic_stringIcSt11char_traitsIcESaIcEEENSt9__cxx19986vectorIS8_SaIS8_EEEEENSt7__debug6vectorIS8_SC_EESt20forward_iterator_tagED2Ev, symObjAddr: 0xB14, symBinAddr: 0x100004A7C, symSize: 0x24 }
  - { offsetInCU: 0x1EF64, offset: 0x1EF64, size: 0x8, addend: 0x0, symName: __Z16getAllBitstringsB5cxx11ii, symObjAddr: 0xA58, symBinAddr: 0x1000049C0, symSize: 0xBC }
  - { offsetInCU: 0x1F082, offset: 0x1F082, size: 0x8, addend: 0x0, symName: __ZNSt7__debug6vectorINSt7__cxx1112basic_stringIcSt11char_traitsIcESaIcEEESaIS6_EED1Ev, symObjAddr: 0xA2C, symBinAddr: 0x100004994, symSize: 0x2C }
  - { offsetInCU: 0x1F0C2, offset: 0x1F0C2, size: 0x8, addend: 0x0, symName: __ZNSt7__debug6vectorINSt7__cxx1112basic_stringIcSt11char_traitsIcESaIcEEESaIS6_EEC1Ev, symObjAddr: 0x9F4, symBinAddr: 0x10000495C, symSize: 0x38 }
  - { offsetInCU: 0x1F104, offset: 0x1F104, size: 0x8, addend: 0x0, symName: __ZNSt9__cxx19986vectorINSt7__cxx1112basic_stringIcSt11char_traitsIcESaIcEEESaIS6_EEC2Ev, symObjAddr: 0x9D4, symBinAddr: 0x10000493C, symSize: 0x20 }
  - { offsetInCU: 0x1F14B, offset: 0x1F14B, size: 0x8, addend: 0x0, symName: __ZNSt9__cxx199812_Vector_baseINSt7__cxx1112basic_stringIcSt11char_traitsIcESaIcEEESaIS6_EEC2Ev, symObjAddr: 0x9B4, symBinAddr: 0x10000491C, symSize: 0x20 }
  - { offsetInCU: 0x1F1A6, offset: 0x1F1A6, size: 0x8, addend: 0x0, symName: __ZNSt9__cxx199812_Vector_baseINSt7__cxx1112basic_stringIcSt11char_traitsIcESaIcEEESaIS6_EE12_Vector_implD1Ev, symObjAddr: 0x988, symBinAddr: 0x1000048F0, symSize: 0x2C }
  - { offsetInCU: 0x1F23C, offset: 0x1F23C, size: 0x8, addend: 0x0, symName: __ZN11__gnu_debug15_Safe_containerINSt7__debug6vectorINSt7__cxx1112basic_stringIcSt11char_traitsIcESaIcEEESaIS8_EEES9_NS_14_Safe_sequenceELb1EED2Ev, symObjAddr: 0x968, symBinAddr: 0x1000048D0, symSize: 0x20 }
  - { offsetInCU: 0x1F27C, offset: 0x1F27C, size: 0x8, addend: 0x0, symName: __ZN11__gnu_debug15_Safe_containerINSt7__debug6vectorINSt7__cxx1112basic_stringIcSt11char_traitsIcESaIcEEESaIS8_EEES9_NS_14_Safe_sequenceELb1EEC2Ev, symObjAddr: 0x948, symBinAddr: 0x1000048B0, symSize: 0x20 }
  - { offsetInCU: 0x1F2B8, offset: 0x1F2B8, size: 0x8, addend: 0x0, symName: __ZN11__gnu_debug14_Safe_sequenceINSt7__debug6vectorINSt7__cxx1112basic_stringIcSt11char_traitsIcESaIcEEESaIS8_EEEED2Ev, symObjAddr: 0x928, symBinAddr: 0x100004890, symSize: 0x20 }
  - { offsetInCU: 0x1F2FB, offset: 0x1F2FB, size: 0x8, addend: 0x0, symName: __ZN11__gnu_debug14_Safe_sequenceINSt7__debug6vectorINSt7__cxx1112basic_stringIcSt11char_traitsIcESaIcEEESaIS8_EEEEC2Ev, symObjAddr: 0x908, symBinAddr: 0x100004870, symSize: 0x20 }
  - { offsetInCU: 0x1F32A, offset: 0x1F32A, size: 0x8, addend: 0x0, symName: __Z18generateBitstringsiiNSt7__cxx1112basic_stringIcSt11char_traitsIcESaIcEEERNSt7__debug6vectorIS4_SaIS4_EEE, symObjAddr: 0x7F0, symBinAddr: 0x100004758, symSize: 0x118 }
  - { offsetInCU: 0x1F352, offset: 0x1F352, size: 0x8, addend: 0x0, symName: __Z5setIONSt7__cxx1112basic_stringIcSt11char_traitsIcESaIcEEE, symObjAddr: 0x754, symBinAddr: 0x1000046BC, symSize: 0x9C }
  - { offsetInCU: 0x1F340, offset: 0x1F340, size: 0x8, addend: 0x0, symName: __ZSt3minImERKT_S2_S2_, symObjAddr: 0x71C, symBinAddr: 0x100004684, symSize: 0x38 }
  - { offsetInCU: 0x1F386, offset: 0x1F386, size: 0x8, addend: 0x0, symName: __ZNK11__gnu_debug19_Safe_sequence_base17_M_invalidate_allEv, symObjAddr: 0x6C8, symBinAddr: 0x100004630, symSize: 0x54 }
  - { offsetInCU: 0x1F3FA, offset: 0x1F3FA, size: 0x8, addend: 0x0, symName: __ZN11__gnu_debug19_Safe_sequence_baseD2Ev, symObjAddr: 0x690, symBinAddr: 0x1000045F8, symSize: 0x38 }
  - { offsetInCU: 0x1F453, offset: 0x1F453, size: 0x8, addend: 0x0, symName: __ZN11__gnu_debug19_Safe_sequence_baseC2Ev, symObjAddr: 0x660, symBinAddr: 0x1000045C8, symSize: 0x30 }
  - { offsetInCU: 0x1F49D, offset: 0x1F49D, size: 0x8, addend: 0x0, symName: __ZN11__gnu_debug19_Safe_iterator_baseD2Ev, symObjAddr: 0x628, symBinAddr: 0x100004590, symSize: 0x38 }
  - { offsetInCU: 0x1F52B, offset: 0x1F52B, size: 0x8, addend: 0x0, symName: __ZN11__gnu_debug19_Safe_iterator_baseC2EPKNS_19_Safe_sequence_baseEb, symObjAddr: 0x5B8, symBinAddr: 0x100004520, symSize: 0x70 }
  - { offsetInCU: 0x1F57C, offset: 0x1F57C, size: 0x8, addend: 0x0, symName: __ZN9__gnu_cxx13__scoped_lockD1Ev, symObjAddr: 0x594, symBinAddr: 0x1000044FC, symSize: 0x24 }
  - { offsetInCU: 0x1F5D5, offset: 0x1F5D5, size: 0x8, addend: 0x0, symName: __ZN9__gnu_cxx13__scoped_lockC1ERNS_7__mutexE, symObjAddr: 0x560, symBinAddr: 0x1000044C8, symSize: 0x34 }
  - { offsetInCU: 0x1F5DB, offset: 0x1F5DB, size: 0x8, addend: 0x0, symName: __ZN9__gnu_cxx7__mutex6unlockEv, symObjAddr: 0x508, symBinAddr: 0x100004470, symSize: 0x58 }
  - { offsetInCU: 0x1F605, offset: 0x1F605, size: 0x8, addend: 0x0, symName: __ZN9__gnu_cxx7__mutex4lockEv, symObjAddr: 0x4B0, symBinAddr: 0x100004418, symSize: 0x58 }
  - { offsetInCU: 0x1F62C, offset: 0x1F62C, size: 0x8, addend: 0x0, symName: __ZN9__gnu_cxx32__throw_concurrence_unlock_errorEv, symObjAddr: 0x474, symBinAddr: 0x1000043DC, symSize: 0x3C }
  - { offsetInCU: 0x1F698, offset: 0x1F698, size: 0x8, addend: 0x0, symName: __ZN9__gnu_cxx26__concurrence_unlock_errorD0Ev, symObjAddr: 0x44C, symBinAddr: 0x1000043B4, symSize: 0x28 }
  - { offsetInCU: 0x1F6C2, offset: 0x1F6C2, size: 0x8, addend: 0x0, symName: __ZN9__gnu_cxx26__concurrence_unlock_errorD1Ev, symObjAddr: 0x418, symBinAddr: 0x100004380, symSize: 0x34 }
  - { offsetInCU: 0x1F705, offset: 0x1F705, size: 0x8, addend: 0x0, symName: __ZN9__gnu_cxx26__concurrence_unlock_errorC1Ev, symObjAddr: 0x3E4, symBinAddr: 0x10000434C, symSize: 0x34 }
  - { offsetInCU: 0x1F6FE, offset: 0x1F6FE, size: 0x8, addend: 0x0, symName: __ZN9__gnu_cxx30__throw_concurrence_lock_errorEv, symObjAddr: 0x3A8, symBinAddr: 0x100004310, symSize: 0x3C }
  - { offsetInCU: 0x1F768, offset: 0x1F768, size: 0x8, addend: 0x0, symName: __ZN9__gnu_cxx24__concurrence_lock_errorD0Ev, symObjAddr: 0x380, symBinAddr: 0x1000042E8, symSize: 0x28 }
  - { offsetInCU: 0x1F792, offset: 0x1F792, size: 0x8, addend: 0x0, symName: __ZN9__gnu_cxx24__concurrence_lock_errorD1Ev, symObjAddr: 0x34C, symBinAddr: 0x1000042B4, symSize: 0x34 }
  - { offsetInCU: 0x1F7D5, offset: 0x1F7D5, size: 0x8, addend: 0x0, symName: __ZN9__gnu_cxx24__concurrence_lock_errorC1Ev, symObjAddr: 0x318, symBinAddr: 0x100004280, symSize: 0x34 }
  - { offsetInCU: 0x1F7D3, offset: 0x1F7D3, size: 0x8, addend: 0x0, symName: __ZNK9__gnu_cxx26__concurrence_unlock_error4whatEv, symObjAddr: 0x300, symBinAddr: 0x100004268, symSize: 0x18 }
  - { offsetInCU: 0x1F7FD, offset: 0x1F7FD, size: 0x8, addend: 0x0, symName: __ZNK9__gnu_cxx24__concurrence_lock_error4whatEv, symObjAddr: 0x2E8, symBinAddr: 0x100004250, symSize: 0x18 }
  - { offsetInCU: 0x1F83F, offset: 0x1F83F, size: 0x8, addend: 0x0, symName: __ZL22__gthread_mutex_unlockP23_opaque_pthread_mutex_t, symObjAddr: 0x2A8, symBinAddr: 0x100004210, symSize: 0x40 }
  - { offsetInCU: 0x1F86F, offset: 0x1F86F, size: 0x8, addend: 0x0, symName: __ZL20__gthread_mutex_lockP23_opaque_pthread_mutex_t, symObjAddr: 0x268, symBinAddr: 0x1000041D0, symSize: 0x40 }
  - { offsetInCU: 0x1F89F, offset: 0x1F89F, size: 0x8, addend: 0x0, symName: __ZL18__gthread_active_pv, symObjAddr: 0x260, symBinAddr: 0x1000041C8, symSize: 0x8 }
  - { offsetInCU: 0x1F8A7, offset: 0x1F8A7, size: 0x8, addend: 0x0, symName: __ZNSt11char_traitsIcE4copyEPcPKcm, symObjAddr: 0x20C, symBinAddr: 0x100004174, symSize: 0x54 }
  - { offsetInCU: 0x1F8F3, offset: 0x1F8F3, size: 0x8, addend: 0x0, symName: __ZNSt11char_traitsIcE6lengthEPKc, symObjAddr: 0x1D0, symBinAddr: 0x100004138, symSize: 0x3C }
  - { offsetInCU: 0x1F937, offset: 0x1F937, size: 0x8, addend: 0x0, symName: __ZNSt11char_traitsIcE6assignERcRKc, symObjAddr: 0x1A8, symBinAddr: 0x100004110, symSize: 0x28 }
  - { offsetInCU: 0x1F97F, offset: 0x1F97F, size: 0x8, addend: 0x0, symName: __ZdlPvS_, symObjAddr: 0x190, symBinAddr: 0x1000040F8, symSize: 0x18 }
  - { offsetInCU: 0x1F9B4, offset: 0x1F9B4, size: 0x8, addend: 0x0, symName: __ZnwmPv, symObjAddr: 0x178, symBinAddr: 0x1000040E0, symSize: 0x18 }
  - { offsetInCU: 0x1F9E1, offset: 0x1F9E1, size: 0x8, addend: 0x0, symName: __ZN11__gnu_debug16_Error_formatter5_S_atEPKcjS2_, symObjAddr: 0xE4, symBinAddr: 0x10000404C, symSize: 0x94 }
  - { offsetInCU: 0x1FA7F, offset: 0x1FA7F, size: 0x8, addend: 0x0, symName: __ZZN11__gnu_debug16_Error_formatter5_S_atEPKcjS2_E11__formatter, symObjAddr: 0x3C30, symBinAddr: 0x100010000, symSize: 0x0 }
  - { offsetInCU: 0x1FABA, offset: 0x1FABA, size: 0x8, addend: 0x0, symName: __ZN11__gnu_debug16_Error_formatterC1EPKcjS2_, symObjAddr: 0x58, symBinAddr: 0x100003FC0, symSize: 0x8C }
  - { offsetInCU: 0x1FB1B, offset: 0x1FB1B, size: 0x8, addend: 0x0, symName: __ZN11__gnu_debug16_Error_formatter10_ParameterC1Ev, symObjAddr: 0x28, symBinAddr: 0x100003F90, symSize: 0x30 }
  - { offsetInCU: 0x1FB3C, offset: 0x1FB3C, size: 0x8, addend: 0x0, symName: __ZNSt9exceptionC2Ev, symObjAddr: 0x0, symBinAddr: 0x100003F68, symSize: 0x28 }
...
